
teavpn2:     file format elf64-x86-64


Disassembly of section .init:

0000000000402000 <_init>:
  402000:	f3 0f 1e fa          	endbr64 
  402004:	48 83 ec 08          	sub    $0x8,%rsp
  402008:	48 8b 05 c1 bf 00 00 	mov    0xbfc1(%rip),%rax        # 40dfd0 <__gmon_start__>
  40200f:	48 85 c0             	test   %rax,%rax
  402012:	74 02                	je     402016 <_init+0x16>
  402014:	ff d0                	call   *%rax
  402016:	48 83 c4 08          	add    $0x8,%rsp
  40201a:	c3                   	ret    

Disassembly of section .plt:

0000000000402020 <.plt>:
  402020:	ff 35 e2 bf 00 00    	push   0xbfe2(%rip)        # 40e008 <_GLOBAL_OFFSET_TABLE_+0x8>
  402026:	ff 25 e4 bf 00 00    	jmp    *0xbfe4(%rip)        # 40e010 <_GLOBAL_OFFSET_TABLE_+0x10>
  40202c:	0f 1f 40 00          	nopl   0x0(%rax)

0000000000402030 <ERR_reason_error_string@plt>:
  402030:	ff 25 e2 bf 00 00    	jmp    *0xbfe2(%rip)        # 40e018 <ERR_reason_error_string@OPENSSL_1_1_0>
  402036:	68 00 00 00 00       	push   $0x0
  40203b:	e9 e0 ff ff ff       	jmp    402020 <.plt>

0000000000402040 <printf@plt>:
  402040:	ff 25 da bf 00 00    	jmp    *0xbfda(%rip)        # 40e020 <printf@GLIBC_2.2.5>
  402046:	68 01 00 00 00       	push   $0x1
  40204b:	e9 d0 ff ff ff       	jmp    402020 <.plt>

0000000000402050 <memset@plt>:
  402050:	ff 25 d2 bf 00 00    	jmp    *0xbfd2(%rip)        # 40e028 <memset@GLIBC_2.2.5>
  402056:	68 02 00 00 00       	push   $0x2
  40205b:	e9 c0 ff ff ff       	jmp    402020 <.plt>

0000000000402060 <ERR_get_error@plt>:
  402060:	ff 25 ca bf 00 00    	jmp    *0xbfca(%rip)        # 40e030 <ERR_get_error@OPENSSL_1_1_0>
  402066:	68 03 00 00 00       	push   $0x3
  40206b:	e9 b0 ff ff ff       	jmp    402020 <.plt>

0000000000402070 <snprintf@plt>:
  402070:	ff 25 c2 bf 00 00    	jmp    *0xbfc2(%rip)        # 40e038 <snprintf@GLIBC_2.2.5>
  402076:	68 04 00 00 00       	push   $0x4
  40207b:	e9 a0 ff ff ff       	jmp    402020 <.plt>

0000000000402080 <SSL_CTX_free@plt>:
  402080:	ff 25 ba bf 00 00    	jmp    *0xbfba(%rip)        # 40e040 <SSL_CTX_free@OPENSSL_1_1_0>
  402086:	68 05 00 00 00       	push   $0x5
  40208b:	e9 90 ff ff ff       	jmp    402020 <.plt>

0000000000402090 <inet_pton@plt>:
  402090:	ff 25 b2 bf 00 00    	jmp    *0xbfb2(%rip)        # 40e048 <inet_pton@GLIBC_2.2.5>
  402096:	68 06 00 00 00       	push   $0x6
  40209b:	e9 80 ff ff ff       	jmp    402020 <.plt>

00000000004020a0 <close@plt>:
  4020a0:	ff 25 aa bf 00 00    	jmp    *0xbfaa(%rip)        # 40e050 <close@GLIBC_2.2.5>
  4020a6:	68 07 00 00 00       	push   $0x7
  4020ab:	e9 70 ff ff ff       	jmp    402020 <.plt>

00000000004020b0 <ioctl@plt>:
  4020b0:	ff 25 a2 bf 00 00    	jmp    *0xbfa2(%rip)        # 40e058 <ioctl@GLIBC_2.2.5>
  4020b6:	68 08 00 00 00       	push   $0x8
  4020bb:	e9 60 ff ff ff       	jmp    402020 <.plt>

00000000004020c0 <memchr@plt>:
  4020c0:	ff 25 9a bf 00 00    	jmp    *0xbf9a(%rip)        # 40e060 <memchr@GLIBC_2.2.5>
  4020c6:	68 09 00 00 00       	push   $0x9
  4020cb:	e9 50 ff ff ff       	jmp    402020 <.plt>

00000000004020d0 <asctime@plt>:
  4020d0:	ff 25 92 bf 00 00    	jmp    *0xbf92(%rip)        # 40e068 <asctime@GLIBC_2.2.5>
  4020d6:	68 0a 00 00 00       	push   $0xa
  4020db:	e9 40 ff ff ff       	jmp    402020 <.plt>

00000000004020e0 <epoll_create@plt>:
  4020e0:	ff 25 8a bf 00 00    	jmp    *0xbf8a(%rip)        # 40e070 <epoll_create@GLIBC_2.3.2>
  4020e6:	68 0b 00 00 00       	push   $0xb
  4020eb:	e9 30 ff ff ff       	jmp    402020 <.plt>

00000000004020f0 <puts@plt>:
  4020f0:	ff 25 82 bf 00 00    	jmp    *0xbf82(%rip)        # 40e078 <puts@GLIBC_2.2.5>
  4020f6:	68 0c 00 00 00       	push   $0xc
  4020fb:	e9 20 ff ff ff       	jmp    402020 <.plt>

0000000000402100 <ERR_func_error_string@plt>:
  402100:	ff 25 7a bf 00 00    	jmp    *0xbf7a(%rip)        # 40e080 <ERR_func_error_string@OPENSSL_1_1_0>
  402106:	68 0d 00 00 00       	push   $0xd
  40210b:	e9 10 ff ff ff       	jmp    402020 <.plt>

0000000000402110 <exit@plt>:
  402110:	ff 25 72 bf 00 00    	jmp    *0xbf72(%rip)        # 40e088 <exit@GLIBC_2.2.5>
  402116:	68 0e 00 00 00       	push   $0xe
  40211b:	e9 00 ff ff ff       	jmp    402020 <.plt>

0000000000402120 <putchar@plt>:
  402120:	ff 25 6a bf 00 00    	jmp    *0xbf6a(%rip)        # 40e090 <putchar@GLIBC_2.2.5>
  402126:	68 0f 00 00 00       	push   $0xf
  40212b:	e9 f0 fe ff ff       	jmp    402020 <.plt>

0000000000402130 <strsignal@plt>:
  402130:	ff 25 62 bf 00 00    	jmp    *0xbf62(%rip)        # 40e098 <strsignal@GLIBC_2.2.5>
  402136:	68 10 00 00 00       	push   $0x10
  40213b:	e9 e0 fe ff ff       	jmp    402020 <.plt>

0000000000402140 <read@plt>:
  402140:	ff 25 5a bf 00 00    	jmp    *0xbf5a(%rip)        # 40e0a0 <read@GLIBC_2.2.5>
  402146:	68 11 00 00 00       	push   $0x11
  40214b:	e9 d0 fe ff ff       	jmp    402020 <.plt>

0000000000402150 <strncmp@plt>:
  402150:	ff 25 52 bf 00 00    	jmp    *0xbf52(%rip)        # 40e0a8 <strncmp@GLIBC_2.2.5>
  402156:	68 12 00 00 00       	push   $0x12
  40215b:	e9 c0 fe ff ff       	jmp    402020 <.plt>

0000000000402160 <malloc@plt>:
  402160:	ff 25 4a bf 00 00    	jmp    *0xbf4a(%rip)        # 40e0b0 <malloc@GLIBC_2.2.5>
  402166:	68 13 00 00 00       	push   $0x13
  40216b:	e9 b0 fe ff ff       	jmp    402020 <.plt>

0000000000402170 <fopen@plt>:
  402170:	ff 25 42 bf 00 00    	jmp    *0xbf42(%rip)        # 40e0b8 <fopen@GLIBC_2.2.5>
  402176:	68 14 00 00 00       	push   $0x14
  40217b:	e9 a0 fe ff ff       	jmp    402020 <.plt>

0000000000402180 <recv@plt>:
  402180:	ff 25 3a bf 00 00    	jmp    *0xbf3a(%rip)        # 40e0c0 <recv@GLIBC_2.2.5>
  402186:	68 15 00 00 00       	push   $0x15
  40218b:	e9 90 fe ff ff       	jmp    402020 <.plt>

0000000000402190 <system@plt>:
  402190:	ff 25 32 bf 00 00    	jmp    *0xbf32(%rip)        # 40e0c8 <system@GLIBC_2.2.5>
  402196:	68 16 00 00 00       	push   $0x16
  40219b:	e9 80 fe ff ff       	jmp    402020 <.plt>

00000000004021a0 <SSL_CTX_use_certificate_file@plt>:
  4021a0:	ff 25 2a bf 00 00    	jmp    *0xbf2a(%rip)        # 40e0d0 <SSL_CTX_use_certificate_file@OPENSSL_1_1_0>
  4021a6:	68 17 00 00 00       	push   $0x17
  4021ab:	e9 70 fe ff ff       	jmp    402020 <.plt>

00000000004021b0 <setsockopt@plt>:
  4021b0:	ff 25 22 bf 00 00    	jmp    *0xbf22(%rip)        # 40e0d8 <setsockopt@GLIBC_2.2.5>
  4021b6:	68 18 00 00 00       	push   $0x18
  4021bb:	e9 60 fe ff ff       	jmp    402020 <.plt>

00000000004021c0 <sysconf@plt>:
  4021c0:	ff 25 1a bf 00 00    	jmp    *0xbf1a(%rip)        # 40e0e0 <sysconf@GLIBC_2.2.5>
  4021c6:	68 19 00 00 00       	push   $0x19
  4021cb:	e9 50 fe ff ff       	jmp    402020 <.plt>

00000000004021d0 <pthread_mutex_init@plt>:
  4021d0:	ff 25 12 bf 00 00    	jmp    *0xbf12(%rip)        # 40e0e8 <pthread_mutex_init@GLIBC_2.2.5>
  4021d6:	68 1a 00 00 00       	push   $0x1a
  4021db:	e9 40 fe ff ff       	jmp    402020 <.plt>

00000000004021e0 <vfprintf@plt>:
  4021e0:	ff 25 0a bf 00 00    	jmp    *0xbf0a(%rip)        # 40e0f0 <vfprintf@GLIBC_2.2.5>
  4021e6:	68 1b 00 00 00       	push   $0x1b
  4021eb:	e9 30 fe ff ff       	jmp    402020 <.plt>

00000000004021f0 <strnlen@plt>:
  4021f0:	ff 25 02 bf 00 00    	jmp    *0xbf02(%rip)        # 40e0f8 <strnlen@GLIBC_2.2.5>
  4021f6:	68 1c 00 00 00       	push   $0x1c
  4021fb:	e9 20 fe ff ff       	jmp    402020 <.plt>

0000000000402200 <free@plt>:
  402200:	ff 25 fa be 00 00    	jmp    *0xbefa(%rip)        # 40e100 <free@GLIBC_2.2.5>
  402206:	68 1d 00 00 00       	push   $0x1d
  40220b:	e9 10 fe ff ff       	jmp    402020 <.plt>

0000000000402210 <strlen@plt>:
  402210:	ff 25 f2 be 00 00    	jmp    *0xbef2(%rip)        # 40e108 <strlen@GLIBC_2.2.5>
  402216:	68 1e 00 00 00       	push   $0x1e
  40221b:	e9 00 fe ff ff       	jmp    402020 <.plt>

0000000000402220 <pthread_create@plt>:
  402220:	ff 25 ea be 00 00    	jmp    *0xbeea(%rip)        # 40e110 <pthread_create@GLIBC_2.2.5>
  402226:	68 1f 00 00 00       	push   $0x1f
  40222b:	e9 f0 fd ff ff       	jmp    402020 <.plt>

0000000000402230 <nice@plt>:
  402230:	ff 25 e2 be 00 00    	jmp    *0xbee2(%rip)        # 40e118 <nice@GLIBC_2.2.5>
  402236:	68 20 00 00 00       	push   $0x20
  40223b:	e9 e0 fd ff ff       	jmp    402020 <.plt>

0000000000402240 <pclose@plt>:
  402240:	ff 25 da be 00 00    	jmp    *0xbeda(%rip)        # 40e120 <pclose@GLIBC_2.2.5>
  402246:	68 21 00 00 00       	push   $0x21
  40224b:	e9 d0 fd ff ff       	jmp    402020 <.plt>

0000000000402250 <listen@plt>:
  402250:	ff 25 d2 be 00 00    	jmp    *0xbed2(%rip)        # 40e128 <listen@GLIBC_2.2.5>
  402256:	68 22 00 00 00       	push   $0x22
  40225b:	e9 c0 fd ff ff       	jmp    402020 <.plt>

0000000000402260 <__ctype_b_loc@plt>:
  402260:	ff 25 ca be 00 00    	jmp    *0xbeca(%rip)        # 40e130 <__ctype_b_loc@GLIBC_2.3>
  402266:	68 23 00 00 00       	push   $0x23
  40226b:	e9 b0 fd ff ff       	jmp    402020 <.plt>

0000000000402270 <sprintf@plt>:
  402270:	ff 25 c2 be 00 00    	jmp    *0xbec2(%rip)        # 40e138 <sprintf@GLIBC_2.2.5>
  402276:	68 24 00 00 00       	push   $0x24
  40227b:	e9 a0 fd ff ff       	jmp    402020 <.plt>

0000000000402280 <TLS_server_method@plt>:
  402280:	ff 25 ba be 00 00    	jmp    *0xbeba(%rip)        # 40e140 <TLS_server_method@OPENSSL_1_1_0>
  402286:	68 25 00 00 00       	push   $0x25
  40228b:	e9 90 fd ff ff       	jmp    402020 <.plt>

0000000000402290 <sleep@plt>:
  402290:	ff 25 b2 be 00 00    	jmp    *0xbeb2(%rip)        # 40e148 <sleep@GLIBC_2.2.5>
  402296:	68 26 00 00 00       	push   $0x26
  40229b:	e9 80 fd ff ff       	jmp    402020 <.plt>

00000000004022a0 <pthread_mutex_trylock@plt>:
  4022a0:	ff 25 aa be 00 00    	jmp    *0xbeaa(%rip)        # 40e150 <pthread_mutex_trylock@GLIBC_2.2.5>
  4022a6:	68 27 00 00 00       	push   $0x27
  4022ab:	e9 70 fd ff ff       	jmp    402020 <.plt>

00000000004022b0 <usleep@plt>:
  4022b0:	ff 25 a2 be 00 00    	jmp    *0xbea2(%rip)        # 40e158 <usleep@GLIBC_2.2.5>
  4022b6:	68 28 00 00 00       	push   $0x28
  4022bb:	e9 60 fd ff ff       	jmp    402020 <.plt>

00000000004022c0 <strerror@plt>:
  4022c0:	ff 25 9a be 00 00    	jmp    *0xbe9a(%rip)        # 40e160 <strerror@GLIBC_2.2.5>
  4022c6:	68 29 00 00 00       	push   $0x29
  4022cb:	e9 50 fd ff ff       	jmp    402020 <.plt>

00000000004022d0 <epoll_ctl@plt>:
  4022d0:	ff 25 92 be 00 00    	jmp    *0xbe92(%rip)        # 40e168 <epoll_ctl@GLIBC_2.3.2>
  4022d6:	68 2a 00 00 00       	push   $0x2a
  4022db:	e9 40 fd ff ff       	jmp    402020 <.plt>

00000000004022e0 <strstr@plt>:
  4022e0:	ff 25 8a be 00 00    	jmp    *0xbe8a(%rip)        # 40e170 <strstr@GLIBC_2.2.5>
  4022e6:	68 2b 00 00 00       	push   $0x2b
  4022eb:	e9 30 fd ff ff       	jmp    402020 <.plt>

00000000004022f0 <strtol@plt>:
  4022f0:	ff 25 82 be 00 00    	jmp    *0xbe82(%rip)        # 40e178 <strtol@GLIBC_2.2.5>
  4022f6:	68 2c 00 00 00       	push   $0x2c
  4022fb:	e9 20 fd ff ff       	jmp    402020 <.plt>

0000000000402300 <connect@plt>:
  402300:	ff 25 7a be 00 00    	jmp    *0xbe7a(%rip)        # 40e180 <connect@GLIBC_2.2.5>
  402306:	68 2d 00 00 00       	push   $0x2d
  40230b:	e9 10 fd ff ff       	jmp    402020 <.plt>

0000000000402310 <sched_getaffinity@plt>:
  402310:	ff 25 72 be 00 00    	jmp    *0xbe72(%rip)        # 40e188 <sched_getaffinity@GLIBC_2.3.4>
  402316:	68 2e 00 00 00       	push   $0x2e
  40231b:	e9 00 fd ff ff       	jmp    402020 <.plt>

0000000000402320 <putc@plt>:
  402320:	ff 25 6a be 00 00    	jmp    *0xbe6a(%rip)        # 40e190 <putc@GLIBC_2.2.5>
  402326:	68 2f 00 00 00       	push   $0x2f
  40232b:	e9 f0 fc ff ff       	jmp    402020 <.plt>

0000000000402330 <signal@plt>:
  402330:	ff 25 62 be 00 00    	jmp    *0xbe62(%rip)        # 40e198 <signal@GLIBC_2.2.5>
  402336:	68 30 00 00 00       	push   $0x30
  40233b:	e9 e0 fc ff ff       	jmp    402020 <.plt>

0000000000402340 <SSL_CTX_use_PrivateKey_file@plt>:
  402340:	ff 25 5a be 00 00    	jmp    *0xbe5a(%rip)        # 40e1a0 <SSL_CTX_use_PrivateKey_file@OPENSSL_1_1_0>
  402346:	68 31 00 00 00       	push   $0x31
  40234b:	e9 d0 fc ff ff       	jmp    402020 <.plt>

0000000000402350 <memmove@plt>:
  402350:	ff 25 52 be 00 00    	jmp    *0xbe52(%rip)        # 40e1a8 <memmove@GLIBC_2.2.5>
  402356:	68 32 00 00 00       	push   $0x32
  40235b:	e9 c0 fc ff ff       	jmp    402020 <.plt>

0000000000402360 <getopt_long@plt>:
  402360:	ff 25 4a be 00 00    	jmp    *0xbe4a(%rip)        # 40e1b0 <getopt_long@GLIBC_2.2.5>
  402366:	68 33 00 00 00       	push   $0x33
  40236b:	e9 b0 fc ff ff       	jmp    402020 <.plt>

0000000000402370 <socket@plt>:
  402370:	ff 25 42 be 00 00    	jmp    *0xbe42(%rip)        # 40e1b8 <socket@GLIBC_2.2.5>
  402376:	68 34 00 00 00       	push   $0x34
  40237b:	e9 a0 fc ff ff       	jmp    402020 <.plt>

0000000000402380 <fread@plt>:
  402380:	ff 25 3a be 00 00    	jmp    *0xbe3a(%rip)        # 40e1c0 <fread@GLIBC_2.2.5>
  402386:	68 35 00 00 00       	push   $0x35
  40238b:	e9 90 fc ff ff       	jmp    402020 <.plt>

0000000000402390 <__errno_location@plt>:
  402390:	ff 25 32 be 00 00    	jmp    *0xbe32(%rip)        # 40e1c8 <__errno_location@GLIBC_2.2.5>
  402396:	68 36 00 00 00       	push   $0x36
  40239b:	e9 80 fc ff ff       	jmp    402020 <.plt>

00000000004023a0 <__stack_chk_fail@plt>:
  4023a0:	ff 25 2a be 00 00    	jmp    *0xbe2a(%rip)        # 40e1d0 <__stack_chk_fail@GLIBC_2.4>
  4023a6:	68 37 00 00 00       	push   $0x37
  4023ab:	e9 70 fc ff ff       	jmp    402020 <.plt>

00000000004023b0 <strcmp@plt>:
  4023b0:	ff 25 22 be 00 00    	jmp    *0xbe22(%rip)        # 40e1d8 <strcmp@GLIBC_2.2.5>
  4023b6:	68 38 00 00 00       	push   $0x38
  4023bb:	e9 60 fc ff ff       	jmp    402020 <.plt>

00000000004023c0 <send@plt>:
  4023c0:	ff 25 1a be 00 00    	jmp    *0xbe1a(%rip)        # 40e1e0 <send@GLIBC_2.2.5>
  4023c6:	68 39 00 00 00       	push   $0x39
  4023cb:	e9 50 fc ff ff       	jmp    402020 <.plt>

00000000004023d0 <OPENSSL_init_ssl@plt>:
  4023d0:	ff 25 12 be 00 00    	jmp    *0xbe12(%rip)        # 40e1e8 <OPENSSL_init_ssl@OPENSSL_1_1_0>
  4023d6:	68 3a 00 00 00       	push   $0x3a
  4023db:	e9 40 fc ff ff       	jmp    402020 <.plt>

00000000004023e0 <epoll_wait@plt>:
  4023e0:	ff 25 0a be 00 00    	jmp    *0xbe0a(%rip)        # 40e1f0 <epoll_wait@GLIBC_2.3.2>
  4023e6:	68 3b 00 00 00       	push   $0x3b
  4023eb:	e9 30 fc ff ff       	jmp    402020 <.plt>

00000000004023f0 <pthread_cancel@plt>:
  4023f0:	ff 25 02 be 00 00    	jmp    *0xbe02(%rip)        # 40e1f8 <pthread_cancel@GLIBC_2.2.5>
  4023f6:	68 3c 00 00 00       	push   $0x3c
  4023fb:	e9 20 fc ff ff       	jmp    402020 <.plt>

0000000000402400 <pthread_detach@plt>:
  402400:	ff 25 fa bd 00 00    	jmp    *0xbdfa(%rip)        # 40e200 <pthread_detach@GLIBC_2.2.5>
  402406:	68 3d 00 00 00       	push   $0x3d
  40240b:	e9 10 fc ff ff       	jmp    402020 <.plt>

0000000000402410 <memcmp@plt>:
  402410:	ff 25 f2 bd 00 00    	jmp    *0xbdf2(%rip)        # 40e208 <memcmp@GLIBC_2.2.5>
  402416:	68 3e 00 00 00       	push   $0x3e
  40241b:	e9 00 fc ff ff       	jmp    402020 <.plt>

0000000000402420 <calloc@plt>:
  402420:	ff 25 ea bd 00 00    	jmp    *0xbdea(%rip)        # 40e210 <calloc@GLIBC_2.2.5>
  402426:	68 3f 00 00 00       	push   $0x3f
  40242b:	e9 f0 fb ff ff       	jmp    402020 <.plt>

0000000000402430 <fclose@plt>:
  402430:	ff 25 e2 bd 00 00    	jmp    *0xbde2(%rip)        # 40e218 <fclose@GLIBC_2.2.5>
  402436:	68 40 00 00 00       	push   $0x40
  40243b:	e9 e0 fb ff ff       	jmp    402020 <.plt>

0000000000402440 <strncpy@plt>:
  402440:	ff 25 da bd 00 00    	jmp    *0xbdda(%rip)        # 40e220 <strncpy@GLIBC_2.2.5>
  402446:	68 41 00 00 00       	push   $0x41
  40244b:	e9 d0 fb ff ff       	jmp    402020 <.plt>

0000000000402450 <SSL_CTX_new@plt>:
  402450:	ff 25 d2 bd 00 00    	jmp    *0xbdd2(%rip)        # 40e228 <SSL_CTX_new@OPENSSL_1_1_0>
  402456:	68 42 00 00 00       	push   $0x42
  40245b:	e9 c0 fb ff ff       	jmp    402020 <.plt>

0000000000402460 <access@plt>:
  402460:	ff 25 ca bd 00 00    	jmp    *0xbdca(%rip)        # 40e230 <access@GLIBC_2.2.5>
  402466:	68 43 00 00 00       	push   $0x43
  40246b:	e9 b0 fb ff ff       	jmp    402020 <.plt>

0000000000402470 <bind@plt>:
  402470:	ff 25 c2 bd 00 00    	jmp    *0xbdc2(%rip)        # 40e238 <bind@GLIBC_2.2.5>
  402476:	68 44 00 00 00       	push   $0x44
  40247b:	e9 a0 fb ff ff       	jmp    402020 <.plt>

0000000000402480 <pthread_mutex_lock@plt>:
  402480:	ff 25 ba bd 00 00    	jmp    *0xbdba(%rip)        # 40e240 <pthread_mutex_lock@GLIBC_2.2.5>
  402486:	68 45 00 00 00       	push   $0x45
  40248b:	e9 90 fb ff ff       	jmp    402020 <.plt>

0000000000402490 <localtime@plt>:
  402490:	ff 25 b2 bd 00 00    	jmp    *0xbdb2(%rip)        # 40e248 <localtime@GLIBC_2.2.5>
  402496:	68 46 00 00 00       	push   $0x46
  40249b:	e9 80 fb ff ff       	jmp    402020 <.plt>

00000000004024a0 <pthread_mutex_destroy@plt>:
  4024a0:	ff 25 aa bd 00 00    	jmp    *0xbdaa(%rip)        # 40e250 <pthread_mutex_destroy@GLIBC_2.2.5>
  4024a6:	68 47 00 00 00       	push   $0x47
  4024ab:	e9 70 fb ff ff       	jmp    402020 <.plt>

00000000004024b0 <write@plt>:
  4024b0:	ff 25 a2 bd 00 00    	jmp    *0xbda2(%rip)        # 40e258 <write@GLIBC_2.2.5>
  4024b6:	68 48 00 00 00       	push   $0x48
  4024bb:	e9 60 fb ff ff       	jmp    402020 <.plt>

00000000004024c0 <popen@plt>:
  4024c0:	ff 25 9a bd 00 00    	jmp    *0xbd9a(%rip)        # 40e260 <popen@GLIBC_2.2.5>
  4024c6:	68 49 00 00 00       	push   $0x49
  4024cb:	e9 50 fb ff ff       	jmp    402020 <.plt>

00000000004024d0 <pthread_mutex_unlock@plt>:
  4024d0:	ff 25 92 bd 00 00    	jmp    *0xbd92(%rip)        # 40e268 <pthread_mutex_unlock@GLIBC_2.2.5>
  4024d6:	68 4a 00 00 00       	push   $0x4a
  4024db:	e9 40 fb ff ff       	jmp    402020 <.plt>

00000000004024e0 <inet_ntop@plt>:
  4024e0:	ff 25 8a bd 00 00    	jmp    *0xbd8a(%rip)        # 40e270 <inet_ntop@GLIBC_2.2.5>
  4024e6:	68 4b 00 00 00       	push   $0x4b
  4024eb:	e9 30 fb ff ff       	jmp    402020 <.plt>

00000000004024f0 <memcpy@plt>:
  4024f0:	ff 25 82 bd 00 00    	jmp    *0xbd82(%rip)        # 40e278 <memcpy@GLIBC_2.14>
  4024f6:	68 4c 00 00 00       	push   $0x4c
  4024fb:	e9 20 fb ff ff       	jmp    402020 <.plt>

0000000000402500 <fcntl@plt>:
  402500:	ff 25 7a bd 00 00    	jmp    *0xbd7a(%rip)        # 40e280 <fcntl@GLIBC_2.2.5>
  402506:	68 4d 00 00 00       	push   $0x4d
  40250b:	e9 10 fb ff ff       	jmp    402020 <.plt>

0000000000402510 <open@plt>:
  402510:	ff 25 72 bd 00 00    	jmp    *0xbd72(%rip)        # 40e288 <open@GLIBC_2.2.5>
  402516:	68 4e 00 00 00       	push   $0x4e
  40251b:	e9 00 fb ff ff       	jmp    402020 <.plt>

0000000000402520 <ERR_lib_error_string@plt>:
  402520:	ff 25 6a bd 00 00    	jmp    *0xbd6a(%rip)        # 40e290 <ERR_lib_error_string@OPENSSL_1_1_0>
  402526:	68 4f 00 00 00       	push   $0x4f
  40252b:	e9 f0 fa ff ff       	jmp    402020 <.plt>

0000000000402530 <sched_setaffinity@plt>:
  402530:	ff 25 62 bd 00 00    	jmp    *0xbd62(%rip)        # 40e298 <sched_setaffinity@GLIBC_2.3.4>
  402536:	68 50 00 00 00       	push   $0x50
  40253b:	e9 e0 fa ff ff       	jmp    402020 <.plt>

0000000000402540 <time@plt>:
  402540:	ff 25 5a bd 00 00    	jmp    *0xbd5a(%rip)        # 40e2a0 <time@GLIBC_2.2.5>
  402546:	68 51 00 00 00       	push   $0x51
  40254b:	e9 d0 fa ff ff       	jmp    402020 <.plt>

0000000000402550 <inet_addr@plt>:
  402550:	ff 25 52 bd 00 00    	jmp    *0xbd52(%rip)        # 40e2a8 <inet_addr@GLIBC_2.2.5>
  402556:	68 52 00 00 00       	push   $0x52
  40255b:	e9 c0 fa ff ff       	jmp    402020 <.plt>

Disassembly of section .text:

0000000000402560 <_start>:
  402560:	f3 0f 1e fa          	endbr64 
  402564:	31 ed                	xor    %ebp,%ebp
  402566:	49 89 d1             	mov    %rdx,%r9
  402569:	5e                   	pop    %rsi
  40256a:	48 89 e2             	mov    %rsp,%rdx
  40256d:	48 83 e4 f0          	and    $0xfffffffffffffff0,%rsp
  402571:	50                   	push   %rax
  402572:	54                   	push   %rsp
  402573:	49 c7 c0 80 8b 40 00 	mov    $0x408b80,%r8
  40257a:	48 c7 c1 10 8b 40 00 	mov    $0x408b10,%rcx
  402581:	48 c7 c7 00 89 40 00 	mov    $0x408900,%rdi
  402588:	ff 15 4a ba 00 00    	call   *0xba4a(%rip)        # 40dfd8 <__libc_start_main@GLIBC_2.2.5>
  40258e:	f4                   	hlt    
  40258f:	90                   	nop

0000000000402590 <_dl_relocate_static_pie>:
  402590:	f3 0f 1e fa          	endbr64 
  402594:	c3                   	ret    
  402595:	66 2e 0f 1f 84 00 00 	cs nopw 0x0(%rax,%rax,1)
  40259c:	00 00 00 
  40259f:	90                   	nop

00000000004025a0 <deregister_tm_clones>:
  4025a0:	b8 40 e3 40 00       	mov    $0x40e340,%eax
  4025a5:	48 3d 40 e3 40 00    	cmp    $0x40e340,%rax
  4025ab:	74 13                	je     4025c0 <deregister_tm_clones+0x20>
  4025ad:	b8 00 00 00 00       	mov    $0x0,%eax
  4025b2:	48 85 c0             	test   %rax,%rax
  4025b5:	74 09                	je     4025c0 <deregister_tm_clones+0x20>
  4025b7:	bf 40 e3 40 00       	mov    $0x40e340,%edi
  4025bc:	ff e0                	jmp    *%rax
  4025be:	66 90                	xchg   %ax,%ax
  4025c0:	c3                   	ret    
  4025c1:	66 66 2e 0f 1f 84 00 	data16 cs nopw 0x0(%rax,%rax,1)
  4025c8:	00 00 00 00 
  4025cc:	0f 1f 40 00          	nopl   0x0(%rax)

00000000004025d0 <register_tm_clones>:
  4025d0:	be 40 e3 40 00       	mov    $0x40e340,%esi
  4025d5:	48 81 ee 40 e3 40 00 	sub    $0x40e340,%rsi
  4025dc:	48 89 f0             	mov    %rsi,%rax
  4025df:	48 c1 ee 3f          	shr    $0x3f,%rsi
  4025e3:	48 c1 f8 03          	sar    $0x3,%rax
  4025e7:	48 01 c6             	add    %rax,%rsi
  4025ea:	48 d1 fe             	sar    %rsi
  4025ed:	74 11                	je     402600 <register_tm_clones+0x30>
  4025ef:	b8 00 00 00 00       	mov    $0x0,%eax
  4025f4:	48 85 c0             	test   %rax,%rax
  4025f7:	74 07                	je     402600 <register_tm_clones+0x30>
  4025f9:	bf 40 e3 40 00       	mov    $0x40e340,%edi
  4025fe:	ff e0                	jmp    *%rax
  402600:	c3                   	ret    
  402601:	66 66 2e 0f 1f 84 00 	data16 cs nopw 0x0(%rax,%rax,1)
  402608:	00 00 00 00 
  40260c:	0f 1f 40 00          	nopl   0x0(%rax)

0000000000402610 <__do_global_dtors_aux>:
  402610:	f3 0f 1e fa          	endbr64 
  402614:	80 3d 25 bd 00 00 00 	cmpb   $0x0,0xbd25(%rip)        # 40e340 <__TMC_END__>
  40261b:	75 13                	jne    402630 <__do_global_dtors_aux+0x20>
  40261d:	55                   	push   %rbp
  40261e:	48 89 e5             	mov    %rsp,%rbp
  402621:	e8 7a ff ff ff       	call   4025a0 <deregister_tm_clones>
  402626:	c6 05 13 bd 00 00 01 	movb   $0x1,0xbd13(%rip)        # 40e340 <__TMC_END__>
  40262d:	5d                   	pop    %rbp
  40262e:	c3                   	ret    
  40262f:	90                   	nop
  402630:	c3                   	ret    
  402631:	66 66 2e 0f 1f 84 00 	data16 cs nopw 0x0(%rax,%rax,1)
  402638:	00 00 00 00 
  40263c:	0f 1f 40 00          	nopl   0x0(%rax)

0000000000402640 <frame_dummy>:
  402640:	f3 0f 1e fa          	endbr64 
  402644:	eb 8a                	jmp    4025d0 <register_tm_clones>
  402646:	66 2e 0f 1f 84 00 00 	cs nopw 0x0(%rax,%rax,1)
  40264d:	00 00 00 

0000000000402650 <ini_parse_stream>:
  402650:	55                   	push   %rbp
  402651:	41 57                	push   %r15
  402653:	41 56                	push   %r14
  402655:	41 55                	push   %r13
  402657:	41 54                	push   %r12
  402659:	53                   	push   %rbx
  40265a:	48 81 ec 88 01 00 00 	sub    $0x188,%rsp
  402661:	48 89 4c 24 18       	mov    %rcx,0x18(%rsp)
  402666:	49 89 d4             	mov    %rdx,%r12
  402669:	48 89 f2             	mov    %rsi,%rdx
  40266c:	48 89 f9             	mov    %rdi,%rcx
  40266f:	64 48 8b 04 25 28 00 	mov    %fs:0x28,%rax
  402676:	00 00 
  402678:	48 89 84 24 80 01 00 	mov    %rax,0x180(%rsp)
  40267f:	00 
  402680:	0f 57 c0             	xorps  %xmm0,%xmm0
  402683:	0f 29 84 24 90 00 00 	movaps %xmm0,0x90(%rsp)
  40268a:	00 
  40268b:	0f 29 84 24 80 00 00 	movaps %xmm0,0x80(%rsp)
  402692:	00 
  402693:	0f 29 44 24 70       	movaps %xmm0,0x70(%rsp)
  402698:	66 c7 84 24 a0 00 00 	movw   $0x0,0xa0(%rsp)
  40269f:	00 00 00 
  4026a2:	0f 29 44 24 50       	movaps %xmm0,0x50(%rsp)
  4026a7:	0f 29 44 24 40       	movaps %xmm0,0x40(%rsp)
  4026ac:	0f 29 44 24 30       	movaps %xmm0,0x30(%rsp)
  4026b1:	66 c7 44 24 60 00 00 	movw   $0x0,0x60(%rsp)
  4026b8:	48 8d ac 24 b0 00 00 	lea    0xb0(%rsp),%rbp
  4026bf:	00 
  4026c0:	48 89 ef             	mov    %rbp,%rdi
  4026c3:	be c8 00 00 00       	mov    $0xc8,%esi
  4026c8:	48 89 54 24 28       	mov    %rdx,0x28(%rsp)
  4026cd:	48 89 4c 24 20       	mov    %rcx,0x20(%rsp)
  4026d2:	ff d1                	call   *%rcx
  4026d4:	48 85 c0             	test   %rax,%rax
  4026d7:	0f 84 14 04 00 00    	je     402af1 <ini_parse_stream+0x4a1>
  4026dd:	c7 44 24 0c 00 00 00 	movl   $0x0,0xc(%rsp)
  4026e4:	00 
  4026e5:	45 31 ff             	xor    %r15d,%r15d
  4026e8:	4c 89 64 24 10       	mov    %r12,0x10(%rsp)
  4026ed:	eb 41                	jmp    402730 <ini_parse_stream+0xe0>
  4026ef:	90                   	nop
  4026f0:	48 8b 7c 24 18       	mov    0x18(%rsp),%rdi
  4026f5:	48 8d 74 24 70       	lea    0x70(%rsp),%rsi
  4026fa:	48 8d 54 24 30       	lea    0x30(%rsp),%rdx
  4026ff:	48 89 d9             	mov    %rbx,%rcx
  402702:	45 89 f8             	mov    %r15d,%r8d
  402705:	41 ff d4             	call   *%r12
  402708:	8b 4c 24 0c          	mov    0xc(%rsp),%ecx
  40270c:	09 c8                	or     %ecx,%eax
  40270e:	41 0f 44 cf          	cmove  %r15d,%ecx
  402712:	89 4c 24 0c          	mov    %ecx,0xc(%rsp)
  402716:	48 89 ef             	mov    %rbp,%rdi
  402719:	be c8 00 00 00       	mov    $0xc8,%esi
  40271e:	48 8b 54 24 28       	mov    0x28(%rsp),%rdx
  402723:	ff 54 24 20          	call   *0x20(%rsp)
  402727:	48 85 c0             	test   %rax,%rax
  40272a:	0f 84 c9 03 00 00    	je     402af9 <ini_parse_stream+0x4a9>
  402730:	45 85 ff             	test   %r15d,%r15d
  402733:	0f 94 c0             	sete   %al
  402736:	80 bc 24 b0 00 00 00 	cmpb   $0xef,0xb0(%rsp)
  40273d:	ef 
  40273e:	0f 94 c1             	sete   %cl
  402741:	20 c1                	and    %al,%cl
  402743:	80 bc 24 b1 00 00 00 	cmpb   $0xbb,0xb1(%rsp)
  40274a:	bb 
  40274b:	0f 94 c0             	sete   %al
  40274e:	80 bc 24 b2 00 00 00 	cmpb   $0xbf,0xb2(%rsp)
  402755:	bf 
  402756:	0f 94 c2             	sete   %dl
  402759:	20 c2                	and    %al,%dl
  40275b:	20 ca                	and    %cl,%dl
  40275d:	0f b6 c2             	movzbl %dl,%eax
  402760:	4c 8d 34 40          	lea    (%rax,%rax,2),%r14
  402764:	84 c0                	test   %al,%al
  402766:	48 89 eb             	mov    %rbp,%rbx
  402769:	48 8d 84 24 b3 00 00 	lea    0xb3(%rsp),%rax
  402770:	00 
  402771:	48 0f 45 d8          	cmovne %rax,%rbx
  402775:	48 89 df             	mov    %rbx,%rdi
  402778:	e8 93 fa ff ff       	call   402210 <strlen@plt>
  40277d:	48 85 c0             	test   %rax,%rax
  402780:	7e 29                	jle    4027ab <ini_parse_stream+0x15b>
  402782:	48 89 c5             	mov    %rax,%rbp
  402785:	48 01 dd             	add    %rbx,%rbp
  402788:	e8 d3 fa ff ff       	call   402260 <__ctype_b_loc@plt>
  40278d:	0f 1f 00             	nopl   (%rax)
  402790:	48 8b 08             	mov    (%rax),%rcx
  402793:	0f b6 55 ff          	movzbl -0x1(%rbp),%edx
  402797:	f6 44 51 01 20       	testb  $0x20,0x1(%rcx,%rdx,2)
  40279c:	74 0d                	je     4027ab <ini_parse_stream+0x15b>
  40279e:	c6 45 ff 00          	movb   $0x0,-0x1(%rbp)
  4027a2:	48 83 c5 ff          	add    $0xffffffffffffffff,%rbp
  4027a6:	48 39 dd             	cmp    %rbx,%rbp
  4027a9:	77 e5                	ja     402790 <ini_parse_stream+0x140>
  4027ab:	46 8a ac 34 b0 00 00 	mov    0xb0(%rsp,%r14,1),%r13b
  4027b2:	00 
  4027b3:	45 84 ed             	test   %r13b,%r13b
  4027b6:	0f 84 34 00 00 00    	je     4027f0 <ini_parse_stream+0x1a0>
  4027bc:	e8 9f fa ff ff       	call   402260 <__ctype_b_loc@plt>
  4027c1:	48 8b 00             	mov    (%rax),%rax
  4027c4:	48 8d ac 24 b0 00 00 	lea    0xb0(%rsp),%rbp
  4027cb:	00 
  4027cc:	0f 1f 40 00          	nopl   0x0(%rax)
  4027d0:	41 0f b6 cd          	movzbl %r13b,%ecx
  4027d4:	f6 44 48 01 20       	testb  $0x20,0x1(%rax,%rcx,2)
  4027d9:	74 20                	je     4027fb <ini_parse_stream+0x1ab>
  4027db:	44 0f b6 6b 01       	movzbl 0x1(%rbx),%r13d
  4027e0:	48 83 c3 01          	add    $0x1,%rbx
  4027e4:	45 84 ed             	test   %r13b,%r13b
  4027e7:	75 e7                	jne    4027d0 <ini_parse_stream+0x180>
  4027e9:	45 31 ed             	xor    %r13d,%r13d
  4027ec:	eb 0d                	jmp    4027fb <ini_parse_stream+0x1ab>
  4027ee:	66 90                	xchg   %ax,%ax
  4027f0:	45 31 ed             	xor    %r13d,%r13d
  4027f3:	48 8d ac 24 b0 00 00 	lea    0xb0(%rsp),%rbp
  4027fa:	00 
  4027fb:	41 83 c7 01          	add    $0x1,%r15d
  4027ff:	b8 01 00 00 00       	mov    $0x1,%eax
  402804:	44 89 e9             	mov    %r13d,%ecx
  402807:	48 d3 e0             	shl    %cl,%rax
  40280a:	41 80 fd 3f          	cmp    $0x3f,%r13b
  40280e:	77 13                	ja     402823 <ini_parse_stream+0x1d3>
  402810:	48 b9 01 00 00 00 08 	movabs $0x800000800000001,%rcx
  402817:	00 00 08 
  40281a:	48 21 c8             	and    %rcx,%rax
  40281d:	0f 85 f3 fe ff ff    	jne    402716 <ini_parse_stream+0xc6>
  402823:	48 39 eb             	cmp    %rbp,%rbx
  402826:	76 10                	jbe    402838 <ini_parse_stream+0x1e8>
  402828:	45 84 ed             	test   %r13b,%r13b
  40282b:	74 0b                	je     402838 <ini_parse_stream+0x1e8>
  40282d:	80 7c 24 30 00       	cmpb   $0x0,0x30(%rsp)
  402832:	0f 85 b8 fe ff ff    	jne    4026f0 <ini_parse_stream+0xa0>
  402838:	45 84 ed             	test   %r13b,%r13b
  40283b:	0f 84 d5 fe ff ff    	je     402716 <ini_parse_stream+0xc6>
  402841:	41 80 fd 5b          	cmp    $0x5b,%r13b
  402845:	0f 85 94 00 00 00    	jne    4028df <ini_parse_stream+0x28f>
  40284b:	44 8a 73 01          	mov    0x1(%rbx),%r14b
  40284f:	45 84 f6             	test   %r14b,%r14b
  402852:	0f 84 79 02 00 00    	je     402ad1 <ini_parse_stream+0x481>
  402858:	4c 8d 63 01          	lea    0x1(%rbx),%r12
  40285c:	48 83 c3 02          	add    $0x2,%rbx
  402860:	31 ed                	xor    %ebp,%ebp
  402862:	e9 2d 00 00 00       	jmp    402894 <ini_parse_stream+0x244>
  402867:	66 0f 1f 84 00 00 00 	nopw   0x0(%rax,%rax,1)
  40286e:	00 00 
  402870:	e8 eb f9 ff ff       	call   402260 <__ctype_b_loc@plt>
  402875:	48 8b 00             	mov    (%rax),%rax
  402878:	42 0f b7 2c 68       	movzwl (%rax,%r13,2),%ebp
  40287d:	81 e5 00 20 00 00    	and    $0x2000,%ebp
  402883:	44 0f b6 33          	movzbl (%rbx),%r14d
  402887:	48 83 c3 01          	add    $0x1,%rbx
  40288b:	45 84 f6             	test   %r14b,%r14b
  40288e:	0f 84 3d 02 00 00    	je     402ad1 <ini_parse_stream+0x481>
  402894:	41 0f be f6          	movsbl %r14b,%esi
  402898:	ba 02 00 00 00       	mov    $0x2,%edx
  40289d:	48 8d 3d 46 86 00 00 	lea    0x8646(%rip),%rdi        # 40aeea <license_text_teavpn2+0x43a>
  4028a4:	e8 17 f8 ff ff       	call   4020c0 <memchr@plt>
  4028a9:	48 85 c0             	test   %rax,%rax
  4028ac:	0f 85 01 02 00 00    	jne    402ab3 <ini_parse_stream+0x463>
  4028b2:	45 0f b6 ee          	movzbl %r14b,%r13d
  4028b6:	85 ed                	test   %ebp,%ebp
  4028b8:	74 b6                	je     402870 <ini_parse_stream+0x220>
  4028ba:	b8 01 00 00 00       	mov    $0x1,%eax
  4028bf:	44 89 e9             	mov    %r13d,%ecx
  4028c2:	48 d3 e0             	shl    %cl,%rax
  4028c5:	41 80 fe 3f          	cmp    $0x3f,%r14b
  4028c9:	77 a5                	ja     402870 <ini_parse_stream+0x220>
  4028cb:	48 b9 01 00 00 00 00 	movabs $0x800000000000001,%rcx
  4028d2:	00 00 08 
  4028d5:	48 21 c8             	and    %rcx,%rax
  4028d8:	74 96                	je     402870 <ini_parse_stream+0x220>
  4028da:	e9 f2 01 00 00       	jmp    402ad1 <ini_parse_stream+0x481>
  4028df:	4c 8d 63 01          	lea    0x1(%rbx),%r12
  4028e3:	4c 8d 73 02          	lea    0x2(%rbx),%r14
  4028e7:	31 c0                	xor    %eax,%eax
  4028e9:	e9 29 00 00 00       	jmp    402917 <ini_parse_stream+0x2c7>
  4028ee:	66 90                	xchg   %ax,%ax
  4028f0:	e8 6b f9 ff ff       	call   402260 <__ctype_b_loc@plt>
  4028f5:	48 8b 00             	mov    (%rax),%rax
  4028f8:	0f b7 04 68          	movzwl (%rax,%rbp,2),%eax
  4028fc:	25 00 20 00 00       	and    $0x2000,%eax
  402901:	45 0f b6 2c 24       	movzbl (%r12),%r13d
  402906:	49 83 c4 01          	add    $0x1,%r12
  40290a:	49 83 c6 01          	add    $0x1,%r14
  40290e:	45 84 ed             	test   %r13b,%r13b
  402911:	0f 84 ba 01 00 00    	je     402ad1 <ini_parse_stream+0x481>
  402917:	41 0f b6 ed          	movzbl %r13b,%ebp
  40291b:	ba 01 00 00 00       	mov    $0x1,%edx
  402920:	89 e9                	mov    %ebp,%ecx
  402922:	48 d3 e2             	shl    %cl,%rdx
  402925:	40 80 fd 3f          	cmp    $0x3f,%bpl
  402929:	77 12                	ja     40293d <ini_parse_stream+0x2ed>
  40292b:	48 89 d1             	mov    %rdx,%rcx
  40292e:	48 be 01 00 00 00 00 	movabs $0x2400000000000001,%rsi
  402935:	00 00 24 
  402938:	48 21 f1             	and    %rsi,%rcx
  40293b:	75 19                	jne    402956 <ini_parse_stream+0x306>
  40293d:	85 c0                	test   %eax,%eax
  40293f:	74 af                	je     4028f0 <ini_parse_stream+0x2a0>
  402941:	40 80 fd 3f          	cmp    $0x3f,%bpl
  402945:	77 a9                	ja     4028f0 <ini_parse_stream+0x2a0>
  402947:	48 b8 01 00 00 00 00 	movabs $0x800000000000001,%rax
  40294e:	00 00 08 
  402951:	48 21 c2             	and    %rax,%rdx
  402954:	74 9a                	je     4028f0 <ini_parse_stream+0x2a0>
  402956:	40 80 fd 3d          	cmp    $0x3d,%bpl
  40295a:	74 0a                	je     402966 <ini_parse_stream+0x316>
  40295c:	40 80 fd 3a          	cmp    $0x3a,%bpl
  402960:	0f 85 6b 01 00 00    	jne    402ad1 <ini_parse_stream+0x481>
  402966:	41 c6 44 24 ff 00    	movb   $0x0,-0x1(%r12)
  40296c:	48 89 df             	mov    %rbx,%rdi
  40296f:	e8 9c f8 ff ff       	call   402210 <strlen@plt>
  402974:	48 85 c0             	test   %rax,%rax
  402977:	0f 8e 2e 00 00 00    	jle    4029ab <ini_parse_stream+0x35b>
  40297d:	48 89 c5             	mov    %rax,%rbp
  402980:	48 01 dd             	add    %rbx,%rbp
  402983:	e8 d8 f8 ff ff       	call   402260 <__ctype_b_loc@plt>
  402988:	0f 1f 84 00 00 00 00 	nopl   0x0(%rax,%rax,1)
  40298f:	00 
  402990:	48 8b 08             	mov    (%rax),%rcx
  402993:	0f b6 55 ff          	movzbl -0x1(%rbp),%edx
  402997:	f6 44 51 01 20       	testb  $0x20,0x1(%rcx,%rdx,2)
  40299c:	74 0d                	je     4029ab <ini_parse_stream+0x35b>
  40299e:	c6 45 ff 00          	movb   $0x0,-0x1(%rbp)
  4029a2:	48 83 c5 ff          	add    $0xffffffffffffffff,%rbp
  4029a6:	48 39 dd             	cmp    %rbx,%rbp
  4029a9:	77 e5                	ja     402990 <ini_parse_stream+0x340>
  4029ab:	45 8a 2c 24          	mov    (%r12),%r13b
  4029af:	45 84 ed             	test   %r13b,%r13b
  4029b2:	0f 84 82 00 00 00    	je     402a3a <ini_parse_stream+0x3ea>
  4029b8:	31 c0                	xor    %eax,%eax
  4029ba:	44 89 e9             	mov    %r13d,%ecx
  4029bd:	eb 1e                	jmp    4029dd <ini_parse_stream+0x38d>
  4029bf:	90                   	nop
  4029c0:	e8 9b f8 ff ff       	call   402260 <__ctype_b_loc@plt>
  4029c5:	48 8b 00             	mov    (%rax),%rax
  4029c8:	0f b7 04 68          	movzwl (%rax,%rbp,2),%eax
  4029cc:	25 00 20 00 00       	and    $0x2000,%eax
  4029d1:	41 0f b6 0e          	movzbl (%r14),%ecx
  4029d5:	49 83 c6 01          	add    $0x1,%r14
  4029d9:	84 c9                	test   %cl,%cl
  4029db:	74 2f                	je     402a0c <ini_parse_stream+0x3bc>
  4029dd:	0f b6 e9             	movzbl %cl,%ebp
  4029e0:	85 c0                	test   %eax,%eax
  4029e2:	74 dc                	je     4029c0 <ini_parse_stream+0x370>
  4029e4:	b8 01 00 00 00       	mov    $0x1,%eax
  4029e9:	89 e9                	mov    %ebp,%ecx
  4029eb:	48 d3 e0             	shl    %cl,%rax
  4029ee:	40 80 fd 3f          	cmp    $0x3f,%bpl
  4029f2:	77 cc                	ja     4029c0 <ini_parse_stream+0x370>
  4029f4:	48 b9 01 00 00 00 00 	movabs $0x800000000000001,%rcx
  4029fb:	00 00 08 
  4029fe:	48 21 c8             	and    %rcx,%rax
  402a01:	74 bd                	je     4029c0 <ini_parse_stream+0x370>
  402a03:	41 c6 46 ff 00       	movb   $0x0,-0x1(%r14)
  402a08:	45 8a 2c 24          	mov    (%r12),%r13b
  402a0c:	45 84 ed             	test   %r13b,%r13b
  402a0f:	0f 84 25 00 00 00    	je     402a3a <ini_parse_stream+0x3ea>
  402a15:	e8 46 f8 ff ff       	call   402260 <__ctype_b_loc@plt>
  402a1a:	48 8b 00             	mov    (%rax),%rax
  402a1d:	0f 1f 00             	nopl   (%rax)
  402a20:	41 0f b6 cd          	movzbl %r13b,%ecx
  402a24:	f6 44 48 01 20       	testb  $0x20,0x1(%rax,%rcx,2)
  402a29:	74 0f                	je     402a3a <ini_parse_stream+0x3ea>
  402a2b:	45 0f b6 6c 24 01    	movzbl 0x1(%r12),%r13d
  402a31:	49 83 c4 01          	add    $0x1,%r12
  402a35:	45 84 ed             	test   %r13b,%r13b
  402a38:	75 e6                	jne    402a20 <ini_parse_stream+0x3d0>
  402a3a:	4c 89 e7             	mov    %r12,%rdi
  402a3d:	e8 ce f7 ff ff       	call   402210 <strlen@plt>
  402a42:	48 85 c0             	test   %rax,%rax
  402a45:	0f 8e 30 00 00 00    	jle    402a7b <ini_parse_stream+0x42b>
  402a4b:	48 89 c5             	mov    %rax,%rbp
  402a4e:	4c 01 e5             	add    %r12,%rbp
  402a51:	e8 0a f8 ff ff       	call   402260 <__ctype_b_loc@plt>
  402a56:	66 2e 0f 1f 84 00 00 	cs nopw 0x0(%rax,%rax,1)
  402a5d:	00 00 00 
  402a60:	48 8b 08             	mov    (%rax),%rcx
  402a63:	0f b6 55 ff          	movzbl -0x1(%rbp),%edx
  402a67:	f6 44 51 01 20       	testb  $0x20,0x1(%rcx,%rdx,2)
  402a6c:	74 0d                	je     402a7b <ini_parse_stream+0x42b>
  402a6e:	c6 45 ff 00          	movb   $0x0,-0x1(%rbp)
  402a72:	48 83 c5 ff          	add    $0xffffffffffffffff,%rbp
  402a76:	4c 39 e5             	cmp    %r12,%rbp
  402a79:	77 e5                	ja     402a60 <ini_parse_stream+0x410>
  402a7b:	48 8d 7c 24 30       	lea    0x30(%rsp),%rdi
  402a80:	48 89 de             	mov    %rbx,%rsi
  402a83:	e8 a8 00 00 00       	call   402b30 <strncpy0>
  402a88:	48 8b 7c 24 18       	mov    0x18(%rsp),%rdi
  402a8d:	48 8d 74 24 70       	lea    0x70(%rsp),%rsi
  402a92:	48 89 da             	mov    %rbx,%rdx
  402a95:	4c 89 e1             	mov    %r12,%rcx
  402a98:	45 89 f8             	mov    %r15d,%r8d
  402a9b:	4c 8b 64 24 10       	mov    0x10(%rsp),%r12
  402aa0:	41 ff d4             	call   *%r12
  402aa3:	8b 4c 24 0c          	mov    0xc(%rsp),%ecx
  402aa7:	09 c8                	or     %ecx,%eax
  402aa9:	41 0f 44 cf          	cmove  %r15d,%ecx
  402aad:	89 4c 24 0c          	mov    %ecx,0xc(%rsp)
  402ab1:	eb 31                	jmp    402ae4 <ini_parse_stream+0x494>
  402ab3:	41 80 fe 5d          	cmp    $0x5d,%r14b
  402ab7:	75 18                	jne    402ad1 <ini_parse_stream+0x481>
  402ab9:	c6 43 ff 00          	movb   $0x0,-0x1(%rbx)
  402abd:	48 8d 7c 24 70       	lea    0x70(%rsp),%rdi
  402ac2:	4c 89 e6             	mov    %r12,%rsi
  402ac5:	e8 66 00 00 00       	call   402b30 <strncpy0>
  402aca:	c6 44 24 30 00       	movb   $0x0,0x30(%rsp)
  402acf:	eb 0e                	jmp    402adf <ini_parse_stream+0x48f>
  402ad1:	8b 44 24 0c          	mov    0xc(%rsp),%eax
  402ad5:	85 c0                	test   %eax,%eax
  402ad7:	41 0f 44 c7          	cmove  %r15d,%eax
  402adb:	89 44 24 0c          	mov    %eax,0xc(%rsp)
  402adf:	4c 8b 64 24 10       	mov    0x10(%rsp),%r12
  402ae4:	48 8d ac 24 b0 00 00 	lea    0xb0(%rsp),%rbp
  402aeb:	00 
  402aec:	e9 25 fc ff ff       	jmp    402716 <ini_parse_stream+0xc6>
  402af1:	c7 44 24 0c 00 00 00 	movl   $0x0,0xc(%rsp)
  402af8:	00 
  402af9:	64 48 8b 04 25 28 00 	mov    %fs:0x28,%rax
  402b00:	00 00 
  402b02:	48 3b 84 24 80 01 00 	cmp    0x180(%rsp),%rax
  402b09:	00 
  402b0a:	75 16                	jne    402b22 <ini_parse_stream+0x4d2>
  402b0c:	8b 44 24 0c          	mov    0xc(%rsp),%eax
  402b10:	48 81 c4 88 01 00 00 	add    $0x188,%rsp
  402b17:	5b                   	pop    %rbx
  402b18:	41 5c                	pop    %r12
  402b1a:	41 5d                	pop    %r13
  402b1c:	41 5e                	pop    %r14
  402b1e:	41 5f                	pop    %r15
  402b20:	5d                   	pop    %rbp
  402b21:	c3                   	ret    
  402b22:	e8 79 f8 ff ff       	call   4023a0 <__stack_chk_fail@plt>
  402b27:	66 0f 1f 84 00 00 00 	nopw   0x0(%rax,%rax,1)
  402b2e:	00 00 

0000000000402b30 <strncpy0>:
  402b30:	8a 06                	mov    (%rsi),%al
  402b32:	84 c0                	test   %al,%al
  402b34:	0f 84 ac 02 00 00    	je     402de6 <strncpy0+0x2b6>
  402b3a:	88 07                	mov    %al,(%rdi)
  402b3c:	8a 46 01             	mov    0x1(%rsi),%al
  402b3f:	84 c0                	test   %al,%al
  402b41:	0f 84 a6 02 00 00    	je     402ded <strncpy0+0x2bd>
  402b47:	88 47 01             	mov    %al,0x1(%rdi)
  402b4a:	8a 46 02             	mov    0x2(%rsi),%al
  402b4d:	84 c0                	test   %al,%al
  402b4f:	0f 84 a2 02 00 00    	je     402df7 <strncpy0+0x2c7>
  402b55:	88 47 02             	mov    %al,0x2(%rdi)
  402b58:	8a 46 03             	mov    0x3(%rsi),%al
  402b5b:	84 c0                	test   %al,%al
  402b5d:	0f 84 9e 02 00 00    	je     402e01 <strncpy0+0x2d1>
  402b63:	88 47 03             	mov    %al,0x3(%rdi)
  402b66:	8a 46 04             	mov    0x4(%rsi),%al
  402b69:	84 c0                	test   %al,%al
  402b6b:	0f 84 9a 02 00 00    	je     402e0b <strncpy0+0x2db>
  402b71:	88 47 04             	mov    %al,0x4(%rdi)
  402b74:	8a 46 05             	mov    0x5(%rsi),%al
  402b77:	84 c0                	test   %al,%al
  402b79:	0f 84 96 02 00 00    	je     402e15 <strncpy0+0x2e5>
  402b7f:	88 47 05             	mov    %al,0x5(%rdi)
  402b82:	8a 46 06             	mov    0x6(%rsi),%al
  402b85:	84 c0                	test   %al,%al
  402b87:	0f 84 92 02 00 00    	je     402e1f <strncpy0+0x2ef>
  402b8d:	88 47 06             	mov    %al,0x6(%rdi)
  402b90:	8a 46 07             	mov    0x7(%rsi),%al
  402b93:	84 c0                	test   %al,%al
  402b95:	0f 84 8e 02 00 00    	je     402e29 <strncpy0+0x2f9>
  402b9b:	88 47 07             	mov    %al,0x7(%rdi)
  402b9e:	8a 46 08             	mov    0x8(%rsi),%al
  402ba1:	84 c0                	test   %al,%al
  402ba3:	0f 84 8a 02 00 00    	je     402e33 <strncpy0+0x303>
  402ba9:	88 47 08             	mov    %al,0x8(%rdi)
  402bac:	8a 46 09             	mov    0x9(%rsi),%al
  402baf:	84 c0                	test   %al,%al
  402bb1:	0f 84 86 02 00 00    	je     402e3d <strncpy0+0x30d>
  402bb7:	88 47 09             	mov    %al,0x9(%rdi)
  402bba:	8a 46 0a             	mov    0xa(%rsi),%al
  402bbd:	84 c0                	test   %al,%al
  402bbf:	0f 84 82 02 00 00    	je     402e47 <strncpy0+0x317>
  402bc5:	88 47 0a             	mov    %al,0xa(%rdi)
  402bc8:	8a 46 0b             	mov    0xb(%rsi),%al
  402bcb:	84 c0                	test   %al,%al
  402bcd:	0f 84 7e 02 00 00    	je     402e51 <strncpy0+0x321>
  402bd3:	88 47 0b             	mov    %al,0xb(%rdi)
  402bd6:	8a 46 0c             	mov    0xc(%rsi),%al
  402bd9:	84 c0                	test   %al,%al
  402bdb:	0f 84 7a 02 00 00    	je     402e5b <strncpy0+0x32b>
  402be1:	88 47 0c             	mov    %al,0xc(%rdi)
  402be4:	8a 46 0d             	mov    0xd(%rsi),%al
  402be7:	84 c0                	test   %al,%al
  402be9:	0f 84 76 02 00 00    	je     402e65 <strncpy0+0x335>
  402bef:	88 47 0d             	mov    %al,0xd(%rdi)
  402bf2:	8a 46 0e             	mov    0xe(%rsi),%al
  402bf5:	84 c0                	test   %al,%al
  402bf7:	0f 84 72 02 00 00    	je     402e6f <strncpy0+0x33f>
  402bfd:	88 47 0e             	mov    %al,0xe(%rdi)
  402c00:	8a 46 0f             	mov    0xf(%rsi),%al
  402c03:	84 c0                	test   %al,%al
  402c05:	0f 84 6e 02 00 00    	je     402e79 <strncpy0+0x349>
  402c0b:	88 47 0f             	mov    %al,0xf(%rdi)
  402c0e:	8a 46 10             	mov    0x10(%rsi),%al
  402c11:	84 c0                	test   %al,%al
  402c13:	0f 84 6a 02 00 00    	je     402e83 <strncpy0+0x353>
  402c19:	88 47 10             	mov    %al,0x10(%rdi)
  402c1c:	8a 46 11             	mov    0x11(%rsi),%al
  402c1f:	84 c0                	test   %al,%al
  402c21:	0f 84 66 02 00 00    	je     402e8d <strncpy0+0x35d>
  402c27:	88 47 11             	mov    %al,0x11(%rdi)
  402c2a:	8a 46 12             	mov    0x12(%rsi),%al
  402c2d:	84 c0                	test   %al,%al
  402c2f:	0f 84 62 02 00 00    	je     402e97 <strncpy0+0x367>
  402c35:	88 47 12             	mov    %al,0x12(%rdi)
  402c38:	8a 46 13             	mov    0x13(%rsi),%al
  402c3b:	84 c0                	test   %al,%al
  402c3d:	0f 84 5e 02 00 00    	je     402ea1 <strncpy0+0x371>
  402c43:	88 47 13             	mov    %al,0x13(%rdi)
  402c46:	8a 46 14             	mov    0x14(%rsi),%al
  402c49:	84 c0                	test   %al,%al
  402c4b:	0f 84 5a 02 00 00    	je     402eab <strncpy0+0x37b>
  402c51:	88 47 14             	mov    %al,0x14(%rdi)
  402c54:	8a 46 15             	mov    0x15(%rsi),%al
  402c57:	84 c0                	test   %al,%al
  402c59:	0f 84 56 02 00 00    	je     402eb5 <strncpy0+0x385>
  402c5f:	88 47 15             	mov    %al,0x15(%rdi)
  402c62:	8a 46 16             	mov    0x16(%rsi),%al
  402c65:	84 c0                	test   %al,%al
  402c67:	0f 84 52 02 00 00    	je     402ebf <strncpy0+0x38f>
  402c6d:	88 47 16             	mov    %al,0x16(%rdi)
  402c70:	8a 46 17             	mov    0x17(%rsi),%al
  402c73:	84 c0                	test   %al,%al
  402c75:	0f 84 4e 02 00 00    	je     402ec9 <strncpy0+0x399>
  402c7b:	88 47 17             	mov    %al,0x17(%rdi)
  402c7e:	8a 46 18             	mov    0x18(%rsi),%al
  402c81:	84 c0                	test   %al,%al
  402c83:	0f 84 4a 02 00 00    	je     402ed3 <strncpy0+0x3a3>
  402c89:	88 47 18             	mov    %al,0x18(%rdi)
  402c8c:	8a 46 19             	mov    0x19(%rsi),%al
  402c8f:	84 c0                	test   %al,%al
  402c91:	0f 84 46 02 00 00    	je     402edd <strncpy0+0x3ad>
  402c97:	88 47 19             	mov    %al,0x19(%rdi)
  402c9a:	8a 46 1a             	mov    0x1a(%rsi),%al
  402c9d:	84 c0                	test   %al,%al
  402c9f:	0f 84 42 02 00 00    	je     402ee7 <strncpy0+0x3b7>
  402ca5:	88 47 1a             	mov    %al,0x1a(%rdi)
  402ca8:	8a 46 1b             	mov    0x1b(%rsi),%al
  402cab:	84 c0                	test   %al,%al
  402cad:	0f 84 3e 02 00 00    	je     402ef1 <strncpy0+0x3c1>
  402cb3:	88 47 1b             	mov    %al,0x1b(%rdi)
  402cb6:	8a 46 1c             	mov    0x1c(%rsi),%al
  402cb9:	84 c0                	test   %al,%al
  402cbb:	0f 84 3a 02 00 00    	je     402efb <strncpy0+0x3cb>
  402cc1:	88 47 1c             	mov    %al,0x1c(%rdi)
  402cc4:	8a 46 1d             	mov    0x1d(%rsi),%al
  402cc7:	84 c0                	test   %al,%al
  402cc9:	0f 84 36 02 00 00    	je     402f05 <strncpy0+0x3d5>
  402ccf:	88 47 1d             	mov    %al,0x1d(%rdi)
  402cd2:	8a 46 1e             	mov    0x1e(%rsi),%al
  402cd5:	84 c0                	test   %al,%al
  402cd7:	0f 84 32 02 00 00    	je     402f0f <strncpy0+0x3df>
  402cdd:	88 47 1e             	mov    %al,0x1e(%rdi)
  402ce0:	8a 46 1f             	mov    0x1f(%rsi),%al
  402ce3:	84 c0                	test   %al,%al
  402ce5:	0f 84 2e 02 00 00    	je     402f19 <strncpy0+0x3e9>
  402ceb:	88 47 1f             	mov    %al,0x1f(%rdi)
  402cee:	8a 46 20             	mov    0x20(%rsi),%al
  402cf1:	84 c0                	test   %al,%al
  402cf3:	0f 84 2a 02 00 00    	je     402f23 <strncpy0+0x3f3>
  402cf9:	88 47 20             	mov    %al,0x20(%rdi)
  402cfc:	8a 46 21             	mov    0x21(%rsi),%al
  402cff:	84 c0                	test   %al,%al
  402d01:	0f 84 26 02 00 00    	je     402f2d <strncpy0+0x3fd>
  402d07:	88 47 21             	mov    %al,0x21(%rdi)
  402d0a:	8a 46 22             	mov    0x22(%rsi),%al
  402d0d:	84 c0                	test   %al,%al
  402d0f:	0f 84 22 02 00 00    	je     402f37 <strncpy0+0x407>
  402d15:	88 47 22             	mov    %al,0x22(%rdi)
  402d18:	8a 46 23             	mov    0x23(%rsi),%al
  402d1b:	84 c0                	test   %al,%al
  402d1d:	0f 84 1e 02 00 00    	je     402f41 <strncpy0+0x411>
  402d23:	88 47 23             	mov    %al,0x23(%rdi)
  402d26:	8a 46 24             	mov    0x24(%rsi),%al
  402d29:	84 c0                	test   %al,%al
  402d2b:	0f 84 1a 02 00 00    	je     402f4b <strncpy0+0x41b>
  402d31:	88 47 24             	mov    %al,0x24(%rdi)
  402d34:	8a 46 25             	mov    0x25(%rsi),%al
  402d37:	84 c0                	test   %al,%al
  402d39:	0f 84 16 02 00 00    	je     402f55 <strncpy0+0x425>
  402d3f:	88 47 25             	mov    %al,0x25(%rdi)
  402d42:	8a 46 26             	mov    0x26(%rsi),%al
  402d45:	84 c0                	test   %al,%al
  402d47:	0f 84 12 02 00 00    	je     402f5f <strncpy0+0x42f>
  402d4d:	88 47 26             	mov    %al,0x26(%rdi)
  402d50:	8a 46 27             	mov    0x27(%rsi),%al
  402d53:	84 c0                	test   %al,%al
  402d55:	0f 84 0e 02 00 00    	je     402f69 <strncpy0+0x439>
  402d5b:	88 47 27             	mov    %al,0x27(%rdi)
  402d5e:	8a 46 28             	mov    0x28(%rsi),%al
  402d61:	84 c0                	test   %al,%al
  402d63:	0f 84 0a 02 00 00    	je     402f73 <strncpy0+0x443>
  402d69:	88 47 28             	mov    %al,0x28(%rdi)
  402d6c:	8a 46 29             	mov    0x29(%rsi),%al
  402d6f:	84 c0                	test   %al,%al
  402d71:	0f 84 06 02 00 00    	je     402f7d <strncpy0+0x44d>
  402d77:	88 47 29             	mov    %al,0x29(%rdi)
  402d7a:	8a 46 2a             	mov    0x2a(%rsi),%al
  402d7d:	84 c0                	test   %al,%al
  402d7f:	0f 84 02 02 00 00    	je     402f87 <strncpy0+0x457>
  402d85:	88 47 2a             	mov    %al,0x2a(%rdi)
  402d88:	8a 46 2b             	mov    0x2b(%rsi),%al
  402d8b:	84 c0                	test   %al,%al
  402d8d:	0f 84 fe 01 00 00    	je     402f91 <strncpy0+0x461>
  402d93:	88 47 2b             	mov    %al,0x2b(%rdi)
  402d96:	8a 46 2c             	mov    0x2c(%rsi),%al
  402d99:	84 c0                	test   %al,%al
  402d9b:	0f 84 fa 01 00 00    	je     402f9b <strncpy0+0x46b>
  402da1:	88 47 2c             	mov    %al,0x2c(%rdi)
  402da4:	8a 46 2d             	mov    0x2d(%rsi),%al
  402da7:	84 c0                	test   %al,%al
  402da9:	0f 84 f6 01 00 00    	je     402fa5 <strncpy0+0x475>
  402daf:	88 47 2d             	mov    %al,0x2d(%rdi)
  402db2:	8a 46 2e             	mov    0x2e(%rsi),%al
  402db5:	84 c0                	test   %al,%al
  402db7:	0f 84 f2 01 00 00    	je     402faf <strncpy0+0x47f>
  402dbd:	88 47 2e             	mov    %al,0x2e(%rdi)
  402dc0:	8a 46 2f             	mov    0x2f(%rsi),%al
  402dc3:	84 c0                	test   %al,%al
  402dc5:	0f 84 ee 01 00 00    	je     402fb9 <strncpy0+0x489>
  402dcb:	88 47 2f             	mov    %al,0x2f(%rdi)
  402dce:	8a 46 30             	mov    0x30(%rsi),%al
  402dd1:	84 c0                	test   %al,%al
  402dd3:	0f 84 ea 01 00 00    	je     402fc3 <strncpy0+0x493>
  402dd9:	88 47 30             	mov    %al,0x30(%rdi)
  402ddc:	b8 31 00 00 00       	mov    $0x31,%eax
  402de1:	c6 04 07 00          	movb   $0x0,(%rdi,%rax,1)
  402de5:	c3                   	ret    
  402de6:	31 c0                	xor    %eax,%eax
  402de8:	c6 04 07 00          	movb   $0x0,(%rdi,%rax,1)
  402dec:	c3                   	ret    
  402ded:	b8 01 00 00 00       	mov    $0x1,%eax
  402df2:	c6 04 07 00          	movb   $0x0,(%rdi,%rax,1)
  402df6:	c3                   	ret    
  402df7:	b8 02 00 00 00       	mov    $0x2,%eax
  402dfc:	c6 04 07 00          	movb   $0x0,(%rdi,%rax,1)
  402e00:	c3                   	ret    
  402e01:	b8 03 00 00 00       	mov    $0x3,%eax
  402e06:	c6 04 07 00          	movb   $0x0,(%rdi,%rax,1)
  402e0a:	c3                   	ret    
  402e0b:	b8 04 00 00 00       	mov    $0x4,%eax
  402e10:	c6 04 07 00          	movb   $0x0,(%rdi,%rax,1)
  402e14:	c3                   	ret    
  402e15:	b8 05 00 00 00       	mov    $0x5,%eax
  402e1a:	c6 04 07 00          	movb   $0x0,(%rdi,%rax,1)
  402e1e:	c3                   	ret    
  402e1f:	b8 06 00 00 00       	mov    $0x6,%eax
  402e24:	c6 04 07 00          	movb   $0x0,(%rdi,%rax,1)
  402e28:	c3                   	ret    
  402e29:	b8 07 00 00 00       	mov    $0x7,%eax
  402e2e:	c6 04 07 00          	movb   $0x0,(%rdi,%rax,1)
  402e32:	c3                   	ret    
  402e33:	b8 08 00 00 00       	mov    $0x8,%eax
  402e38:	c6 04 07 00          	movb   $0x0,(%rdi,%rax,1)
  402e3c:	c3                   	ret    
  402e3d:	b8 09 00 00 00       	mov    $0x9,%eax
  402e42:	c6 04 07 00          	movb   $0x0,(%rdi,%rax,1)
  402e46:	c3                   	ret    
  402e47:	b8 0a 00 00 00       	mov    $0xa,%eax
  402e4c:	c6 04 07 00          	movb   $0x0,(%rdi,%rax,1)
  402e50:	c3                   	ret    
  402e51:	b8 0b 00 00 00       	mov    $0xb,%eax
  402e56:	c6 04 07 00          	movb   $0x0,(%rdi,%rax,1)
  402e5a:	c3                   	ret    
  402e5b:	b8 0c 00 00 00       	mov    $0xc,%eax
  402e60:	c6 04 07 00          	movb   $0x0,(%rdi,%rax,1)
  402e64:	c3                   	ret    
  402e65:	b8 0d 00 00 00       	mov    $0xd,%eax
  402e6a:	c6 04 07 00          	movb   $0x0,(%rdi,%rax,1)
  402e6e:	c3                   	ret    
  402e6f:	b8 0e 00 00 00       	mov    $0xe,%eax
  402e74:	c6 04 07 00          	movb   $0x0,(%rdi,%rax,1)
  402e78:	c3                   	ret    
  402e79:	b8 0f 00 00 00       	mov    $0xf,%eax
  402e7e:	c6 04 07 00          	movb   $0x0,(%rdi,%rax,1)
  402e82:	c3                   	ret    
  402e83:	b8 10 00 00 00       	mov    $0x10,%eax
  402e88:	c6 04 07 00          	movb   $0x0,(%rdi,%rax,1)
  402e8c:	c3                   	ret    
  402e8d:	b8 11 00 00 00       	mov    $0x11,%eax
  402e92:	c6 04 07 00          	movb   $0x0,(%rdi,%rax,1)
  402e96:	c3                   	ret    
  402e97:	b8 12 00 00 00       	mov    $0x12,%eax
  402e9c:	c6 04 07 00          	movb   $0x0,(%rdi,%rax,1)
  402ea0:	c3                   	ret    
  402ea1:	b8 13 00 00 00       	mov    $0x13,%eax
  402ea6:	c6 04 07 00          	movb   $0x0,(%rdi,%rax,1)
  402eaa:	c3                   	ret    
  402eab:	b8 14 00 00 00       	mov    $0x14,%eax
  402eb0:	c6 04 07 00          	movb   $0x0,(%rdi,%rax,1)
  402eb4:	c3                   	ret    
  402eb5:	b8 15 00 00 00       	mov    $0x15,%eax
  402eba:	c6 04 07 00          	movb   $0x0,(%rdi,%rax,1)
  402ebe:	c3                   	ret    
  402ebf:	b8 16 00 00 00       	mov    $0x16,%eax
  402ec4:	c6 04 07 00          	movb   $0x0,(%rdi,%rax,1)
  402ec8:	c3                   	ret    
  402ec9:	b8 17 00 00 00       	mov    $0x17,%eax
  402ece:	c6 04 07 00          	movb   $0x0,(%rdi,%rax,1)
  402ed2:	c3                   	ret    
  402ed3:	b8 18 00 00 00       	mov    $0x18,%eax
  402ed8:	c6 04 07 00          	movb   $0x0,(%rdi,%rax,1)
  402edc:	c3                   	ret    
  402edd:	b8 19 00 00 00       	mov    $0x19,%eax
  402ee2:	c6 04 07 00          	movb   $0x0,(%rdi,%rax,1)
  402ee6:	c3                   	ret    
  402ee7:	b8 1a 00 00 00       	mov    $0x1a,%eax
  402eec:	c6 04 07 00          	movb   $0x0,(%rdi,%rax,1)
  402ef0:	c3                   	ret    
  402ef1:	b8 1b 00 00 00       	mov    $0x1b,%eax
  402ef6:	c6 04 07 00          	movb   $0x0,(%rdi,%rax,1)
  402efa:	c3                   	ret    
  402efb:	b8 1c 00 00 00       	mov    $0x1c,%eax
  402f00:	c6 04 07 00          	movb   $0x0,(%rdi,%rax,1)
  402f04:	c3                   	ret    
  402f05:	b8 1d 00 00 00       	mov    $0x1d,%eax
  402f0a:	c6 04 07 00          	movb   $0x0,(%rdi,%rax,1)
  402f0e:	c3                   	ret    
  402f0f:	b8 1e 00 00 00       	mov    $0x1e,%eax
  402f14:	c6 04 07 00          	movb   $0x0,(%rdi,%rax,1)
  402f18:	c3                   	ret    
  402f19:	b8 1f 00 00 00       	mov    $0x1f,%eax
  402f1e:	c6 04 07 00          	movb   $0x0,(%rdi,%rax,1)
  402f22:	c3                   	ret    
  402f23:	b8 20 00 00 00       	mov    $0x20,%eax
  402f28:	c6 04 07 00          	movb   $0x0,(%rdi,%rax,1)
  402f2c:	c3                   	ret    
  402f2d:	b8 21 00 00 00       	mov    $0x21,%eax
  402f32:	c6 04 07 00          	movb   $0x0,(%rdi,%rax,1)
  402f36:	c3                   	ret    
  402f37:	b8 22 00 00 00       	mov    $0x22,%eax
  402f3c:	c6 04 07 00          	movb   $0x0,(%rdi,%rax,1)
  402f40:	c3                   	ret    
  402f41:	b8 23 00 00 00       	mov    $0x23,%eax
  402f46:	c6 04 07 00          	movb   $0x0,(%rdi,%rax,1)
  402f4a:	c3                   	ret    
  402f4b:	b8 24 00 00 00       	mov    $0x24,%eax
  402f50:	c6 04 07 00          	movb   $0x0,(%rdi,%rax,1)
  402f54:	c3                   	ret    
  402f55:	b8 25 00 00 00       	mov    $0x25,%eax
  402f5a:	c6 04 07 00          	movb   $0x0,(%rdi,%rax,1)
  402f5e:	c3                   	ret    
  402f5f:	b8 26 00 00 00       	mov    $0x26,%eax
  402f64:	c6 04 07 00          	movb   $0x0,(%rdi,%rax,1)
  402f68:	c3                   	ret    
  402f69:	b8 27 00 00 00       	mov    $0x27,%eax
  402f6e:	c6 04 07 00          	movb   $0x0,(%rdi,%rax,1)
  402f72:	c3                   	ret    
  402f73:	b8 28 00 00 00       	mov    $0x28,%eax
  402f78:	c6 04 07 00          	movb   $0x0,(%rdi,%rax,1)
  402f7c:	c3                   	ret    
  402f7d:	b8 29 00 00 00       	mov    $0x29,%eax
  402f82:	c6 04 07 00          	movb   $0x0,(%rdi,%rax,1)
  402f86:	c3                   	ret    
  402f87:	b8 2a 00 00 00       	mov    $0x2a,%eax
  402f8c:	c6 04 07 00          	movb   $0x0,(%rdi,%rax,1)
  402f90:	c3                   	ret    
  402f91:	b8 2b 00 00 00       	mov    $0x2b,%eax
  402f96:	c6 04 07 00          	movb   $0x0,(%rdi,%rax,1)
  402f9a:	c3                   	ret    
  402f9b:	b8 2c 00 00 00       	mov    $0x2c,%eax
  402fa0:	c6 04 07 00          	movb   $0x0,(%rdi,%rax,1)
  402fa4:	c3                   	ret    
  402fa5:	b8 2d 00 00 00       	mov    $0x2d,%eax
  402faa:	c6 04 07 00          	movb   $0x0,(%rdi,%rax,1)
  402fae:	c3                   	ret    
  402faf:	b8 2e 00 00 00       	mov    $0x2e,%eax
  402fb4:	c6 04 07 00          	movb   $0x0,(%rdi,%rax,1)
  402fb8:	c3                   	ret    
  402fb9:	b8 2f 00 00 00       	mov    $0x2f,%eax
  402fbe:	c6 04 07 00          	movb   $0x0,(%rdi,%rax,1)
  402fc2:	c3                   	ret    
  402fc3:	b8 30 00 00 00       	mov    $0x30,%eax
  402fc8:	c6 04 07 00          	movb   $0x0,(%rdi,%rax,1)
  402fcc:	c3                   	ret    
  402fcd:	0f 1f 00             	nopl   (%rax)

0000000000402fd0 <ini_parse_file>:
  402fd0:	48 89 d1             	mov    %rdx,%rcx
  402fd3:	48 89 f2             	mov    %rsi,%rdx
  402fd6:	48 89 fe             	mov    %rdi,%rsi
  402fd9:	48 8b 3d 00 b0 00 00 	mov    0xb000(%rip),%rdi        # 40dfe0 <fgets@GLIBC_2.2.5>
  402fe0:	e9 6b f6 ff ff       	jmp    402650 <ini_parse_stream>
  402fe5:	66 2e 0f 1f 84 00 00 	cs nopw 0x0(%rax,%rax,1)
  402fec:	00 00 00 
  402fef:	90                   	nop

0000000000402ff0 <ini_parse>:
  402ff0:	55                   	push   %rbp
  402ff1:	41 57                	push   %r15
  402ff3:	41 56                	push   %r14
  402ff5:	53                   	push   %rbx
  402ff6:	50                   	push   %rax
  402ff7:	49 89 d6             	mov    %rdx,%r14
  402ffa:	49 89 f7             	mov    %rsi,%r15
  402ffd:	48 8d 35 7c 67 00 00 	lea    0x677c(%rip),%rsi        # 409780 <short_opt+0x80>
  403004:	e8 67 f1 ff ff       	call   402170 <fopen@plt>
  403009:	48 85 c0             	test   %rax,%rax
  40300c:	74 26                	je     403034 <ini_parse+0x44>
  40300e:	48 89 c3             	mov    %rax,%rbx
  403011:	48 8b 3d c8 af 00 00 	mov    0xafc8(%rip),%rdi        # 40dfe0 <fgets@GLIBC_2.2.5>
  403018:	48 89 c6             	mov    %rax,%rsi
  40301b:	4c 89 fa             	mov    %r15,%rdx
  40301e:	4c 89 f1             	mov    %r14,%rcx
  403021:	e8 2a f6 ff ff       	call   402650 <ini_parse_stream>
  403026:	89 c5                	mov    %eax,%ebp
  403028:	48 89 df             	mov    %rbx,%rdi
  40302b:	e8 00 f4 ff ff       	call   402430 <fclose@plt>
  403030:	89 e8                	mov    %ebp,%eax
  403032:	eb 05                	jmp    403039 <ini_parse+0x49>
  403034:	b8 ff ff ff ff       	mov    $0xffffffff,%eax
  403039:	48 83 c4 08          	add    $0x8,%rsp
  40303d:	5b                   	pop    %rbx
  40303e:	41 5e                	pop    %r14
  403040:	41 5f                	pop    %r15
  403042:	5d                   	pop    %rbp
  403043:	c3                   	ret    
  403044:	66 2e 0f 1f 84 00 00 	cs nopw 0x0(%rax,%rax,1)
  40304b:	00 00 00 
  40304e:	66 90                	xchg   %ax,%ax

0000000000403050 <ini_parse_string>:
  403050:	41 56                	push   %r14
  403052:	53                   	push   %rbx
  403053:	48 83 ec 18          	sub    $0x18,%rsp
  403057:	49 89 d6             	mov    %rdx,%r14
  40305a:	48 89 f3             	mov    %rsi,%rbx
  40305d:	64 48 8b 04 25 28 00 	mov    %fs:0x28,%rax
  403064:	00 00 
  403066:	48 89 44 24 10       	mov    %rax,0x10(%rsp)
  40306b:	48 89 3c 24          	mov    %rdi,(%rsp)
  40306f:	e8 9c f1 ff ff       	call   402210 <strlen@plt>
  403074:	48 89 44 24 08       	mov    %rax,0x8(%rsp)
  403079:	48 8d 3d 30 00 00 00 	lea    0x30(%rip),%rdi        # 4030b0 <ini_reader_string>
  403080:	48 89 e6             	mov    %rsp,%rsi
  403083:	48 89 da             	mov    %rbx,%rdx
  403086:	4c 89 f1             	mov    %r14,%rcx
  403089:	e8 c2 f5 ff ff       	call   402650 <ini_parse_stream>
  40308e:	64 48 8b 0c 25 28 00 	mov    %fs:0x28,%rcx
  403095:	00 00 
  403097:	48 3b 4c 24 10       	cmp    0x10(%rsp),%rcx
  40309c:	75 08                	jne    4030a6 <ini_parse_string+0x56>
  40309e:	48 83 c4 18          	add    $0x18,%rsp
  4030a2:	5b                   	pop    %rbx
  4030a3:	41 5e                	pop    %r14
  4030a5:	c3                   	ret    
  4030a6:	e8 f5 f2 ff ff       	call   4023a0 <__stack_chk_fail@plt>
  4030ab:	0f 1f 44 00 00       	nopl   0x0(%rax,%rax,1)

00000000004030b0 <ini_reader_string>:
  4030b0:	53                   	push   %rbx
  4030b1:	31 c0                	xor    %eax,%eax
  4030b3:	83 fe 02             	cmp    $0x2,%esi
  4030b6:	7c 5b                	jl     403113 <ini_reader_string+0x63>
  4030b8:	48 8b 4a 08          	mov    0x8(%rdx),%rcx
  4030bc:	48 85 c9             	test   %rcx,%rcx
  4030bf:	74 52                	je     403113 <ini_reader_string+0x63>
  4030c1:	4c 8b 12             	mov    (%rdx),%r10
  4030c4:	4c 8d 5f 01          	lea    0x1(%rdi),%r11
  4030c8:	48 83 c1 ff          	add    $0xffffffffffffffff,%rcx
  4030cc:	49 83 c2 01          	add    $0x1,%r10
  4030d0:	4d 89 d9             	mov    %r11,%r9
  4030d3:	49 89 c8             	mov    %rcx,%r8
  4030d6:	4c 89 d0             	mov    %r10,%rax
  4030d9:	41 0f b6 4a ff       	movzbl -0x1(%r10),%ecx
  4030de:	41 88 4b ff          	mov    %cl,-0x1(%r11)
  4030e2:	80 f9 0a             	cmp    $0xa,%cl
  4030e5:	74 1e                	je     403105 <ini_reader_string+0x55>
  4030e7:	4c 89 c1             	mov    %r8,%rcx
  4030ea:	48 83 c1 ff          	add    $0xffffffffffffffff,%rcx
  4030ee:	0f 92 c3             	setb   %bl
  4030f1:	83 fe 03             	cmp    $0x3,%esi
  4030f4:	7c 0f                	jl     403105 <ini_reader_string+0x55>
  4030f6:	83 c6 ff             	add    $0xffffffff,%esi
  4030f9:	4d 8d 59 01          	lea    0x1(%r9),%r11
  4030fd:	4c 8d 50 01          	lea    0x1(%rax),%r10
  403101:	84 db                	test   %bl,%bl
  403103:	75 cb                	jne    4030d0 <ini_reader_string+0x20>
  403105:	41 c6 01 00          	movb   $0x0,(%r9)
  403109:	48 89 02             	mov    %rax,(%rdx)
  40310c:	4c 89 42 08          	mov    %r8,0x8(%rdx)
  403110:	48 89 f8             	mov    %rdi,%rax
  403113:	5b                   	pop    %rbx
  403114:	c3                   	ret    
  403115:	66 2e 0f 1f 84 00 00 	cs nopw 0x0(%rax,%rax,1)
  40311c:	00 00 00 
  40311f:	90                   	nop

0000000000403120 <teavpn_server_tcp_handler>:
  403120:	55                   	push   %rbp
  403121:	41 57                	push   %r15
  403123:	41 56                	push   %r14
  403125:	41 55                	push   %r13
  403127:	41 54                	push   %r12
  403129:	53                   	push   %rbx
  40312a:	48 81 ec 68 41 00 00 	sub    $0x4168,%rsp
  403131:	48 89 fb             	mov    %rdi,%rbx
  403134:	64 48 8b 04 25 28 00 	mov    %fs:0x28,%rax
  40313b:	00 00 
  40313d:	48 89 84 24 60 41 00 	mov    %rax,0x4160(%rsp)
  403144:	00 
  403145:	48 8d 6c 24 10       	lea    0x10(%rsp),%rbp
  40314a:	ba 40 41 00 00       	mov    $0x4140,%edx
  40314f:	48 89 ef             	mov    %rbp,%rdi
  403152:	31 f6                	xor    %esi,%esi
  403154:	e8 f7 ee ff ff       	call   402050 <memset@plt>
  403159:	48 89 5c 24 40       	mov    %rbx,0x40(%rsp)
  40315e:	48 89 2d e3 b1 00 00 	mov    %rbp,0xb1e3(%rip)        # 40e348 <g_state>
  403165:	48 8d 1d 94 0b 00 00 	lea    0xb94(%rip),%rbx        # 403d00 <handle_interrupt>
  40316c:	bf 01 00 00 00       	mov    $0x1,%edi
  403171:	48 89 de             	mov    %rbx,%rsi
  403174:	e8 b7 f1 ff ff       	call   402330 <signal@plt>
  403179:	bf 02 00 00 00       	mov    $0x2,%edi
  40317e:	48 89 de             	mov    %rbx,%rsi
  403181:	e8 aa f1 ff ff       	call   402330 <signal@plt>
  403186:	bf 0f 00 00 00       	mov    $0xf,%edi
  40318b:	48 89 de             	mov    %rbx,%rsi
  40318e:	e8 9d f1 ff ff       	call   402330 <signal@plt>
  403193:	bf 03 00 00 00       	mov    $0x3,%edi
  403198:	48 89 de             	mov    %rbx,%rsi
  40319b:	e8 90 f1 ff ff       	call   402330 <signal@plt>
  4031a0:	be 01 00 00 00       	mov    $0x1,%esi
  4031a5:	bf 0d 00 00 00       	mov    $0xd,%edi
  4031aa:	e8 81 f1 ff ff       	call   402330 <signal@plt>
  4031af:	4c 8b 74 24 40       	mov    0x40(%rsp),%r14
  4031b4:	41 80 7e 60 00       	cmpb   $0x0,0x60(%r14)
  4031b9:	0f 84 f4 08 00 00    	je     403ab3 <teavpn_server_tcp_handler+0x993>
  4031bf:	0f 57 c0             	xorps  %xmm0,%xmm0
  4031c2:	0f 29 44 24 10       	movaps %xmm0,0x10(%rsp)
  4031c7:	48 c7 44 24 20 ff ff 	movq   $0xffffffffffffffff,0x20(%rsp)
  4031ce:	ff ff 
  4031d0:	0f 11 44 24 28       	movups %xmm0,0x28(%rsp)
  4031d5:	48 c7 44 24 38 00 00 	movq   $0x0,0x38(%rsp)
  4031dc:	00 00 
  4031de:	0f 11 44 24 48       	movups %xmm0,0x48(%rsp)
  4031e3:	0f 11 44 24 58       	movups %xmm0,0x58(%rsp)
  4031e8:	c7 84 24 bc 00 00 00 	movl   $0xffffffff,0xbc(%rsp)
  4031ef:	ff ff ff ff 
  4031f3:	0f 11 44 24 68       	movups %xmm0,0x68(%rsp)
  4031f8:	0f 11 44 24 78       	movups %xmm0,0x78(%rsp)
  4031fd:	0f 11 84 24 88 00 00 	movups %xmm0,0x88(%rsp)
  403204:	00 
  403205:	0f 11 84 24 98 00 00 	movups %xmm0,0x98(%rsp)
  40320c:	00 
  40320d:	0f 11 84 24 a8 00 00 	movups %xmm0,0xa8(%rsp)
  403214:	00 
  403215:	66 c7 84 24 b8 00 00 	movw   $0x0,0xb8(%rsp)
  40321c:	00 00 00 
  40321f:	0f 29 84 24 c0 00 00 	movaps %xmm0,0xc0(%rsp)
  403226:	00 
  403227:	0f 29 84 24 d0 00 00 	movaps %xmm0,0xd0(%rsp)
  40322e:	00 
  40322f:	0f 29 84 24 e0 00 00 	movaps %xmm0,0xe0(%rsp)
  403236:	00 
  403237:	0f 29 84 24 f0 00 00 	movaps %xmm0,0xf0(%rsp)
  40323e:	00 
  40323f:	0f 29 84 24 00 01 00 	movaps %xmm0,0x100(%rsp)
  403246:	00 
  403247:	0f 29 84 24 10 01 00 	movaps %xmm0,0x110(%rsp)
  40324e:	00 
  40324f:	0f 29 84 24 20 01 00 	movaps %xmm0,0x120(%rsp)
  403256:	00 
  403257:	0f 29 84 24 30 01 00 	movaps %xmm0,0x130(%rsp)
  40325e:	00 
  40325f:	bf 00 01 00 00       	mov    $0x100,%edi
  403264:	be 00 02 00 00       	mov    $0x200,%esi
  403269:	e8 b2 f1 ff ff       	call   402420 <calloc@plt>
  40326e:	48 85 c0             	test   %rax,%rax
  403271:	0f 84 25 08 00 00    	je     403a9c <teavpn_server_tcp_handler+0x97c>
  403277:	48 89 c3             	mov    %rax,%rbx
  40327a:	ba 00 00 02 00       	mov    $0x20000,%edx
  40327f:	48 89 c7             	mov    %rax,%rdi
  403282:	31 f6                	xor    %esi,%esi
  403284:	e8 c7 ed ff ff       	call   402050 <memset@plt>
  403289:	48 89 5c 24 60       	mov    %rbx,0x60(%rsp)
  40328e:	41 0f b7 5e 5a       	movzwl 0x5a(%r14),%ebx
  403293:	0f b7 fb             	movzwl %bx,%edi
  403296:	be 88 40 00 00       	mov    $0x4088,%esi
  40329b:	e8 80 f1 ff ff       	call   402420 <calloc@plt>
  4032a0:	48 85 c0             	test   %rax,%rax
  4032a3:	0f 84 f3 07 00 00    	je     403a9c <teavpn_server_tcp_handler+0x97c>
  4032a9:	66 85 db             	test   %bx,%bx
  4032ac:	0f 84 57 00 00 00    	je     403309 <teavpn_server_tcp_handler+0x1e9>
  4032b2:	83 c3 ff             	add    $0xffffffff,%ebx
  4032b5:	0f b7 cb             	movzwl %bx,%ecx
  4032b8:	48 69 d1 88 40 00 00 	imul   $0x4088,%rcx,%rdx
  4032bf:	48 89 c1             	mov    %rax,%rcx
  4032c2:	48 01 d1             	add    %rdx,%rcx
  4032c5:	0f 28 05 44 5d 00 00 	movaps 0x5d44(%rip),%xmm0        # 409010 <_IO_stdin_used+0x10>
  4032cc:	0f 1f 40 00          	nopl   0x0(%rax)
  4032d0:	66 c7 01 00 00       	movw   $0x0,(%rcx)
  4032d5:	0f 11 41 04          	movups %xmm0,0x4(%rcx)
  4032d9:	66 89 59 14          	mov    %bx,0x14(%rcx)
  4032dd:	66 c7 41 16 00 00    	movw   $0x0,0x16(%rcx)
  4032e3:	c6 41 18 00          	movb   $0x0,0x18(%rcx)
  4032e7:	66 c7 41 28 5f 00    	movw   $0x5f,0x28(%rcx)
  4032ed:	c7 41 6c 00 00 00 00 	movl   $0x0,0x6c(%rcx)
  4032f4:	48 c7 41 70 00 00 00 	movq   $0x0,0x70(%rcx)
  4032fb:	00 
  4032fc:	48 81 c1 78 bf ff ff 	add    $0xffffffffffffbf78,%rcx
  403303:	66 83 c3 ff          	add    $0xffff,%bx
  403307:	72 c7                	jb     4032d0 <teavpn_server_tcp_handler+0x1b0>
  403309:	48 89 44 24 50       	mov    %rax,0x50(%rsp)
  40330e:	bf ff ff 00 00       	mov    $0xffff,%edi
  403313:	be 02 00 00 00       	mov    $0x2,%esi
  403318:	e8 03 f1 ff ff       	call   402420 <calloc@plt>
  40331d:	48 85 c0             	test   %rax,%rax
  403320:	0f 84 76 07 00 00    	je     403a9c <teavpn_server_tcp_handler+0x97c>
  403326:	48 89 c3             	mov    %rax,%rbx
  403329:	ba fe ff 01 00       	mov    $0x1fffe,%edx
  40332e:	48 89 c7             	mov    %rax,%rdi
  403331:	31 f6                	xor    %esi,%esi
  403333:	e8 18 ed ff ff       	call   402050 <memset@plt>
  403338:	48 89 5c 24 58       	mov    %rbx,0x58(%rsp)
  40333d:	49 8b 76 18          	mov    0x18(%r14),%rsi
  403341:	48 8d 3d 12 5d 00 00 	lea    0x5d12(%rip),%rdi        # 40905a <_IO_stdin_used+0x5a>
  403348:	31 c0                	xor    %eax,%eax
  40334a:	e8 61 52 00 00       	call   4085b0 <__pr_notice>
  40334f:	49 8b 7e 18          	mov    0x18(%r14),%rdi
  403353:	be 01 10 00 00       	mov    $0x1001,%esi
  403358:	e8 a3 3d 00 00       	call   407100 <tun_alloc>
  40335d:	41 bd ff ff ff ff    	mov    $0xffffffff,%r13d
  403363:	85 c0                	test   %eax,%eax
  403365:	0f 88 ea 04 00 00    	js     403855 <teavpn_server_tcp_handler+0x735>
  40336b:	89 c5                	mov    %eax,%ebp
  40336d:	89 c7                	mov    %eax,%edi
  40336f:	e8 2c 3f 00 00       	call   4072a0 <fd_set_nonblock>
  403374:	85 c0                	test   %eax,%eax
  403376:	0f 88 07 09 00 00    	js     403c83 <teavpn_server_tcp_handler+0xb63>
  40337c:	48 8d 5c 24 68       	lea    0x68(%rsp),%rbx
  403381:	0f 57 c0             	xorps  %xmm0,%xmm0
  403384:	0f 11 43 40          	movups %xmm0,0x40(%rbx)
  403388:	0f 11 43 30          	movups %xmm0,0x30(%rbx)
  40338c:	0f 11 43 20          	movups %xmm0,0x20(%rbx)
  403390:	0f 11 43 10          	movups %xmm0,0x10(%rbx)
  403394:	0f 11 03             	movups %xmm0,(%rbx)
  403397:	66 c7 43 50 00 00    	movw   $0x0,0x50(%rbx)
  40339d:	49 8b 76 18          	mov    0x18(%r14),%rsi
  4033a1:	ba 0f 00 00 00       	mov    $0xf,%edx
  4033a6:	48 89 df             	mov    %rbx,%rdi
  4033a9:	e8 92 f0 ff ff       	call   402440 <strncpy@plt>
  4033ae:	c6 44 24 77 00       	movb   $0x0,0x77(%rsp)
  4033b3:	48 8d bc 24 88 00 00 	lea    0x88(%rsp),%rdi
  4033ba:	00 
  4033bb:	49 8b 76 20          	mov    0x20(%r14),%rsi
  4033bf:	ba 0f 00 00 00       	mov    $0xf,%edx
  4033c4:	e8 77 f0 ff ff       	call   402440 <strncpy@plt>
  4033c9:	c6 84 24 97 00 00 00 	movb   $0x0,0x97(%rsp)
  4033d0:	00 
  4033d1:	48 8d bc 24 98 00 00 	lea    0x98(%rsp),%rdi
  4033d8:	00 
  4033d9:	49 8b 76 28          	mov    0x28(%r14),%rsi
  4033dd:	ba 0f 00 00 00       	mov    $0xf,%edx
  4033e2:	e8 59 f0 ff ff       	call   402440 <strncpy@plt>
  4033e7:	c6 84 24 a7 00 00 00 	movb   $0x0,0xa7(%rsp)
  4033ee:	00 
  4033ef:	41 0f b7 46 10       	movzwl 0x10(%r14),%eax
  4033f4:	66 89 84 24 b8 00 00 	mov    %ax,0xb8(%rsp)
  4033fb:	00 
  4033fc:	48 89 df             	mov    %rbx,%rdi
  4033ff:	e8 3c 3f 00 00       	call   407340 <teavpn_iface_up>
  403404:	84 c0                	test   %al,%al
  403406:	0f 84 c0 06 00 00    	je     403acc <teavpn_server_tcp_handler+0x9ac>
  40340c:	81 fd ff ff 00 00    	cmp    $0xffff,%ebp
  403412:	0f 83 c7 06 00 00    	jae    403adf <teavpn_server_tcp_handler+0x9bf>
  403418:	89 6c 24 20          	mov    %ebp,0x20(%rsp)
  40341c:	c6 44 24 12 01       	movb   $0x1,0x12(%rsp)
  403421:	48 8b 44 24 58       	mov    0x58(%rsp),%rax
  403426:	89 e9                	mov    %ebp,%ecx
  403428:	66 c7 04 48 02 00    	movw   $0x2,(%rax,%rcx,2)
  40342e:	bf 02 00 20 00       	mov    $0x200002,%edi
  403433:	31 f6                	xor    %esi,%esi
  403435:	e8 96 ef ff ff       	call   4023d0 <OPENSSL_init_ssl@plt>
  40343a:	31 ff                	xor    %edi,%edi
  40343c:	31 f6                	xor    %esi,%esi
  40343e:	e8 8d ef ff ff       	call   4023d0 <OPENSSL_init_ssl@plt>
  403443:	c6 44 24 11 01       	movb   $0x1,0x11(%rsp)
  403448:	e8 33 ee ff ff       	call   402280 <TLS_server_method@plt>
  40344d:	48 89 c7             	mov    %rax,%rdi
  403450:	e8 fb ef ff ff       	call   402450 <SSL_CTX_new@plt>
  403455:	48 85 c0             	test   %rax,%rax
  403458:	0f 84 9b 06 00 00    	je     403af9 <teavpn_server_tcp_handler+0x9d9>
  40345e:	48 89 c5             	mov    %rax,%rbp
  403461:	48 8b 44 24 40       	mov    0x40(%rsp),%rax
  403466:	48 8b 70 38          	mov    0x38(%rax),%rsi
  40346a:	48 85 f6             	test   %rsi,%rsi
  40346d:	0f 84 a0 06 00 00    	je     403b13 <teavpn_server_tcp_handler+0x9f3>
  403473:	48 8b 58 40          	mov    0x40(%rax),%rbx
  403477:	48 85 db             	test   %rbx,%rbx
  40347a:	0f 84 a6 06 00 00    	je     403b26 <teavpn_server_tcp_handler+0xa06>
  403480:	48 89 ef             	mov    %rbp,%rdi
  403483:	ba 01 00 00 00       	mov    $0x1,%edx
  403488:	e8 13 ed ff ff       	call   4021a0 <SSL_CTX_use_certificate_file@plt>
  40348d:	85 c0                	test   %eax,%eax
  40348f:	0f 8e b3 06 00 00    	jle    403b48 <teavpn_server_tcp_handler+0xa28>
  403495:	48 89 ef             	mov    %rbp,%rdi
  403498:	48 89 de             	mov    %rbx,%rsi
  40349b:	ba 01 00 00 00       	mov    $0x1,%edx
  4034a0:	e8 9b ee ff ff       	call   402340 <SSL_CTX_use_PrivateKey_file@plt>
  4034a5:	85 c0                	test   %eax,%eax
  4034a7:	0f 8e ca 06 00 00    	jle    403b77 <teavpn_server_tcp_handler+0xa57>
  4034ad:	48 89 6c 24 38       	mov    %rbp,0x38(%rsp)
  4034b2:	4c 8b 7c 24 40       	mov    0x40(%rsp),%r15
  4034b7:	48 8d 3d 0d 5d 00 00 	lea    0x5d0d(%rip),%rdi        # 4091cb <_IO_stdin_used+0x1cb>
  4034be:	31 c0                	xor    %eax,%eax
  4034c0:	e8 eb 50 00 00       	call   4085b0 <__pr_notice>
  4034c5:	bf 02 00 00 00       	mov    $0x2,%edi
  4034ca:	be 01 08 00 00       	mov    $0x801,%esi
  4034cf:	ba 06 00 00 00       	mov    $0x6,%edx
  4034d4:	e8 97 ee ff ff       	call   402370 <socket@plt>
  4034d9:	85 c0                	test   %eax,%eax
  4034db:	0f 88 e6 06 00 00    	js     403bc7 <teavpn_server_tcp_handler+0xaa7>
  4034e1:	89 c5                	mov    %eax,%ebp
  4034e3:	48 8d 3d 10 5d 00 00 	lea    0x5d10(%rip),%rdi        # 4091fa <_IO_stdin_used+0x1fa>
  4034ea:	31 c0                	xor    %eax,%eax
  4034ec:	e8 bf 50 00 00       	call   4085b0 <__pr_notice>
  4034f1:	c7 44 24 08 01 00 00 	movl   $0x1,0x8(%rsp)
  4034f8:	00 
  4034f9:	48 8d 4c 24 08       	lea    0x8(%rsp),%rcx
  4034fe:	89 ef                	mov    %ebp,%edi
  403500:	be 01 00 00 00       	mov    $0x1,%esi
  403505:	ba 02 00 00 00       	mov    $0x2,%edx
  40350a:	41 b8 04 00 00 00    	mov    $0x4,%r8d
  403510:	e8 9b ec ff ff       	call   4021b0 <setsockopt@plt>
  403515:	4c 8d 25 52 5d 00 00 	lea    0x5d52(%rip),%r12        # 40926e <_IO_stdin_used+0x26e>
  40351c:	4c 8d 35 40 5d 00 00 	lea    0x5d40(%rip),%r14        # 409263 <_IO_stdin_used+0x263>
  403523:	85 c0                	test   %eax,%eax
  403525:	0f 88 f4 06 00 00    	js     403c1f <teavpn_server_tcp_handler+0xaff>
  40352b:	c7 44 24 08 01 00 00 	movl   $0x1,0x8(%rsp)
  403532:	00 
  403533:	48 8d 4c 24 08       	lea    0x8(%rsp),%rcx
  403538:	89 ef                	mov    %ebp,%edi
  40353a:	be 01 00 00 00       	mov    $0x1,%esi
  40353f:	ba 02 00 00 00       	mov    $0x2,%edx
  403544:	41 b8 04 00 00 00    	mov    $0x4,%r8d
  40354a:	e8 61 ec ff ff       	call   4021b0 <setsockopt@plt>
  40354f:	85 c0                	test   %eax,%eax
  403551:	0f 88 c8 06 00 00    	js     403c1f <teavpn_server_tcp_handler+0xaff>
  403557:	c7 44 24 08 01 00 00 	movl   $0x1,0x8(%rsp)
  40355e:	00 
  40355f:	48 8d 4c 24 08       	lea    0x8(%rsp),%rcx
  403564:	89 ef                	mov    %ebp,%edi
  403566:	be 06 00 00 00       	mov    $0x6,%esi
  40356b:	ba 01 00 00 00       	mov    $0x1,%edx
  403570:	41 b8 04 00 00 00    	mov    $0x4,%r8d
  403576:	e8 35 ec ff ff       	call   4021b0 <setsockopt@plt>
  40357b:	85 c0                	test   %eax,%eax
  40357d:	0f 88 6a 06 00 00    	js     403bed <teavpn_server_tcp_handler+0xacd>
  403583:	c7 44 24 08 06 00 00 	movl   $0x6,0x8(%rsp)
  40358a:	00 
  40358b:	48 8d 4c 24 08       	lea    0x8(%rsp),%rcx
  403590:	89 ef                	mov    %ebp,%edi
  403592:	be 01 00 00 00       	mov    $0x1,%esi
  403597:	ba 0c 00 00 00       	mov    $0xc,%edx
  40359c:	41 b8 04 00 00 00    	mov    $0x4,%r8d
  4035a2:	e8 09 ec ff ff       	call   4021b0 <setsockopt@plt>
  4035a7:	85 c0                	test   %eax,%eax
  4035a9:	0f 88 4e 06 00 00    	js     403bfd <teavpn_server_tcp_handler+0xadd>
  4035af:	c7 44 24 08 00 00 40 	movl   $0x400000,0x8(%rsp)
  4035b6:	00 
  4035b7:	48 8d 4c 24 08       	lea    0x8(%rsp),%rcx
  4035bc:	89 ef                	mov    %ebp,%edi
  4035be:	be 01 00 00 00       	mov    $0x1,%esi
  4035c3:	ba 21 00 00 00       	mov    $0x21,%edx
  4035c8:	41 b8 04 00 00 00    	mov    $0x4,%r8d
  4035ce:	e8 dd eb ff ff       	call   4021b0 <setsockopt@plt>
  4035d3:	85 c0                	test   %eax,%eax
  4035d5:	0f 88 2b 06 00 00    	js     403c06 <teavpn_server_tcp_handler+0xae6>
  4035db:	c7 44 24 08 00 00 40 	movl   $0x400000,0x8(%rsp)
  4035e2:	00 
  4035e3:	48 8d 4c 24 08       	lea    0x8(%rsp),%rcx
  4035e8:	89 ef                	mov    %ebp,%edi
  4035ea:	be 01 00 00 00       	mov    $0x1,%esi
  4035ef:	ba 20 00 00 00       	mov    $0x20,%edx
  4035f4:	41 b8 04 00 00 00    	mov    $0x4,%r8d
  4035fa:	e8 b1 eb ff ff       	call   4021b0 <setsockopt@plt>
  4035ff:	85 c0                	test   %eax,%eax
  403601:	0f 88 08 06 00 00    	js     403c0f <teavpn_server_tcp_handler+0xaef>
  403607:	c7 44 24 08 50 c3 00 	movl   $0xc350,0x8(%rsp)
  40360e:	00 
  40360f:	48 8d 4c 24 08       	lea    0x8(%rsp),%rcx
  403614:	89 ef                	mov    %ebp,%edi
  403616:	be 01 00 00 00       	mov    $0x1,%esi
  40361b:	ba 2e 00 00 00       	mov    $0x2e,%edx
  403620:	41 b8 04 00 00 00    	mov    $0x4,%r8d
  403626:	e8 85 eb ff ff       	call   4021b0 <setsockopt@plt>
  40362b:	85 c0                	test   %eax,%eax
  40362d:	0f 88 e5 05 00 00    	js     403c18 <teavpn_server_tcp_handler+0xaf8>
  403633:	c7 44 24 0c ff ff ff 	movl   $0xffffffff,0xc(%rsp)
  40363a:	ff 
  40363b:	b8 ff ff ff ff       	mov    $0xffffffff,%eax
  403640:	31 d2                	xor    %edx,%edx
  403642:	b9 ff ff ff ff       	mov    $0xffffffff,%ecx
  403647:	e9 13 00 00 00       	jmp    40365f <teavpn_server_tcp_handler+0x53f>
  40364c:	0f 1f 40 00          	nopl   0x0(%rax)
  403650:	89 f0                	mov    %esi,%eax
  403652:	48 83 c2 02          	add    $0x2,%rdx
  403656:	48 81 fa 00 04 00 00 	cmp    $0x400,%rdx
  40365d:	74 5a                	je     4036b9 <teavpn_server_tcp_handler+0x599>
  40365f:	48 89 d6             	mov    %rdx,%rsi
  403662:	48 c1 ee 06          	shr    $0x6,%rsi
  403666:	48 8b bc f4 c0 00 00 	mov    0xc0(%rsp,%rsi,8),%rdi
  40366d:	00 
  40366e:	89 d3                	mov    %edx,%ebx
  403670:	80 e3 3e             	and    $0x3e,%bl
  403673:	0f b6 db             	movzbl %bl,%ebx
  403676:	48 0f a3 df          	bt     %rbx,%rdi
  40367a:	73 16                	jae    403692 <teavpn_server_tcp_handler+0x572>
  40367c:	83 f8 ff             	cmp    $0xffffffff,%eax
  40367f:	74 0f                	je     403690 <teavpn_server_tcp_handler+0x570>
  403681:	83 f9 ff             	cmp    $0xffffffff,%ecx
  403684:	75 3f                	jne    4036c5 <teavpn_server_tcp_handler+0x5a5>
  403686:	89 d1                	mov    %edx,%ecx
  403688:	e9 05 00 00 00       	jmp    403692 <teavpn_server_tcp_handler+0x572>
  40368d:	0f 1f 00             	nopl   (%rax)
  403690:	89 d0                	mov    %edx,%eax
  403692:	48 8b b4 f4 c0 00 00 	mov    0xc0(%rsp,%rsi,8),%rsi
  403699:	00 
  40369a:	8d 7a 01             	lea    0x1(%rdx),%edi
  40369d:	40 0f b6 ff          	movzbl %dil,%edi
  4036a1:	48 0f a3 fe          	bt     %rdi,%rsi
  4036a5:	73 ab                	jae    403652 <teavpn_server_tcp_handler+0x532>
  4036a7:	48 8d 72 01          	lea    0x1(%rdx),%rsi
  4036ab:	83 f8 ff             	cmp    $0xffffffff,%eax
  4036ae:	74 a0                	je     403650 <teavpn_server_tcp_handler+0x530>
  4036b0:	83 f9 ff             	cmp    $0xffffffff,%ecx
  4036b3:	75 10                	jne    4036c5 <teavpn_server_tcp_handler+0x5a5>
  4036b5:	89 f1                	mov    %esi,%ecx
  4036b7:	eb 99                	jmp    403652 <teavpn_server_tcp_handler+0x532>
  4036b9:	83 f9 ff             	cmp    $0xffffffff,%ecx
  4036bc:	75 07                	jne    4036c5 <teavpn_server_tcp_handler+0x5a5>
  4036be:	89 c1                	mov    %eax,%ecx
  4036c0:	83 f8 ff             	cmp    $0xffffffff,%eax
  4036c3:	74 28                	je     4036ed <teavpn_server_tcp_handler+0x5cd>
  4036c5:	89 4c 24 0c          	mov    %ecx,0xc(%rsp)
  4036c9:	48 8d 4c 24 0c       	lea    0xc(%rsp),%rcx
  4036ce:	89 ef                	mov    %ebp,%edi
  4036d0:	be 01 00 00 00       	mov    $0x1,%esi
  4036d5:	ba 31 00 00 00       	mov    $0x31,%edx
  4036da:	41 b8 04 00 00 00    	mov    $0x4,%r8d
  4036e0:	e8 cb ea ff ff       	call   4021b0 <setsockopt@plt>
  4036e5:	85 c0                	test   %eax,%eax
  4036e7:	0f 88 ce 05 00 00    	js     403cbb <teavpn_server_tcp_handler+0xb9b>
  4036ed:	48 c7 84 24 58 41 00 	movq   $0x0,0x4158(%rsp)
  4036f4:	00 00 00 00 00 
  4036f9:	66 c7 84 24 50 41 00 	movw   $0x2,0x4150(%rsp)
  403700:	00 02 00 
  403703:	41 0f b7 47 58       	movzwl 0x58(%r15),%eax
  403708:	66 c1 c0 08          	rol    $0x8,%ax
  40370c:	66 89 84 24 52 41 00 	mov    %ax,0x4152(%rsp)
  403713:	00 
  403714:	49 8b 7f 50          	mov    0x50(%r15),%rdi
  403718:	e8 33 ee ff ff       	call   402550 <inet_addr@plt>
  40371d:	89 84 24 54 41 00 00 	mov    %eax,0x4154(%rsp)
  403724:	48 8d b4 24 50 41 00 	lea    0x4150(%rsp),%rsi
  40372b:	00 
  40372c:	89 ef                	mov    %ebp,%edi
  40372e:	ba 10 00 00 00       	mov    $0x10,%edx
  403733:	e8 38 ed ff ff       	call   402470 <bind@plt>
  403738:	85 c0                	test   %eax,%eax
  40373a:	0f 88 0b 05 00 00    	js     403c4b <teavpn_server_tcp_handler+0xb2b>
  403740:	41 8b 77 5c          	mov    0x5c(%r15),%esi
  403744:	89 ef                	mov    %ebp,%edi
  403746:	e8 05 eb ff ff       	call   402250 <listen@plt>
  40374b:	85 c0                	test   %eax,%eax
  40374d:	0f 88 0f 05 00 00    	js     403c62 <teavpn_server_tcp_handler+0xb42>
  403753:	89 6c 24 24          	mov    %ebp,0x24(%rsp)
  403757:	49 8b 77 50          	mov    0x50(%r15),%rsi
  40375b:	41 0f b7 57 58       	movzwl 0x58(%r15),%edx
  403760:	48 8d 3d e6 5a 00 00 	lea    0x5ae6(%rip),%rdi        # 40924d <_IO_stdin_used+0x24d>
  403767:	31 c0                	xor    %eax,%eax
  403769:	e8 42 4e 00 00       	call   4085b0 <__pr_notice>
  40376e:	48 8b 44 24 58       	mov    0x58(%rsp),%rax
  403773:	48 63 cd             	movslq %ebp,%rcx
  403776:	66 c7 04 48 01 00    	movw   $0x1,(%rax,%rcx,2)
  40377c:	48 8b 44 24 40       	mov    0x40(%rsp),%rax
  403781:	0f b6 58 60          	movzbl 0x60(%rax),%ebx
  403785:	be 58 00 00 00       	mov    $0x58,%esi
  40378a:	48 89 df             	mov    %rbx,%rdi
  40378d:	e8 8e ec ff ff       	call   402420 <calloc@plt>
  403792:	48 85 c0             	test   %rax,%rax
  403795:	0f 84 f4 04 00 00    	je     403c8f <teavpn_server_tcp_handler+0xb6f>
  40379b:	48 89 04 24          	mov    %rax,(%rsp)
  40379f:	48 89 44 24 48       	mov    %rax,0x48(%rsp)
  4037a4:	80 fb 02             	cmp    $0x2,%bl
  4037a7:	0f 82 74 00 00 00    	jb     403821 <teavpn_server_tcp_handler+0x701>
  4037ad:	48 8b 2c 24          	mov    (%rsp),%rbp
  4037b1:	48 83 ed 80          	sub    $0xffffffffffffff80,%rbp
  4037b5:	41 be 01 00 00 00    	mov    $0x1,%r14d
  4037bb:	4c 8d 64 24 10       	lea    0x10(%rsp),%r12
  4037c0:	4c 8d 2d d9 06 00 00 	lea    0x6d9(%rip),%r13        # 403ea0 <event_loop>
  4037c7:	66 0f 1f 84 00 00 00 	nopw   0x0(%rax,%rax,1)
  4037ce:	00 00 
  4037d0:	4c 8d 7d d8          	lea    -0x28(%rbp),%r15
  4037d4:	41 0f b6 fe          	movzbl %r14b,%edi
  4037d8:	4c 89 fe             	mov    %r15,%rsi
  4037db:	4c 89 e2             	mov    %r12,%rdx
  4037de:	e8 4d 05 00 00       	call   403d30 <init_thread_state>
  4037e3:	85 c0                	test   %eax,%eax
  4037e5:	0f 88 63 02 00 00    	js     403a4e <teavpn_server_tcp_handler+0x92e>
  4037eb:	48 89 ef             	mov    %rbp,%rdi
  4037ee:	31 f6                	xor    %esi,%esi
  4037f0:	4c 89 ea             	mov    %r13,%rdx
  4037f3:	4c 89 f9             	mov    %r15,%rcx
  4037f6:	e8 25 ea ff ff       	call   402220 <pthread_create@plt>
  4037fb:	85 c0                	test   %eax,%eax
  4037fd:	0f 85 56 02 00 00    	jne    403a59 <teavpn_server_tcp_handler+0x939>
  403803:	48 8b 7d 00          	mov    0x0(%rbp),%rdi
  403807:	e8 f4 eb ff ff       	call   402400 <pthread_detach@plt>
  40380c:	85 c0                	test   %eax,%eax
  40380e:	0f 85 5c 02 00 00    	jne    403a70 <teavpn_server_tcp_handler+0x950>
  403814:	49 83 c6 01          	add    $0x1,%r14
  403818:	48 83 c5 58          	add    $0x58,%rbp
  40381c:	4c 39 f3             	cmp    %r14,%rbx
  40381f:	75 af                	jne    4037d0 <teavpn_server_tcp_handler+0x6b0>
  403821:	45 31 ed             	xor    %r13d,%r13d
  403824:	48 8d 54 24 10       	lea    0x10(%rsp),%rdx
  403829:	31 ff                	xor    %edi,%edi
  40382b:	48 8b 1c 24          	mov    (%rsp),%rbx
  40382f:	48 89 de             	mov    %rbx,%rsi
  403832:	e8 f9 04 00 00       	call   403d30 <init_thread_state>
  403837:	85 c0                	test   %eax,%eax
  403839:	0f 88 0f 02 00 00    	js     403a4e <teavpn_server_tcp_handler+0x92e>
  40383f:	48 8d 3d be 5a 00 00 	lea    0x5abe(%rip),%rdi        # 409304 <_IO_stdin_used+0x304>
  403846:	31 c0                	xor    %eax,%eax
  403848:	e8 63 4d 00 00       	call   4085b0 <__pr_notice>
  40384d:	48 89 df             	mov    %rbx,%rdi
  403850:	e8 4b 06 00 00       	call   403ea0 <event_loop>
  403855:	44 89 2c 24          	mov    %r13d,(%rsp)
  403859:	8b 9c 24 bc 00 00 00 	mov    0xbc(%rsp),%ebx
  403860:	83 fb ff             	cmp    $0xffffffff,%ebx
  403863:	74 1a                	je     40387f <teavpn_server_tcp_handler+0x75f>
  403865:	89 df                	mov    %ebx,%edi
  403867:	e8 c4 e8 ff ff       	call   402130 <strsignal@plt>
  40386c:	48 8d 3d f6 5b 00 00 	lea    0x5bf6(%rip),%rdi        # 409469 <_IO_stdin_used+0x469>
  403873:	89 de                	mov    %ebx,%esi
  403875:	48 89 c2             	mov    %rax,%rdx
  403878:	31 c0                	xor    %eax,%eax
  40387a:	e8 31 4d 00 00       	call   4085b0 <__pr_notice>
  40387f:	48 8b 44 24 40       	mov    0x40(%rsp),%rax
  403884:	4c 8b 7c 24 48       	mov    0x48(%rsp),%r15
  403889:	44 0f b6 68 60       	movzbl 0x60(%rax),%r13d
  40388e:	49 83 fd 02          	cmp    $0x2,%r13
  403892:	0f 82 a0 00 00 00    	jb     403938 <teavpn_server_tcp_handler+0x818>
  403898:	bb 01 00 00 00       	mov    $0x1,%ebx
  40389d:	eb 3a                	jmp    4038d9 <teavpn_server_tcp_handler+0x7b9>
  40389f:	48 8d 3d fb 5b 00 00 	lea    0x5bfb(%rip),%rdi        # 4094a1 <_IO_stdin_used+0x4a1>
  4038a6:	89 de                	mov    %ebx,%esi
  4038a8:	31 c0                	xor    %eax,%eax
  4038aa:	e8 01 4d 00 00       	call   4085b0 <__pr_notice>
  4038af:	49 8b 7c 2f 28       	mov    0x28(%r15,%rbp,1),%rdi
  4038b4:	e8 37 eb ff ff       	call   4023f0 <pthread_cancel@plt>
  4038b9:	bf 01 00 00 00       	mov    $0x1,%edi
  4038be:	e8 cd e9 ff ff       	call   402290 <sleep@plt>
  4038c3:	66 2e 0f 1f 84 00 00 	cs nopw 0x0(%rax,%rax,1)
  4038ca:	00 00 00 
  4038cd:	0f 1f 00             	nopl   (%rax)
  4038d0:	48 83 c3 01          	add    $0x1,%rbx
  4038d4:	4c 39 eb             	cmp    %r13,%rbx
  4038d7:	74 51                	je     40392a <teavpn_server_tcp_handler+0x80a>
  4038d9:	48 6b eb 58          	imul   $0x58,%rbx,%rbp
  4038dd:	41 80 7c 2f 0f 00    	cmpb   $0x0,0xf(%r15,%rbp,1)
  4038e3:	74 eb                	je     4038d0 <teavpn_server_tcp_handler+0x7b0>
  4038e5:	4d 8d 24 2f          	lea    (%r15,%rbp,1),%r12
  4038e9:	49 83 c4 0f          	add    $0xf,%r12
  4038ed:	48 8d 3d 94 5b 00 00 	lea    0x5b94(%rip),%rdi        # 409488 <_IO_stdin_used+0x488>
  4038f4:	89 de                	mov    %ebx,%esi
  4038f6:	31 c0                	xor    %eax,%eax
  4038f8:	e8 b3 4c 00 00       	call   4085b0 <__pr_notice>
  4038fd:	41 80 3c 24 00       	cmpb   $0x0,(%r12)
  403902:	0f 84 c8 ff ff ff    	je     4038d0 <teavpn_server_tcp_handler+0x7b0>
  403908:	66 41 be 01 01       	mov    $0x101,%r14w
  40390d:	0f 1f 00             	nopl   (%rax)
  403910:	66 41 83 c6 ff       	add    $0xffff,%r14w
  403915:	74 88                	je     40389f <teavpn_server_tcp_handler+0x77f>
  403917:	bf 10 27 00 00       	mov    $0x2710,%edi
  40391c:	e8 8f e9 ff ff       	call   4022b0 <usleep@plt>
  403921:	41 80 3c 24 00       	cmpb   $0x0,(%r12)
  403926:	75 e8                	jne    403910 <teavpn_server_tcp_handler+0x7f0>
  403928:	eb a6                	jmp    4038d0 <teavpn_server_tcp_handler+0x7b0>
  40392a:	48 8b 44 24 40       	mov    0x40(%rsp),%rax
  40392f:	4c 8b 7c 24 48       	mov    0x48(%rsp),%r15
  403934:	44 8a 68 60          	mov    0x60(%rax),%r13b
  403938:	45 84 ed             	test   %r13b,%r13b
  40393b:	74 56                	je     403993 <teavpn_server_tcp_handler+0x873>
  40393d:	45 0f b6 e5          	movzbl %r13b,%r12d
  403941:	49 83 c7 30          	add    $0x30,%r15
  403945:	4c 8d 35 6d 5b 00 00 	lea    0x5b6d(%rip),%r14        # 4094b9 <_IO_stdin_used+0x4b9>
  40394c:	31 db                	xor    %ebx,%ebx
  40394e:	66 90                	xchg   %ax,%ax
  403950:	41 8b 6f d0          	mov    -0x30(%r15),%ebp
  403954:	83 fd ff             	cmp    $0xffffffff,%ebp
  403957:	74 15                	je     40396e <teavpn_server_tcp_handler+0x84e>
  403959:	4c 89 f7             	mov    %r14,%rdi
  40395c:	89 de                	mov    %ebx,%esi
  40395e:	89 ea                	mov    %ebp,%edx
  403960:	31 c0                	xor    %eax,%eax
  403962:	e8 49 4c 00 00       	call   4085b0 <__pr_notice>
  403967:	89 ef                	mov    %ebp,%edi
  403969:	e8 32 e7 ff ff       	call   4020a0 <close@plt>
  40396e:	41 80 7f e0 00       	cmpb   $0x0,-0x20(%r15)
  403973:	74 08                	je     40397d <teavpn_server_tcp_handler+0x85d>
  403975:	4c 89 ff             	mov    %r15,%rdi
  403978:	e8 23 eb ff ff       	call   4024a0 <pthread_mutex_destroy@plt>
  40397d:	49 8b 7f f0          	mov    -0x10(%r15),%rdi
  403981:	e8 7a e8 ff ff       	call   402200 <free@plt>
  403986:	48 83 c3 01          	add    $0x1,%rbx
  40398a:	49 83 c7 58          	add    $0x58,%r15
  40398e:	49 39 dc             	cmp    %rbx,%r12
  403991:	75 bd                	jne    403950 <teavpn_server_tcp_handler+0x830>
  403993:	bf 01 00 00 00       	mov    $0x1,%edi
  403998:	e8 f3 e8 ff ff       	call   402290 <sleep@plt>
  40399d:	8b 6c 24 20          	mov    0x20(%rsp),%ebp
  4039a1:	8b 5c 24 24          	mov    0x24(%rsp),%ebx
  4039a5:	83 fd ff             	cmp    $0xffffffff,%ebp
  4039a8:	74 17                	je     4039c1 <teavpn_server_tcp_handler+0x8a1>
  4039aa:	48 8d 3d 31 5b 00 00 	lea    0x5b31(%rip),%rdi        # 4094e2 <_IO_stdin_used+0x4e2>
  4039b1:	89 ee                	mov    %ebp,%esi
  4039b3:	31 c0                	xor    %eax,%eax
  4039b5:	e8 f6 4b 00 00       	call   4085b0 <__pr_notice>
  4039ba:	89 ef                	mov    %ebp,%edi
  4039bc:	e8 df e6 ff ff       	call   4020a0 <close@plt>
  4039c1:	83 fb ff             	cmp    $0xffffffff,%ebx
  4039c4:	8b 2c 24             	mov    (%rsp),%ebp
  4039c7:	74 17                	je     4039e0 <teavpn_server_tcp_handler+0x8c0>
  4039c9:	48 8d 3d 2d 5b 00 00 	lea    0x5b2d(%rip),%rdi        # 4094fd <_IO_stdin_used+0x4fd>
  4039d0:	89 de                	mov    %ebx,%esi
  4039d2:	31 c0                	xor    %eax,%eax
  4039d4:	e8 d7 4b 00 00       	call   4085b0 <__pr_notice>
  4039d9:	89 df                	mov    %ebx,%edi
  4039db:	e8 c0 e6 ff ff       	call   4020a0 <close@plt>
  4039e0:	48 8b 7c 24 38       	mov    0x38(%rsp),%rdi
  4039e5:	48 85 ff             	test   %rdi,%rdi
  4039e8:	74 05                	je     4039ef <teavpn_server_tcp_handler+0x8cf>
  4039ea:	e8 91 e6 ff ff       	call   402080 <SSL_CTX_free@plt>
  4039ef:	80 7c 24 11 00       	cmpb   $0x0,0x11(%rsp)
  4039f4:	74 05                	je     4039fb <teavpn_server_tcp_handler+0x8db>
  4039f6:	c6 44 24 11 00       	movb   $0x0,0x11(%rsp)
  4039fb:	48 8b 7c 24 48       	mov    0x48(%rsp),%rdi
  403a00:	e8 fb e7 ff ff       	call   402200 <free@plt>
  403a05:	48 8b 7c 24 50       	mov    0x50(%rsp),%rdi
  403a0a:	e8 f1 e7 ff ff       	call   402200 <free@plt>
  403a0f:	48 8b 7c 24 58       	mov    0x58(%rsp),%rdi
  403a14:	e8 e7 e7 ff ff       	call   402200 <free@plt>
  403a19:	48 8b 7c 24 60       	mov    0x60(%rsp),%rdi
  403a1e:	e8 dd e7 ff ff       	call   402200 <free@plt>
  403a23:	64 48 8b 04 25 28 00 	mov    %fs:0x28,%rax
  403a2a:	00 00 
  403a2c:	48 3b 84 24 60 41 00 	cmp    0x4160(%rsp),%rax
  403a33:	00 
  403a34:	0f 85 b8 02 00 00    	jne    403cf2 <teavpn_server_tcp_handler+0xbd2>
  403a3a:	89 e8                	mov    %ebp,%eax
  403a3c:	48 81 c4 68 41 00 00 	add    $0x4168,%rsp
  403a43:	5b                   	pop    %rbx
  403a44:	41 5c                	pop    %r12
  403a46:	41 5d                	pop    %r13
  403a48:	41 5e                	pop    %r14
  403a4a:	41 5f                	pop    %r15
  403a4c:	5d                   	pop    %rbp
  403a4d:	c3                   	ret    
  403a4e:	41 bd ff ff ff ff    	mov    $0xffffffff,%r13d
  403a54:	e9 fc fd ff ff       	jmp    403855 <teavpn_server_tcp_handler+0x735>
  403a59:	89 c3                	mov    %eax,%ebx
  403a5b:	f7 db                	neg    %ebx
  403a5d:	0f 4c d8             	cmovl  %eax,%ebx
  403a60:	89 df                	mov    %ebx,%edi
  403a62:	e8 59 e8 ff ff       	call   4022c0 <strerror@plt>
  403a67:	48 8d 3d b8 58 00 00 	lea    0x58b8(%rip),%rdi        # 409326 <_IO_stdin_used+0x326>
  403a6e:	eb 15                	jmp    403a85 <teavpn_server_tcp_handler+0x965>
  403a70:	89 c3                	mov    %eax,%ebx
  403a72:	f7 db                	neg    %ebx
  403a74:	0f 4c d8             	cmovl  %eax,%ebx
  403a77:	89 df                	mov    %ebx,%edi
  403a79:	e8 42 e8 ff ff       	call   4022c0 <strerror@plt>
  403a7e:	48 8d 3d c1 58 00 00 	lea    0x58c1(%rip),%rdi        # 409346 <_IO_stdin_used+0x346>
  403a85:	89 de                	mov    %ebx,%esi
  403a87:	48 89 c2             	mov    %rax,%rdx
  403a8a:	31 c0                	xor    %eax,%eax
  403a8c:	e8 1f 45 00 00       	call   407fb0 <__pr_error>
  403a91:	41 bd ff ff ff ff    	mov    $0xffffffff,%r13d
  403a97:	e9 b9 fd ff ff       	jmp    403855 <teavpn_server_tcp_handler+0x735>
  403a9c:	e8 ef e8 ff ff       	call   402390 <__errno_location@plt>
  403aa1:	8b 18                	mov    (%rax),%ebx
  403aa3:	89 df                	mov    %ebx,%edi
  403aa5:	e8 16 e8 ff ff       	call   4022c0 <strerror@plt>
  403aaa:	48 8d 3d 91 55 00 00 	lea    0x5591(%rip),%rdi        # 409042 <_IO_stdin_used+0x42>
  403ab1:	eb d2                	jmp    403a85 <teavpn_server_tcp_handler+0x965>
  403ab3:	48 8d 3d 66 55 00 00 	lea    0x5566(%rip),%rdi        # 409020 <_IO_stdin_used+0x20>
  403aba:	31 c0                	xor    %eax,%eax
  403abc:	e8 ef 44 00 00       	call   407fb0 <__pr_error>
  403ac1:	41 bd ff ff ff ff    	mov    $0xffffffff,%r13d
  403ac7:	e9 89 fd ff ff       	jmp    403855 <teavpn_server_tcp_handler+0x735>
  403acc:	48 8d 3d b3 55 00 00 	lea    0x55b3(%rip),%rdi        # 409086 <_IO_stdin_used+0x86>
  403ad3:	31 c0                	xor    %eax,%eax
  403ad5:	e8 d6 44 00 00       	call   407fb0 <__pr_error>
  403ada:	e9 a4 01 00 00       	jmp    403c83 <teavpn_server_tcp_handler+0xb63>
  403adf:	48 8d 3d ca 55 00 00 	lea    0x55ca(%rip),%rdi        # 4090b0 <_IO_stdin_used+0xb0>
  403ae6:	89 ee                	mov    %ebp,%esi
  403ae8:	ba fe ff 00 00       	mov    $0xfffe,%edx
  403aed:	31 c0                	xor    %eax,%eax
  403aef:	e8 bc 44 00 00       	call   407fb0 <__pr_error>
  403af4:	e9 8a 01 00 00       	jmp    403c83 <teavpn_server_tcp_handler+0xb63>
  403af9:	e8 92 e8 ff ff       	call   402390 <__errno_location@plt>
  403afe:	8b 18                	mov    (%rax),%ebx
  403b00:	89 df                	mov    %ebx,%edi
  403b02:	e8 b9 e7 ff ff       	call   4022c0 <strerror@plt>
  403b07:	48 8d 3d d2 55 00 00 	lea    0x55d2(%rip),%rdi        # 4090e0 <_IO_stdin_used+0xe0>
  403b0e:	e9 c9 00 00 00       	jmp    403bdc <teavpn_server_tcp_handler+0xabc>
  403b13:	bf 0e 00 00 00       	mov    $0xe,%edi
  403b18:	e8 a3 e7 ff ff       	call   4022c0 <strerror@plt>
  403b1d:	48 8d 3d e8 55 00 00 	lea    0x55e8(%rip),%rdi        # 40910c <_IO_stdin_used+0x10c>
  403b24:	eb 11                	jmp    403b37 <teavpn_server_tcp_handler+0xa17>
  403b26:	bf 0e 00 00 00       	mov    $0xe,%edi
  403b2b:	e8 90 e7 ff ff       	call   4022c0 <strerror@plt>
  403b30:	48 8d 3d fa 55 00 00 	lea    0x55fa(%rip),%rdi        # 409131 <_IO_stdin_used+0x131>
  403b37:	be 0e 00 00 00       	mov    $0xe,%esi
  403b3c:	48 89 c2             	mov    %rax,%rdx
  403b3f:	31 c0                	xor    %eax,%eax
  403b41:	e8 6a 44 00 00       	call   407fb0 <__pr_error>
  403b46:	eb 72                	jmp    403bba <teavpn_server_tcp_handler+0xa9a>
  403b48:	e8 13 e5 ff ff       	call   402060 <ERR_get_error@plt>
  403b4d:	49 89 c6             	mov    %rax,%r14
  403b50:	48 89 c7             	mov    %rax,%rdi
  403b53:	e8 c8 e9 ff ff       	call   402520 <ERR_lib_error_string@plt>
  403b58:	49 89 c7             	mov    %rax,%r15
  403b5b:	4c 89 f7             	mov    %r14,%rdi
  403b5e:	e8 9d e5 ff ff       	call   402100 <ERR_func_error_string@plt>
  403b63:	49 89 c4             	mov    %rax,%r12
  403b66:	4c 89 f7             	mov    %r14,%rdi
  403b69:	e8 c2 e4 ff ff       	call   402030 <ERR_reason_error_string@plt>
  403b6e:	48 8d 3d e5 55 00 00 	lea    0x55e5(%rip),%rdi        # 40915a <_IO_stdin_used+0x15a>
  403b75:	eb 2d                	jmp    403ba4 <teavpn_server_tcp_handler+0xa84>
  403b77:	e8 e4 e4 ff ff       	call   402060 <ERR_get_error@plt>
  403b7c:	49 89 c6             	mov    %rax,%r14
  403b7f:	48 89 c7             	mov    %rax,%rdi
  403b82:	e8 99 e9 ff ff       	call   402520 <ERR_lib_error_string@plt>
  403b87:	49 89 c7             	mov    %rax,%r15
  403b8a:	4c 89 f7             	mov    %r14,%rdi
  403b8d:	e8 6e e5 ff ff       	call   402100 <ERR_func_error_string@plt>
  403b92:	49 89 c4             	mov    %rax,%r12
  403b95:	4c 89 f7             	mov    %r14,%rdi
  403b98:	e8 93 e4 ff ff       	call   402030 <ERR_reason_error_string@plt>
  403b9d:	48 8d 3d ef 55 00 00 	lea    0x55ef(%rip),%rdi        # 409193 <_IO_stdin_used+0x193>
  403ba4:	48 89 de             	mov    %rbx,%rsi
  403ba7:	4c 89 f2             	mov    %r14,%rdx
  403baa:	4c 89 f9             	mov    %r15,%rcx
  403bad:	4d 89 e0             	mov    %r12,%r8
  403bb0:	49 89 c1             	mov    %rax,%r9
  403bb3:	31 c0                	xor    %eax,%eax
  403bb5:	e8 f6 43 00 00       	call   407fb0 <__pr_error>
  403bba:	48 89 ef             	mov    %rbp,%rdi
  403bbd:	e8 be e4 ff ff       	call   402080 <SSL_CTX_free@plt>
  403bc2:	e9 8e fc ff ff       	jmp    403855 <teavpn_server_tcp_handler+0x735>
  403bc7:	e8 c4 e7 ff ff       	call   402390 <__errno_location@plt>
  403bcc:	8b 18                	mov    (%rax),%ebx
  403bce:	89 df                	mov    %ebx,%edi
  403bd0:	e8 eb e6 ff ff       	call   4022c0 <strerror@plt>
  403bd5:	48 8d 3d 06 56 00 00 	lea    0x5606(%rip),%rdi        # 4091e2 <_IO_stdin_used+0x1e2>
  403bdc:	89 de                	mov    %ebx,%esi
  403bde:	48 89 c2             	mov    %rax,%rdx
  403be1:	31 c0                	xor    %eax,%eax
  403be3:	e8 c8 43 00 00       	call   407fb0 <__pr_error>
  403be8:	e9 68 fc ff ff       	jmp    403855 <teavpn_server_tcp_handler+0x735>
  403bed:	4c 8d 25 93 56 00 00 	lea    0x5693(%rip),%r12        # 409287 <_IO_stdin_used+0x287>
  403bf4:	4c 8d 35 80 56 00 00 	lea    0x5680(%rip),%r14        # 40927b <_IO_stdin_used+0x27b>
  403bfb:	eb 22                	jmp    403c1f <teavpn_server_tcp_handler+0xaff>
  403bfd:	4c 8d 25 8f 56 00 00 	lea    0x568f(%rip),%r12        # 409293 <_IO_stdin_used+0x293>
  403c04:	eb 19                	jmp    403c1f <teavpn_server_tcp_handler+0xaff>
  403c06:	4c 8d 25 92 56 00 00 	lea    0x5692(%rip),%r12        # 40929f <_IO_stdin_used+0x29f>
  403c0d:	eb 10                	jmp    403c1f <teavpn_server_tcp_handler+0xaff>
  403c0f:	4c 8d 25 98 56 00 00 	lea    0x5698(%rip),%r12        # 4092ae <_IO_stdin_used+0x2ae>
  403c16:	eb 07                	jmp    403c1f <teavpn_server_tcp_handler+0xaff>
  403c18:	4c 8d 25 9e 56 00 00 	lea    0x569e(%rip),%r12        # 4092bd <_IO_stdin_used+0x2bd>
  403c1f:	e8 6c e7 ff ff       	call   402390 <__errno_location@plt>
  403c24:	44 8b 38             	mov    (%rax),%r15d
  403c27:	44 89 ff             	mov    %r15d,%edi
  403c2a:	e8 91 e6 ff ff       	call   4022c0 <strerror@plt>
  403c2f:	48 8d 3d a4 56 00 00 	lea    0x56a4(%rip),%rdi        # 4092da <_IO_stdin_used+0x2da>
  403c36:	4c 89 f6             	mov    %r14,%rsi
  403c39:	4c 89 e2             	mov    %r12,%rdx
  403c3c:	44 89 f9             	mov    %r15d,%ecx
  403c3f:	49 89 c0             	mov    %rax,%r8
  403c42:	31 c0                	xor    %eax,%eax
  403c44:	e8 67 43 00 00       	call   407fb0 <__pr_error>
  403c49:	eb 38                	jmp    403c83 <teavpn_server_tcp_handler+0xb63>
  403c4b:	e8 40 e7 ff ff       	call   402390 <__errno_location@plt>
  403c50:	8b 18                	mov    (%rax),%ebx
  403c52:	89 df                	mov    %ebx,%edi
  403c54:	e8 67 e6 ff ff       	call   4022c0 <strerror@plt>
  403c59:	48 8d 3d bf 55 00 00 	lea    0x55bf(%rip),%rdi        # 40921f <_IO_stdin_used+0x21f>
  403c60:	eb 15                	jmp    403c77 <teavpn_server_tcp_handler+0xb57>
  403c62:	e8 29 e7 ff ff       	call   402390 <__errno_location@plt>
  403c67:	8b 18                	mov    (%rax),%ebx
  403c69:	89 df                	mov    %ebx,%edi
  403c6b:	e8 50 e6 ff ff       	call   4022c0 <strerror@plt>
  403c70:	48 8d 3d be 55 00 00 	lea    0x55be(%rip),%rdi        # 409235 <_IO_stdin_used+0x235>
  403c77:	89 de                	mov    %ebx,%esi
  403c79:	48 89 c2             	mov    %rax,%rdx
  403c7c:	31 c0                	xor    %eax,%eax
  403c7e:	e8 2d 43 00 00       	call   407fb0 <__pr_error>
  403c83:	89 ef                	mov    %ebp,%edi
  403c85:	e8 16 e4 ff ff       	call   4020a0 <close@plt>
  403c8a:	e9 c6 fb ff ff       	jmp    403855 <teavpn_server_tcp_handler+0x735>
  403c8f:	e8 fc e6 ff ff       	call   402390 <__errno_location@plt>
  403c94:	8b 18                	mov    (%rax),%ebx
  403c96:	89 df                	mov    %ebx,%edi
  403c98:	e8 23 e6 ff ff       	call   4022c0 <strerror@plt>
  403c9d:	48 8d 3d 9e 53 00 00 	lea    0x539e(%rip),%rdi        # 409042 <_IO_stdin_used+0x42>
  403ca4:	89 de                	mov    %ebx,%esi
  403ca6:	48 89 c2             	mov    %rax,%rdx
  403ca9:	31 c0                	xor    %eax,%eax
  403cab:	e8 00 43 00 00       	call   407fb0 <__pr_error>
  403cb0:	41 bd f4 ff ff ff    	mov    $0xfffffff4,%r13d
  403cb6:	e9 9a fb ff ff       	jmp    403855 <teavpn_server_tcp_handler+0x735>
  403cbb:	e8 d0 e6 ff ff       	call   402390 <__errno_location@plt>
  403cc0:	44 8b 30             	mov    (%rax),%r14d
  403cc3:	44 89 f7             	mov    %r14d,%edi
  403cc6:	e8 f5 e5 ff ff       	call   4022c0 <strerror@plt>
  403ccb:	48 8d 3d 08 56 00 00 	lea    0x5608(%rip),%rdi        # 4092da <_IO_stdin_used+0x2da>
  403cd2:	48 8d 35 8a 55 00 00 	lea    0x558a(%rip),%rsi        # 409263 <_IO_stdin_used+0x263>
  403cd9:	48 8d 15 ea 55 00 00 	lea    0x55ea(%rip),%rdx        # 4092ca <_IO_stdin_used+0x2ca>
  403ce0:	44 89 f1             	mov    %r14d,%ecx
  403ce3:	49 89 c0             	mov    %rax,%r8
  403ce6:	31 c0                	xor    %eax,%eax
  403ce8:	e8 c3 42 00 00       	call   407fb0 <__pr_error>
  403ced:	e9 fb f9 ff ff       	jmp    4036ed <teavpn_server_tcp_handler+0x5cd>
  403cf2:	e8 a9 e6 ff ff       	call   4023a0 <__stack_chk_fail@plt>
  403cf7:	66 0f 1f 84 00 00 00 	nopw   0x0(%rax,%rax,1)
  403cfe:	00 00 

0000000000403d00 <handle_interrupt>:
  403d00:	48 8b 05 41 a6 00 00 	mov    0xa641(%rip),%rax        # 40e348 <g_state>
  403d07:	80 38 00             	cmpb   $0x0,(%rax)
  403d0a:	75 1d                	jne    403d29 <handle_interrupt+0x29>
  403d0c:	89 b8 ac 00 00 00    	mov    %edi,0xac(%rax)
  403d12:	c6 00 01             	movb   $0x1,(%rax)
  403d15:	48 8b 05 d4 a2 00 00 	mov    0xa2d4(%rip),%rax        # 40dff0 <stdout@GLIBC_2.2.5>
  403d1c:	48 8b 30             	mov    (%rax),%rsi
  403d1f:	bf 0a 00 00 00       	mov    $0xa,%edi
  403d24:	e9 f7 e5 ff ff       	jmp    402320 <putc@plt>
  403d29:	c3                   	ret    
  403d2a:	66 0f 1f 44 00 00    	nopw   0x0(%rax,%rax,1)

0000000000403d30 <init_thread_state>:
  403d30:	55                   	push   %rbp
  403d31:	41 57                	push   %r15
  403d33:	41 56                	push   %r14
  403d35:	53                   	push   %rbx
  403d36:	48 83 ec 18          	sub    $0x18,%rsp
  403d3a:	49 89 d6             	mov    %rdx,%r14
  403d3d:	48 89 f3             	mov    %rsi,%rbx
  403d40:	41 89 ff             	mov    %edi,%r15d
  403d43:	64 48 8b 04 25 28 00 	mov    %fs:0x28,%rax
  403d4a:	00 00 
  403d4c:	48 89 44 24 10       	mov    %rax,0x10(%rsp)
  403d51:	48 8b 42 30          	mov    0x30(%rdx),%rax
  403d55:	0f b7 78 5a          	movzwl 0x5a(%rax),%edi
  403d59:	83 c7 03             	add    $0x3,%edi
  403d5c:	e8 7f e3 ff ff       	call   4020e0 <epoll_create@plt>
  403d61:	85 c0                	test   %eax,%eax
  403d63:	0f 88 bf 00 00 00    	js     403e28 <init_thread_state+0xf8>
  403d69:	89 c5                	mov    %eax,%ebp
  403d6b:	45 84 ff             	test   %r15b,%r15b
  403d6e:	75 5c                	jne    403dcc <init_thread_state+0x9c>
  403d70:	41 8b 56 10          	mov    0x10(%r14),%edx
  403d74:	c7 44 24 08 00 00 00 	movl   $0x0,0x8(%rsp)
  403d7b:	00 
  403d7c:	c7 04 24 03 00 00 00 	movl   $0x3,(%rsp)
  403d83:	89 54 24 04          	mov    %edx,0x4(%rsp)
  403d87:	48 89 e1             	mov    %rsp,%rcx
  403d8a:	89 ef                	mov    %ebp,%edi
  403d8c:	be 01 00 00 00       	mov    $0x1,%esi
  403d91:	e8 3a e5 ff ff       	call   4022d0 <epoll_ctl@plt>
  403d96:	85 c0                	test   %eax,%eax
  403d98:	0f 88 c6 00 00 00    	js     403e64 <init_thread_state+0x134>
  403d9e:	41 8b 56 14          	mov    0x14(%r14),%edx
  403da2:	c7 44 24 08 00 00 00 	movl   $0x0,0x8(%rsp)
  403da9:	00 
  403daa:	c7 04 24 03 00 00 00 	movl   $0x3,(%rsp)
  403db1:	89 54 24 04          	mov    %edx,0x4(%rsp)
  403db5:	48 89 e1             	mov    %rsp,%rcx
  403db8:	89 ef                	mov    %ebp,%edi
  403dba:	be 01 00 00 00       	mov    $0x1,%esi
  403dbf:	e8 0c e5 ff ff       	call   4022d0 <epoll_ctl@plt>
  403dc4:	85 c0                	test   %eax,%eax
  403dc6:	0f 88 98 00 00 00    	js     403e64 <init_thread_state+0x134>
  403dcc:	66 c7 43 0c 00 00    	movw   $0x0,0xc(%rbx)
  403dd2:	48 b8 f4 01 00 00 64 	movabs $0x64000001f4,%rax
  403dd9:	00 00 00 
  403ddc:	48 89 43 04          	mov    %rax,0x4(%rbx)
  403de0:	89 2b                	mov    %ebp,(%rbx)
  403de2:	44 88 7b 0e          	mov    %r15b,0xe(%rbx)
  403de6:	c6 43 0f 00          	movb   $0x0,0xf(%rbx)
  403dea:	48 c7 43 20 00 00 00 	movq   $0x0,0x20(%rbx)
  403df1:	00 
  403df2:	4c 89 73 18          	mov    %r14,0x18(%rbx)
  403df6:	48 8d 7b 30          	lea    0x30(%rbx),%rdi
  403dfa:	31 ed                	xor    %ebp,%ebp
  403dfc:	31 f6                	xor    %esi,%esi
  403dfe:	e8 cd e3 ff ff       	call   4021d0 <pthread_mutex_init@plt>
  403e03:	85 c0                	test   %eax,%eax
  403e05:	75 38                	jne    403e3f <init_thread_state+0x10f>
  403e07:	c6 43 10 01          	movb   $0x1,0x10(%rbx)
  403e0b:	64 48 8b 04 25 28 00 	mov    %fs:0x28,%rax
  403e12:	00 00 
  403e14:	48 3b 44 24 10       	cmp    0x10(%rsp),%rax
  403e19:	75 74                	jne    403e8f <init_thread_state+0x15f>
  403e1b:	89 e8                	mov    %ebp,%eax
  403e1d:	48 83 c4 18          	add    $0x18,%rsp
  403e21:	5b                   	pop    %rbx
  403e22:	41 5e                	pop    %r14
  403e24:	41 5f                	pop    %r15
  403e26:	5d                   	pop    %rbp
  403e27:	c3                   	ret    
  403e28:	e8 63 e5 ff ff       	call   402390 <__errno_location@plt>
  403e2d:	8b 18                	mov    (%rax),%ebx
  403e2f:	89 df                	mov    %ebx,%edi
  403e31:	e8 8a e4 ff ff       	call   4022c0 <strerror@plt>
  403e36:	48 8d 3d 4d 55 00 00 	lea    0x554d(%rip),%rdi        # 40938a <_IO_stdin_used+0x38a>
  403e3d:	eb 3a                	jmp    403e79 <init_thread_state+0x149>
  403e3f:	89 c5                	mov    %eax,%ebp
  403e41:	f7 dd                	neg    %ebp
  403e43:	0f 4c e8             	cmovl  %eax,%ebp
  403e46:	89 ef                	mov    %ebp,%edi
  403e48:	e8 73 e4 ff ff       	call   4022c0 <strerror@plt>
  403e4d:	48 8d 3d 12 55 00 00 	lea    0x5512(%rip),%rdi        # 409366 <_IO_stdin_used+0x366>
  403e54:	89 ee                	mov    %ebp,%esi
  403e56:	48 89 c2             	mov    %rax,%rdx
  403e59:	31 c0                	xor    %eax,%eax
  403e5b:	e8 50 41 00 00       	call   407fb0 <__pr_error>
  403e60:	f7 dd                	neg    %ebp
  403e62:	eb a7                	jmp    403e0b <init_thread_state+0xdb>
  403e64:	e8 27 e5 ff ff       	call   402390 <__errno_location@plt>
  403e69:	8b 18                	mov    (%rax),%ebx
  403e6b:	89 df                	mov    %ebx,%edi
  403e6d:	e8 4e e4 ff ff       	call   4022c0 <strerror@plt>
  403e72:	48 8d 3d 2f 55 00 00 	lea    0x552f(%rip),%rdi        # 4093a8 <_IO_stdin_used+0x3a8>
  403e79:	89 de                	mov    %ebx,%esi
  403e7b:	48 89 c2             	mov    %rax,%rdx
  403e7e:	31 c0                	xor    %eax,%eax
  403e80:	e8 2b 41 00 00       	call   407fb0 <__pr_error>
  403e85:	bd ff ff ff ff       	mov    $0xffffffff,%ebp
  403e8a:	e9 7c ff ff ff       	jmp    403e0b <init_thread_state+0xdb>
  403e8f:	e8 0c e5 ff ff       	call   4023a0 <__stack_chk_fail@plt>
  403e94:	66 2e 0f 1f 84 00 00 	cs nopw 0x0(%rax,%rax,1)
  403e9b:	00 00 00 
  403e9e:	66 90                	xchg   %ax,%ax

0000000000403ea0 <event_loop>:
  403ea0:	55                   	push   %rbp
  403ea1:	41 57                	push   %r15
  403ea3:	41 56                	push   %r14
  403ea5:	41 55                	push   %r13
  403ea7:	41 54                	push   %r12
  403ea9:	53                   	push   %rbx
  403eaa:	48 83 ec 18          	sub    $0x18,%rsp
  403eae:	48 89 fb             	mov    %rdi,%rbx
  403eb1:	4c 8b 7f 18          	mov    0x18(%rdi),%r15
  403eb5:	8b 07                	mov    (%rdi),%eax
  403eb7:	89 04 24             	mov    %eax,(%rsp)
  403eba:	8b 47 04             	mov    0x4(%rdi),%eax
  403ebd:	89 44 24 04          	mov    %eax,0x4(%rsp)
  403ec1:	4c 63 77 08          	movslq 0x8(%rdi),%r14
  403ec5:	be 0c 00 00 00       	mov    $0xc,%esi
  403eca:	4c 89 f7             	mov    %r14,%rdi
  403ecd:	e8 4e e5 ff ff       	call   402420 <calloc@plt>
  403ed2:	48 85 c0             	test   %rax,%rax
  403ed5:	48 89 5c 24 08       	mov    %rbx,0x8(%rsp)
  403eda:	0f 84 46 01 00 00    	je     404026 <event_loop+0x186>
  403ee0:	48 89 c5             	mov    %rax,%rbp
  403ee3:	48 89 43 20          	mov    %rax,0x20(%rbx)
  403ee7:	4c 89 74 24 10       	mov    %r14,0x10(%rsp)
  403eec:	4a 8d 04 b5 00 00 00 	lea    0x0(,%r14,4),%rax
  403ef3:	00 
  403ef4:	48 8d 14 40          	lea    (%rax,%rax,2),%rdx
  403ef8:	48 89 ef             	mov    %rbp,%rdi
  403efb:	31 f6                	xor    %esi,%esi
  403efd:	e8 4e e1 ff ff       	call   402050 <memset@plt>
  403f02:	c6 43 0f 01          	movb   $0x1,0xf(%rbx)
  403f06:	41 80 3f 01          	cmpb   $0x1,(%r15)
  403f0a:	0f 84 dd 00 00 00    	je     403fed <event_loop+0x14d>
  403f10:	49 8d 9f 34 01 00 00 	lea    0x134(%r15),%rbx
  403f17:	8b 3c 24             	mov    (%rsp),%edi
  403f1a:	48 89 ee             	mov    %rbp,%rsi
  403f1d:	48 8b 54 24 10       	mov    0x10(%rsp),%rdx
  403f22:	8b 4c 24 04          	mov    0x4(%rsp),%ecx
  403f26:	e8 b5 e4 ff ff       	call   4023e0 <epoll_wait@plt>
  403f2b:	85 c0                	test   %eax,%eax
  403f2d:	0f 84 a0 00 00 00    	je     403fd3 <event_loop+0x133>
  403f33:	0f 88 7a 00 00 00    	js     403fb3 <event_loop+0x113>
  403f39:	89 c0                	mov    %eax,%eax
  403f3b:	48 c1 e0 02          	shl    $0x2,%rax
  403f3f:	4c 8d 24 40          	lea    (%rax,%rax,2),%r12
  403f43:	45 31 ed             	xor    %r13d,%r13d
  403f46:	e9 17 00 00 00       	jmp    403f62 <event_loop+0xc2>
  403f4b:	0f 1f 44 00 00       	nopl   0x0(%rax,%rax,1)
  403f50:	66 85 c0             	test   %ax,%ax
  403f53:	0f 84 86 00 00 00    	je     403fdf <event_loop+0x13f>
  403f59:	49 83 c5 0c          	add    $0xc,%r13
  403f5d:	4d 39 ec             	cmp    %r13,%r12
  403f60:	74 71                	je     403fd3 <event_loop+0x133>
  403f62:	49 8b 47 48          	mov    0x48(%r15),%rax
  403f66:	4e 63 74 2d 04       	movslq 0x4(%rbp,%r13,1),%r14
  403f6b:	42 0f b7 04 70       	movzwl (%rax,%r14,2),%eax
  403f70:	66 83 f8 02          	cmp    $0x2,%ax
  403f74:	75 da                	jne    403f50 <event_loop+0xb0>
  403f76:	42 f6 44 2d 00 18    	testb  $0x18,0x0(%rbp,%r13,1)
  403f7c:	0f 85 9b 00 00 00    	jne    40401d <event_loop+0x17d>
  403f82:	41 83 47 08 01       	addl   $0x1,0x8(%r15)
  403f87:	ba 00 10 00 00       	mov    $0x1000,%edx
  403f8c:	44 89 f7             	mov    %r14d,%edi
  403f8f:	48 89 de             	mov    %rbx,%rsi
  403f92:	e8 a9 e1 ff ff       	call   402140 <read@plt>
  403f97:	48 85 c0             	test   %rax,%rax
  403f9a:	78 06                	js     403fa2 <event_loop+0x102>
  403f9c:	85 c0                	test   %eax,%eax
  403f9e:	79 b9                	jns    403f59 <event_loop+0xb9>
  403fa0:	eb 4b                	jmp    403fed <event_loop+0x14d>
  403fa2:	e8 e9 e3 ff ff       	call   402390 <__errno_location@plt>
  403fa7:	8b 00                	mov    (%rax),%eax
  403fa9:	83 f8 0b             	cmp    $0xb,%eax
  403fac:	74 ab                	je     403f59 <event_loop+0xb9>
  403fae:	e9 96 00 00 00       	jmp    404049 <event_loop+0x1a9>
  403fb3:	e8 d8 e3 ff ff       	call   402390 <__errno_location@plt>
  403fb8:	44 8b 30             	mov    (%rax),%r14d
  403fbb:	41 83 fe 04          	cmp    $0x4,%r14d
  403fbf:	0f 85 a5 00 00 00    	jne    40406a <event_loop+0x1ca>
  403fc5:	48 8d 3d 1c 54 00 00 	lea    0x541c(%rip),%rdi        # 4093e8 <_IO_stdin_used+0x3e8>
  403fcc:	31 c0                	xor    %eax,%eax
  403fce:	e8 dd 45 00 00       	call   4085b0 <__pr_notice>
  403fd3:	41 80 3f 01          	cmpb   $0x1,(%r15)
  403fd7:	0f 85 3a ff ff ff    	jne    403f17 <event_loop+0x77>
  403fdd:	eb 0e                	jmp    403fed <event_loop+0x14d>
  403fdf:	48 8d 3d 2c 54 00 00 	lea    0x542c(%rip),%rdi        # 409412 <_IO_stdin_used+0x412>
  403fe6:	31 c0                	xor    %eax,%eax
  403fe8:	e8 c3 3f 00 00       	call   407fb0 <__pr_error>
  403fed:	41 c6 07 01          	movb   $0x1,(%r15)
  403ff1:	48 8b 5c 24 08       	mov    0x8(%rsp),%rbx
  403ff6:	0f b6 73 0e          	movzbl 0xe(%rbx),%esi
  403ffa:	48 8d 3d cf 53 00 00 	lea    0x53cf(%rip),%rdi        # 4093d0 <_IO_stdin_used+0x3d0>
  404001:	31 c0                	xor    %eax,%eax
  404003:	e8 a8 45 00 00       	call   4085b0 <__pr_notice>
  404008:	c6 43 0f 00          	movb   $0x0,0xf(%rbx)
  40400c:	31 c0                	xor    %eax,%eax
  40400e:	48 83 c4 18          	add    $0x18,%rsp
  404012:	5b                   	pop    %rbx
  404013:	41 5c                	pop    %r12
  404015:	41 5d                	pop    %r13
  404017:	41 5e                	pop    %r14
  404019:	41 5f                	pop    %r15
  40401b:	5d                   	pop    %rbp
  40401c:	c3                   	ret    
  40401d:	48 8d 3d 11 54 00 00 	lea    0x5411(%rip),%rdi        # 409435 <_IO_stdin_used+0x435>
  404024:	eb c0                	jmp    403fe6 <event_loop+0x146>
  404026:	e8 65 e3 ff ff       	call   402390 <__errno_location@plt>
  40402b:	8b 18                	mov    (%rax),%ebx
  40402d:	89 df                	mov    %ebx,%edi
  40402f:	e8 8c e2 ff ff       	call   4022c0 <strerror@plt>
  404034:	48 8d 3d 07 50 00 00 	lea    0x5007(%rip),%rdi        # 409042 <_IO_stdin_used+0x42>
  40403b:	89 de                	mov    %ebx,%esi
  40403d:	48 89 c2             	mov    %rax,%rdx
  404040:	31 c0                	xor    %eax,%eax
  404042:	e8 69 3f 00 00       	call   407fb0 <__pr_error>
  404047:	eb a4                	jmp    403fed <event_loop+0x14d>
  404049:	89 c3                	mov    %eax,%ebx
  40404b:	89 c7                	mov    %eax,%edi
  40404d:	e8 6e e2 ff ff       	call   4022c0 <strerror@plt>
  404052:	48 8d 3d ea 53 00 00 	lea    0x53ea(%rip),%rdi        # 409443 <_IO_stdin_used+0x443>
  404059:	44 89 f6             	mov    %r14d,%esi
  40405c:	89 da                	mov    %ebx,%edx
  40405e:	48 89 c1             	mov    %rax,%rcx
  404061:	31 c0                	xor    %eax,%eax
  404063:	e8 48 3f 00 00       	call   407fb0 <__pr_error>
  404068:	eb 83                	jmp    403fed <event_loop+0x14d>
  40406a:	44 89 f7             	mov    %r14d,%edi
  40406d:	e8 4e e2 ff ff       	call   4022c0 <strerror@plt>
  404072:	48 8d 3d 7c 53 00 00 	lea    0x537c(%rip),%rdi        # 4093f5 <_IO_stdin_used+0x3f5>
  404079:	8b 34 24             	mov    (%rsp),%esi
  40407c:	44 89 f2             	mov    %r14d,%edx
  40407f:	eb dd                	jmp    40405e <event_loop+0x1be>
  404081:	66 2e 0f 1f 84 00 00 	cs nopw 0x0(%rax,%rax,1)
  404088:	00 00 00 
  40408b:	0f 1f 44 00 00       	nopl   0x0(%rax,%rax,1)

0000000000404090 <teavpn_server_argv_parse>:
  404090:	55                   	push   %rbp
  404091:	41 57                	push   %r15
  404093:	41 56                	push   %r14
  404095:	41 55                	push   %r13
  404097:	41 54                	push   %r12
  404099:	53                   	push   %rbx
  40409a:	48 83 ec 28          	sub    $0x28,%rsp
  40409e:	48 89 d3             	mov    %rdx,%rbx
  4040a1:	49 89 f6             	mov    %rsi,%r14
  4040a4:	89 fd                	mov    %edi,%ebp
  4040a6:	64 48 8b 04 25 28 00 	mov    %fs:0x28,%rax
  4040ad:	00 00 
  4040af:	48 89 44 24 20       	mov    %rax,0x20(%rsp)
  4040b4:	48 8b 06             	mov    (%rsi),%rax
  4040b7:	48 89 44 24 08       	mov    %rax,0x8(%rsp)
  4040bc:	48 8d 05 fd a1 00 00 	lea    0xa1fd(%rip),%rax        # 40e2c0 <d_srv_cfg_file>
  4040c3:	48 89 02             	mov    %rax,(%rdx)
  4040c6:	48 c7 42 08 00 00 00 	movq   $0x0,0x8(%rdx)
  4040cd:	00 
  4040ce:	8a 05 fe a1 00 00    	mov    0xa1fe(%rip),%al        # 40e2d2 <d_num_of_threads>
  4040d4:	88 42 60             	mov    %al,0x60(%rdx)
  4040d7:	0f b7 05 f6 a1 00 00 	movzwl 0xa1f6(%rip),%eax        # 40e2d4 <d_srv_mtu>
  4040de:	66 89 42 10          	mov    %ax,0x10(%rdx)
  4040e2:	48 8d 05 ed a1 00 00 	lea    0xa1ed(%rip),%rax        # 40e2d6 <d_srv_dev>
  4040e9:	48 89 42 18          	mov    %rax,0x18(%rdx)
  4040ed:	48 8d 05 ea a1 00 00 	lea    0xa1ea(%rip),%rax        # 40e2de <d_srv_ipv4>
  4040f4:	48 89 42 20          	mov    %rax,0x20(%rdx)
  4040f8:	48 8d 05 e8 a1 00 00 	lea    0xa1e8(%rip),%rax        # 40e2e7 <d_srv_ipv4_netmask>
  4040ff:	48 89 42 28          	mov    %rax,0x28(%rdx)
  404103:	8b 05 47 a2 00 00    	mov    0xa247(%rip),%eax        # 40e350 <d_srv_sock_type>
  404109:	89 42 30             	mov    %eax,0x30(%rdx)
  40410c:	48 8d 05 e2 a1 00 00 	lea    0xa1e2(%rip),%rax        # 40e2f5 <d_srv_bind_addr>
  404113:	48 89 42 50          	mov    %rax,0x50(%rdx)
  404117:	0f b7 05 e0 a1 00 00 	movzwl 0xa1e0(%rip),%eax        # 40e2fe <d_srv_bind_port>
  40411e:	66 89 42 58          	mov    %ax,0x58(%rdx)
  404122:	0f b7 05 d7 a1 00 00 	movzwl 0xa1d7(%rip),%eax        # 40e300 <d_srv_max_conn>
  404129:	66 89 42 5a          	mov    %ax,0x5a(%rdx)
  40412d:	8b 05 d1 a1 00 00    	mov    0xa1d1(%rip),%eax        # 40e304 <d_srv_backlog>
  404133:	89 42 5c             	mov    %eax,0x5c(%rdx)
  404136:	48 8d 42 38          	lea    0x38(%rdx),%rax
  40413a:	48 89 44 24 10       	mov    %rax,0x10(%rsp)
  40413f:	0f 57 c0             	xorps  %xmm0,%xmm0
  404142:	0f 11 42 38          	movups %xmm0,0x38(%rdx)
  404146:	83 c5 ff             	add    $0xffffffff,%ebp
  404149:	49 83 c6 08          	add    $0x8,%r14
  40414d:	4c 8d 2d ec 98 00 00 	lea    0x98ec(%rip),%r13        # 40da40 <long_opt>
  404154:	4c 8d 7c 24 1c       	lea    0x1c(%rsp),%r15
  404159:	4c 8d 25 c0 53 00 00 	lea    0x53c0(%rip),%r12        # 409520 <_IO_stdin_used+0x520>
  404160:	c7 44 24 1c 00 00 00 	movl   $0x0,0x1c(%rsp)
  404167:	00 
  404168:	89 ef                	mov    %ebp,%edi
  40416a:	4c 89 f6             	mov    %r14,%rsi
  40416d:	48 8d 15 8c 55 00 00 	lea    0x558c(%rip),%rdx        # 409700 <short_opt>
  404174:	4c 89 e9             	mov    %r13,%rcx
  404177:	4d 89 f8             	mov    %r15,%r8
  40417a:	e8 e1 e1 ff ff       	call   402360 <getopt_long@plt>
  40417f:	83 c0 01             	add    $0x1,%eax
  404182:	83 f8 77             	cmp    $0x77,%eax
  404185:	0f 87 2d 02 00 00    	ja     4043b8 <teavpn_server_argv_parse+0x328>
  40418b:	49 63 04 84          	movslq (%r12,%rax,4),%rax
  40418f:	4c 01 e0             	add    %r12,%rax
  404192:	ff e0                	jmp    *%rax
  404194:	48 8b 05 4d 9e 00 00 	mov    0x9e4d(%rip),%rax        # 40dfe8 <optarg@GLIBC_2.2.5>
  40419b:	48 8b 38             	mov    (%rax),%rdi
  40419e:	be 20 00 00 00       	mov    $0x20,%esi
  4041a3:	e8 08 2f 00 00       	call   4070b0 <trunc_str>
  4041a8:	48 89 43 20          	mov    %rax,0x20(%rbx)
  4041ac:	eb b2                	jmp    404160 <teavpn_server_argv_parse+0xd0>
  4041ae:	48 8b 05 33 9e 00 00 	mov    0x9e33(%rip),%rax        # 40dfe8 <optarg@GLIBC_2.2.5>
  4041b5:	48 8b 38             	mov    (%rax),%rdi
  4041b8:	be 20 00 00 00       	mov    $0x20,%esi
  4041bd:	e8 ee 2e 00 00       	call   4070b0 <trunc_str>
  4041c2:	48 89 43 18          	mov    %rax,0x18(%rbx)
  4041c6:	eb 98                	jmp    404160 <teavpn_server_argv_parse+0xd0>
  4041c8:	48 8b 05 19 9e 00 00 	mov    0x9e19(%rip),%rax        # 40dfe8 <optarg@GLIBC_2.2.5>
  4041cf:	48 8b 38             	mov    (%rax),%rdi
  4041d2:	31 f6                	xor    %esi,%esi
  4041d4:	ba 0a 00 00 00       	mov    $0xa,%edx
  4041d9:	e8 12 e1 ff ff       	call   4022f0 <strtol@plt>
  4041de:	88 43 60             	mov    %al,0x60(%rbx)
  4041e1:	e9 7a ff ff ff       	jmp    404160 <teavpn_server_argv_parse+0xd0>
  4041e6:	c7 44 24 18 00 00 00 	movl   $0x0,0x18(%rsp)
  4041ed:	00 
  4041ee:	48 8b 05 f3 9d 00 00 	mov    0x9df3(%rip),%rax        # 40dfe8 <optarg@GLIBC_2.2.5>
  4041f5:	48 8b 30             	mov    (%rax),%rsi
  4041f8:	ba 03 00 00 00       	mov    $0x3,%edx
  4041fd:	48 8d 7c 24 18       	lea    0x18(%rsp),%rdi
  404202:	e8 39 e2 ff ff       	call   402440 <strncpy@plt>
  404207:	c6 44 24 1b 00       	movb   $0x0,0x1b(%rsp)
  40420c:	81 4c 24 18 20 20 20 	orl    $0x20202020,0x18(%rsp)
  404213:	20 
  404214:	c6 44 24 1b 00       	movb   $0x0,0x1b(%rsp)
  404219:	31 c0                	xor    %eax,%eax
  40421b:	8b 4c 24 18          	mov    0x18(%rsp),%ecx
  40421f:	81 f9 74 63 70 00    	cmp    $0x706374,%ecx
  404225:	74 11                	je     404238 <teavpn_server_argv_parse+0x1a8>
  404227:	81 f9 75 64 70 00    	cmp    $0x706475,%ecx
  40422d:	0f 85 6d 01 00 00    	jne    4043a0 <teavpn_server_argv_parse+0x310>
  404233:	b8 01 00 00 00       	mov    $0x1,%eax
  404238:	89 43 30             	mov    %eax,0x30(%rbx)
  40423b:	e9 20 ff ff ff       	jmp    404160 <teavpn_server_argv_parse+0xd0>
  404240:	48 8b 05 a1 9d 00 00 	mov    0x9da1(%rip),%rax        # 40dfe8 <optarg@GLIBC_2.2.5>
  404247:	48 8b 38             	mov    (%rax),%rdi
  40424a:	be ff 00 00 00       	mov    $0xff,%esi
  40424f:	e8 5c 2e 00 00       	call   4070b0 <trunc_str>
  404254:	48 89 43 08          	mov    %rax,0x8(%rbx)
  404258:	e9 03 ff ff ff       	jmp    404160 <teavpn_server_argv_parse+0xd0>
  40425d:	48 8b 05 84 9d 00 00 	mov    0x9d84(%rip),%rax        # 40dfe8 <optarg@GLIBC_2.2.5>
  404264:	48 8b 38             	mov    (%rax),%rdi
  404267:	be ff 00 00 00       	mov    $0xff,%esi
  40426c:	e8 3f 2e 00 00       	call   4070b0 <trunc_str>
  404271:	48 89 43 50          	mov    %rax,0x50(%rbx)
  404275:	e9 e6 fe ff ff       	jmp    404160 <teavpn_server_argv_parse+0xd0>
  40427a:	48 8b 05 67 9d 00 00 	mov    0x9d67(%rip),%rax        # 40dfe8 <optarg@GLIBC_2.2.5>
  404281:	48 8b 38             	mov    (%rax),%rdi
  404284:	be 06 00 00 00       	mov    $0x6,%esi
  404289:	e8 22 2e 00 00       	call   4070b0 <trunc_str>
  40428e:	48 89 c7             	mov    %rax,%rdi
  404291:	31 f6                	xor    %esi,%esi
  404293:	ba 0a 00 00 00       	mov    $0xa,%edx
  404298:	e8 53 e0 ff ff       	call   4022f0 <strtol@plt>
  40429d:	66 89 43 5a          	mov    %ax,0x5a(%rbx)
  4042a1:	e9 ba fe ff ff       	jmp    404160 <teavpn_server_argv_parse+0xd0>
  4042a6:	48 8b 05 3b 9d 00 00 	mov    0x9d3b(%rip),%rax        # 40dfe8 <optarg@GLIBC_2.2.5>
  4042ad:	48 8b 38             	mov    (%rax),%rdi
  4042b0:	be 20 00 00 00       	mov    $0x20,%esi
  4042b5:	e8 f6 2d 00 00       	call   4070b0 <trunc_str>
  4042ba:	48 89 43 28          	mov    %rax,0x28(%rbx)
  4042be:	e9 9d fe ff ff       	jmp    404160 <teavpn_server_argv_parse+0xd0>
  4042c3:	48 8b 05 1e 9d 00 00 	mov    0x9d1e(%rip),%rax        # 40dfe8 <optarg@GLIBC_2.2.5>
  4042ca:	48 8b 38             	mov    (%rax),%rdi
  4042cd:	be 00 02 00 00       	mov    $0x200,%esi
  4042d2:	e8 d9 2d 00 00       	call   4070b0 <trunc_str>
  4042d7:	48 8b 4c 24 10       	mov    0x10(%rsp),%rcx
  4042dc:	48 89 01             	mov    %rax,(%rcx)
  4042df:	e9 7c fe ff ff       	jmp    404160 <teavpn_server_argv_parse+0xd0>
  4042e4:	48 8b 05 fd 9c 00 00 	mov    0x9cfd(%rip),%rax        # 40dfe8 <optarg@GLIBC_2.2.5>
  4042eb:	48 8b 38             	mov    (%rax),%rdi
  4042ee:	be 00 02 00 00       	mov    $0x200,%esi
  4042f3:	e8 b8 2d 00 00       	call   4070b0 <trunc_str>
  4042f8:	48 89 43 40          	mov    %rax,0x40(%rbx)
  4042fc:	e9 5f fe ff ff       	jmp    404160 <teavpn_server_argv_parse+0xd0>
  404301:	48 8b 05 e0 9c 00 00 	mov    0x9ce0(%rip),%rax        # 40dfe8 <optarg@GLIBC_2.2.5>
  404308:	48 8b 38             	mov    (%rax),%rdi
  40430b:	be 06 00 00 00       	mov    $0x6,%esi
  404310:	e8 9b 2d 00 00       	call   4070b0 <trunc_str>
  404315:	48 89 c7             	mov    %rax,%rdi
  404318:	31 f6                	xor    %esi,%esi
  40431a:	ba 0a 00 00 00       	mov    $0xa,%edx
  40431f:	e8 cc df ff ff       	call   4022f0 <strtol@plt>
  404324:	66 89 43 10          	mov    %ax,0x10(%rbx)
  404328:	e9 33 fe ff ff       	jmp    404160 <teavpn_server_argv_parse+0xd0>
  40432d:	48 8b 05 b4 9c 00 00 	mov    0x9cb4(%rip),%rax        # 40dfe8 <optarg@GLIBC_2.2.5>
  404334:	48 8b 38             	mov    (%rax),%rdi
  404337:	be ff 00 00 00       	mov    $0xff,%esi
  40433c:	e8 6f 2d 00 00       	call   4070b0 <trunc_str>
  404341:	48 89 03             	mov    %rax,(%rbx)
  404344:	e9 17 fe ff ff       	jmp    404160 <teavpn_server_argv_parse+0xd0>
  404349:	48 8b 05 98 9c 00 00 	mov    0x9c98(%rip),%rax        # 40dfe8 <optarg@GLIBC_2.2.5>
  404350:	48 8b 38             	mov    (%rax),%rdi
  404353:	be 06 00 00 00       	mov    $0x6,%esi
  404358:	e8 53 2d 00 00       	call   4070b0 <trunc_str>
  40435d:	48 89 c7             	mov    %rax,%rdi
  404360:	31 f6                	xor    %esi,%esi
  404362:	ba 0a 00 00 00       	mov    $0xa,%edx
  404367:	e8 84 df ff ff       	call   4022f0 <strtol@plt>
  40436c:	89 43 5c             	mov    %eax,0x5c(%rbx)
  40436f:	e9 ec fd ff ff       	jmp    404160 <teavpn_server_argv_parse+0xd0>
  404374:	48 8b 05 6d 9c 00 00 	mov    0x9c6d(%rip),%rax        # 40dfe8 <optarg@GLIBC_2.2.5>
  40437b:	48 8b 38             	mov    (%rax),%rdi
  40437e:	be 06 00 00 00       	mov    $0x6,%esi
  404383:	e8 28 2d 00 00       	call   4070b0 <trunc_str>
  404388:	48 89 c7             	mov    %rax,%rdi
  40438b:	31 f6                	xor    %esi,%esi
  40438d:	ba 0a 00 00 00       	mov    $0xa,%edx
  404392:	e8 59 df ff ff       	call   4022f0 <strtol@plt>
  404397:	66 89 43 58          	mov    %ax,0x58(%rbx)
  40439b:	e9 c0 fd ff ff       	jmp    404160 <teavpn_server_argv_parse+0xd0>
  4043a0:	48 8b 05 41 9c 00 00 	mov    0x9c41(%rip),%rax        # 40dfe8 <optarg@GLIBC_2.2.5>
  4043a7:	48 8b 30             	mov    (%rax),%rsi
  4043aa:	48 8d 3d 6e 53 00 00 	lea    0x536e(%rip),%rdi        # 40971f <short_opt+0x1f>
  4043b1:	31 c0                	xor    %eax,%eax
  4043b3:	e8 f8 3b 00 00       	call   407fb0 <__pr_error>
  4043b8:	b8 ff ff ff ff       	mov    $0xffffffff,%eax
  4043bd:	64 48 8b 0c 25 28 00 	mov    %fs:0x28,%rcx
  4043c4:	00 00 
  4043c6:	48 3b 4c 24 20       	cmp    0x20(%rsp),%rcx
  4043cb:	75 21                	jne    4043ee <teavpn_server_argv_parse+0x35e>
  4043cd:	48 83 c4 28          	add    $0x28,%rsp
  4043d1:	5b                   	pop    %rbx
  4043d2:	41 5c                	pop    %r12
  4043d4:	41 5d                	pop    %r13
  4043d6:	41 5e                	pop    %r14
  4043d8:	41 5f                	pop    %r15
  4043da:	5d                   	pop    %rbp
  4043db:	c3                   	ret    
  4043dc:	31 c0                	xor    %eax,%eax
  4043de:	64 48 8b 0c 25 28 00 	mov    %fs:0x28,%rcx
  4043e5:	00 00 
  4043e7:	48 3b 4c 24 20       	cmp    0x20(%rsp),%rcx
  4043ec:	74 df                	je     4043cd <teavpn_server_argv_parse+0x33d>
  4043ee:	e8 ad df ff ff       	call   4023a0 <__stack_chk_fail@plt>
  4043f3:	e8 a8 3b 00 00       	call   407fa0 <teavpn_print_version>
  4043f8:	31 ff                	xor    %edi,%edi
  4043fa:	e8 11 dd ff ff       	call   402110 <exit@plt>
  4043ff:	48 8b 7c 24 08       	mov    0x8(%rsp),%rdi
  404404:	e8 37 0a 00 00       	call   404e40 <teavpn_server_show_help>
  404409:	31 ff                	xor    %edi,%edi
  40440b:	e8 00 dd ff ff       	call   402110 <exit@plt>

0000000000404410 <teavpn_server_auth>:
  404410:	55                   	push   %rbp
  404411:	41 57                	push   %r15
  404413:	41 56                	push   %r14
  404415:	41 55                	push   %r13
  404417:	41 54                	push   %r12
  404419:	53                   	push   %rbx
  40441a:	48 81 ec 98 04 00 00 	sub    $0x498,%rsp
  404421:	49 89 ce             	mov    %rcx,%r14
  404424:	48 89 d3             	mov    %rdx,%rbx
  404427:	49 89 f7             	mov    %rsi,%r15
  40442a:	64 48 8b 04 25 28 00 	mov    %fs:0x28,%rax
  404431:	00 00 
  404433:	48 89 84 24 90 04 00 	mov    %rax,0x490(%rsp)
  40443a:	00 
  40443b:	4c 8b 67 08          	mov    0x8(%rdi),%r12
  40443f:	48 8d 7c 24 08       	lea    0x8(%rsp),%rdi
  404444:	31 ed                	xor    %ebp,%ebp
  404446:	ba 88 04 00 00       	mov    $0x488,%edx
  40444b:	31 f6                	xor    %esi,%esi
  40444d:	e8 fe db ff ff       	call   402050 <memset@plt>
  404452:	48 b8 03 00 00 00 00 	movabs $0x4000000000003,%rax
  404459:	00 04 00 
  40445c:	eb 0c                	jmp    40446a <teavpn_server_auth+0x5a>
  40445e:	66 90                	xchg   %ax,%ax
  404460:	48 83 c5 02          	add    $0x2,%rbp
  404464:	66 83 fd 40          	cmp    $0x40,%bp
  404468:	74 63                	je     4044cd <teavpn_server_auth+0xbd>
  40446a:	0f b6 0c 2b          	movzbl (%rbx,%rbp,1),%ecx
  40446e:	84 c9                	test   %cl,%cl
  404470:	0f 84 8a 00 00 00    	je     404500 <teavpn_server_auth+0xf0>
  404476:	8d 51 d0             	lea    -0x30(%rcx),%edx
  404479:	80 fa 0a             	cmp    $0xa,%dl
  40447c:	72 0d                	jb     40448b <teavpn_server_auth+0x7b>
  40447e:	89 ca                	mov    %ecx,%edx
  404480:	80 e2 df             	and    $0xdf,%dl
  404483:	80 c2 bf             	add    $0xbf,%dl
  404486:	80 fa 1a             	cmp    $0x1a,%dl
  404489:	73 31                	jae    4044bc <teavpn_server_auth+0xac>
  40448b:	0f b6 4c 2b 01       	movzbl 0x1(%rbx,%rbp,1),%ecx
  404490:	84 c9                	test   %cl,%cl
  404492:	74 6c                	je     404500 <teavpn_server_auth+0xf0>
  404494:	8d 51 d0             	lea    -0x30(%rcx),%edx
  404497:	80 fa 0a             	cmp    $0xa,%dl
  40449a:	72 c4                	jb     404460 <teavpn_server_auth+0x50>
  40449c:	89 ca                	mov    %ecx,%edx
  40449e:	80 e2 df             	and    $0xdf,%dl
  4044a1:	80 c2 bf             	add    $0xbf,%dl
  4044a4:	80 fa 1a             	cmp    $0x1a,%dl
  4044a7:	72 b7                	jb     404460 <teavpn_server_auth+0x50>
  4044a9:	80 c1 d3             	add    $0xd3,%cl
  4044ac:	80 f9 32             	cmp    $0x32,%cl
  4044af:	77 1c                	ja     4044cd <teavpn_server_auth+0xbd>
  4044b1:	0f b6 c9             	movzbl %cl,%ecx
  4044b4:	48 0f a3 c8          	bt     %rcx,%rax
  4044b8:	72 a6                	jb     404460 <teavpn_server_auth+0x50>
  4044ba:	eb 11                	jmp    4044cd <teavpn_server_auth+0xbd>
  4044bc:	80 c1 d3             	add    $0xd3,%cl
  4044bf:	80 f9 32             	cmp    $0x32,%cl
  4044c2:	77 09                	ja     4044cd <teavpn_server_auth+0xbd>
  4044c4:	0f b6 c9             	movzbl %cl,%ecx
  4044c7:	48 0f a3 c8          	bt     %rcx,%rax
  4044cb:	72 be                	jb     40448b <teavpn_server_auth+0x7b>
  4044cd:	c6 43 3f 00          	movb   $0x0,0x3f(%rbx)
  4044d1:	48 8d 3d db 52 00 00 	lea    0x52db(%rip),%rdi        # 4097b3 <short_opt+0xb3>
  4044d8:	31 ed                	xor    %ebp,%ebp
  4044da:	48 89 de             	mov    %rbx,%rsi
  4044dd:	31 c0                	xor    %eax,%eax
  4044df:	e8 cc 40 00 00       	call   4085b0 <__pr_notice>
  4044e4:	64 48 8b 04 25 28 00 	mov    %fs:0x28,%rax
  4044eb:	00 00 
  4044ed:	48 3b 84 24 90 04 00 	cmp    0x490(%rsp),%rax
  4044f4:	00 
  4044f5:	0f 84 af 00 00 00    	je     4045aa <teavpn_server_auth+0x19a>
  4044fb:	e9 f7 00 00 00       	jmp    4045f7 <teavpn_server_auth+0x1e7>
  404500:	4c 8d 6c 24 10       	lea    0x10(%rsp),%r13
  404505:	48 8d 15 be 52 00 00 	lea    0x52be(%rip),%rdx        # 4097ca <short_opt+0xca>
  40450c:	be ff 03 00 00       	mov    $0x3ff,%esi
  404511:	4c 89 ef             	mov    %r13,%rdi
  404514:	4c 89 e1             	mov    %r12,%rcx
  404517:	49 89 d8             	mov    %rbx,%r8
  40451a:	31 c0                	xor    %eax,%eax
  40451c:	e8 4f db ff ff       	call   402070 <snprintf@plt>
  404521:	48 8d 35 58 52 00 00 	lea    0x5258(%rip),%rsi        # 409780 <short_opt+0x80>
  404528:	4c 89 ef             	mov    %r13,%rdi
  40452b:	e8 40 dc ff ff       	call   402170 <fopen@plt>
  404530:	48 85 c0             	test   %rax,%rax
  404533:	0f 84 85 00 00 00    	je     4045be <teavpn_server_auth+0x1ae>
  404539:	49 89 c4             	mov    %rax,%r12
  40453c:	4c 89 7c 24 08       	mov    %r15,0x8(%rsp)
  404541:	48 8d 35 e8 00 00 00 	lea    0xe8(%rip),%rsi        # 404630 <auth_parser_handler>
  404548:	48 8d 54 24 08       	lea    0x8(%rsp),%rdx
  40454d:	48 89 c7             	mov    %rax,%rdi
  404550:	e8 7b ea ff ff       	call   402fd0 <ini_parse_file>
  404555:	85 c0                	test   %eax,%eax
  404557:	0f 88 9f 00 00 00    	js     4045fc <teavpn_server_auth+0x1ec>
  40455d:	48 8d bc 24 50 04 00 	lea    0x450(%rsp),%rdi
  404564:	00 
  404565:	ba 40 00 00 00       	mov    $0x40,%edx
  40456a:	4c 89 f6             	mov    %r14,%rsi
  40456d:	e8 de db ff ff       	call   402150 <strncmp@plt>
  404572:	40 b5 01             	mov    $0x1,%bpl
  404575:	85 c0                	test   %eax,%eax
  404577:	0f 85 8d 00 00 00    	jne    40460a <teavpn_server_auth+0x1fa>
  40457d:	48 8d bc 24 50 04 00 	lea    0x450(%rsp),%rdi
  404584:	00 
  404585:	be 40 00 00 00       	mov    $0x40,%esi
  40458a:	e8 51 2b 00 00       	call   4070e0 <memzero_explicit>
  40458f:	4c 89 e7             	mov    %r12,%rdi
  404592:	e8 99 de ff ff       	call   402430 <fclose@plt>
  404597:	64 48 8b 04 25 28 00 	mov    %fs:0x28,%rax
  40459e:	00 00 
  4045a0:	48 3b 84 24 90 04 00 	cmp    0x490(%rsp),%rax
  4045a7:	00 
  4045a8:	75 4d                	jne    4045f7 <teavpn_server_auth+0x1e7>
  4045aa:	89 e8                	mov    %ebp,%eax
  4045ac:	48 81 c4 98 04 00 00 	add    $0x498,%rsp
  4045b3:	5b                   	pop    %rbx
  4045b4:	41 5c                	pop    %r12
  4045b6:	41 5d                	pop    %r13
  4045b8:	41 5e                	pop    %r14
  4045ba:	41 5f                	pop    %r15
  4045bc:	5d                   	pop    %rbp
  4045bd:	c3                   	ret    
  4045be:	e8 cd dd ff ff       	call   402390 <__errno_location@plt>
  4045c3:	8b 18                	mov    (%rax),%ebx
  4045c5:	89 df                	mov    %ebx,%edi
  4045c7:	e8 f4 dc ff ff       	call   4022c0 <strerror@plt>
  4045cc:	48 8d 3d 07 52 00 00 	lea    0x5207(%rip),%rdi        # 4097da <short_opt+0xda>
  4045d3:	31 ed                	xor    %ebp,%ebp
  4045d5:	89 de                	mov    %ebx,%esi
  4045d7:	48 89 c2             	mov    %rax,%rdx
  4045da:	4c 89 e9             	mov    %r13,%rcx
  4045dd:	31 c0                	xor    %eax,%eax
  4045df:	e8 cc 3f 00 00       	call   4085b0 <__pr_notice>
  4045e4:	64 48 8b 04 25 28 00 	mov    %fs:0x28,%rax
  4045eb:	00 00 
  4045ed:	48 3b 84 24 90 04 00 	cmp    0x490(%rsp),%rax
  4045f4:	00 
  4045f5:	74 b3                	je     4045aa <teavpn_server_auth+0x19a>
  4045f7:	e8 a4 dd ff ff       	call   4023a0 <__stack_chk_fail@plt>
  4045fc:	48 8d 3d 01 52 00 00 	lea    0x5201(%rip),%rdi        # 409804 <short_opt+0x104>
  404603:	31 ed                	xor    %ebp,%ebp
  404605:	4c 89 ee             	mov    %r13,%rsi
  404608:	eb 0c                	jmp    404616 <teavpn_server_auth+0x206>
  40460a:	48 8d 3d 0a 52 00 00 	lea    0x520a(%rip),%rdi        # 40981b <short_opt+0x11b>
  404611:	31 ed                	xor    %ebp,%ebp
  404613:	48 89 de             	mov    %rbx,%rsi
  404616:	31 c0                	xor    %eax,%eax
  404618:	e8 93 3f 00 00       	call   4085b0 <__pr_notice>
  40461d:	e9 5b ff ff ff       	jmp    40457d <teavpn_server_auth+0x16d>
  404622:	66 2e 0f 1f 84 00 00 	cs nopw 0x0(%rax,%rax,1)
  404629:	00 00 00 
  40462c:	0f 1f 40 00          	nopl   0x0(%rax)

0000000000404630 <auth_parser_handler>:
  404630:	55                   	push   %rbp
  404631:	41 57                	push   %r15
  404633:	41 56                	push   %r14
  404635:	41 55                	push   %r13
  404637:	41 54                	push   %r12
  404639:	53                   	push   %rbx
  40463a:	50                   	push   %rax
  40463b:	45 89 c7             	mov    %r8d,%r15d
  40463e:	49 89 ce             	mov    %rcx,%r14
  404641:	49 89 d4             	mov    %rdx,%r12
  404644:	48 89 f5             	mov    %rsi,%rbp
  404647:	48 89 fb             	mov    %rdi,%rbx
  40464a:	4c 8b 2f             	mov    (%rdi),%r13
  40464d:	48 8d 35 e6 51 00 00 	lea    0x51e6(%rip),%rsi        # 40983a <short_opt+0x13a>
  404654:	48 89 ef             	mov    %rbp,%rdi
  404657:	e8 54 dd ff ff       	call   4023b0 <strcmp@plt>
  40465c:	85 c0                	test   %eax,%eax
  40465e:	74 43                	je     4046a3 <auth_parser_handler+0x73>
  404660:	48 8d 35 ea 51 00 00 	lea    0x51ea(%rip),%rsi        # 409851 <short_opt+0x151>
  404667:	48 89 ef             	mov    %rbp,%rdi
  40466a:	e8 41 dd ff ff       	call   4023b0 <strcmp@plt>
  40466f:	85 c0                	test   %eax,%eax
  404671:	0f 84 90 00 00 00    	je     404707 <auth_parser_handler+0xd7>
  404677:	48 8d 3d e6 51 00 00 	lea    0x51e6(%rip),%rdi        # 409864 <short_opt+0x164>
  40467e:	48 89 ee             	mov    %rbp,%rsi
  404681:	44 89 fa             	mov    %r15d,%edx
  404684:	31 c0                	xor    %eax,%eax
  404686:	e8 25 39 00 00       	call   407fb0 <__pr_error>
  40468b:	c6 83 07 04 00 00 00 	movb   $0x0,0x407(%rbx)
  404692:	31 c0                	xor    %eax,%eax
  404694:	48 83 c4 08          	add    $0x8,%rsp
  404698:	5b                   	pop    %rbx
  404699:	41 5c                	pop    %r12
  40469b:	41 5d                	pop    %r13
  40469d:	41 5e                	pop    %r14
  40469f:	41 5f                	pop    %r15
  4046a1:	5d                   	pop    %rbp
  4046a2:	c3                   	ret    
  4046a3:	48 8d 35 95 51 00 00 	lea    0x5195(%rip),%rsi        # 40983f <short_opt+0x13f>
  4046aa:	4c 89 e7             	mov    %r12,%rdi
  4046ad:	e8 fe dc ff ff       	call   4023b0 <strcmp@plt>
  4046b2:	85 c0                	test   %eax,%eax
  4046b4:	0f 84 aa 00 00 00    	je     404764 <auth_parser_handler+0x134>
  4046ba:	48 8d 35 87 51 00 00 	lea    0x5187(%rip),%rsi        # 409848 <short_opt+0x148>
  4046c1:	4c 89 e7             	mov    %r12,%rdi
  4046c4:	e8 e7 dc ff ff       	call   4023b0 <strcmp@plt>
  4046c9:	85 c0                	test   %eax,%eax
  4046cb:	75 77                	jne    404744 <auth_parser_handler+0x114>
  4046cd:	48 8d bb 48 04 00 00 	lea    0x448(%rbx),%rdi
  4046d4:	ba 3f 00 00 00       	mov    $0x3f,%edx
  4046d9:	4c 89 f6             	mov    %r14,%rsi
  4046dc:	e8 5f dd ff ff       	call   402440 <strncpy@plt>
  4046e1:	c6 83 87 04 00 00 00 	movb   $0x0,0x487(%rbx)
  4046e8:	be 40 00 00 00       	mov    $0x40,%esi
  4046ed:	4c 89 f7             	mov    %r14,%rdi
  4046f0:	e8 fb da ff ff       	call   4021f0 <strnlen@plt>
  4046f5:	4c 89 f7             	mov    %r14,%rdi
  4046f8:	48 89 c6             	mov    %rax,%rsi
  4046fb:	e8 e0 29 00 00       	call   4070e0 <memzero_explicit>
  404700:	b8 01 00 00 00       	mov    $0x1,%eax
  404705:	eb 8d                	jmp    404694 <auth_parser_handler+0x64>
  404707:	48 8d 35 4e 50 00 00 	lea    0x504e(%rip),%rsi        # 40975c <short_opt+0x5c>
  40470e:	4c 89 e7             	mov    %r12,%rdi
  404711:	e8 9a dc ff ff       	call   4023b0 <strcmp@plt>
  404716:	85 c0                	test   %eax,%eax
  404718:	74 6f                	je     404789 <auth_parser_handler+0x159>
  40471a:	48 8d 35 36 51 00 00 	lea    0x5136(%rip),%rsi        # 409857 <short_opt+0x157>
  404721:	4c 89 e7             	mov    %r12,%rdi
  404724:	e8 87 dc ff ff       	call   4023b0 <strcmp@plt>
  404729:	85 c0                	test   %eax,%eax
  40472b:	74 7c                	je     4047a9 <auth_parser_handler+0x179>
  40472d:	48 8d 35 20 50 00 00 	lea    0x5020(%rip),%rsi        # 409754 <short_opt+0x54>
  404734:	4c 89 e7             	mov    %r12,%rdi
  404737:	e8 74 dc ff ff       	call   4023b0 <strcmp@plt>
  40473c:	85 c0                	test   %eax,%eax
  40473e:	0f 84 85 00 00 00    	je     4047c9 <auth_parser_handler+0x199>
  404744:	4c 8d 43 08          	lea    0x8(%rbx),%r8
  404748:	48 8d 3d 35 51 00 00 	lea    0x5135(%rip),%rdi        # 409884 <short_opt+0x184>
  40474f:	4c 89 e6             	mov    %r12,%rsi
  404752:	48 89 ea             	mov    %rbp,%rdx
  404755:	44 89 f9             	mov    %r15d,%ecx
  404758:	31 c0                	xor    %eax,%eax
  40475a:	e8 51 38 00 00       	call   407fb0 <__pr_error>
  40475f:	e9 27 ff ff ff       	jmp    40468b <auth_parser_handler+0x5b>
  404764:	48 8d bb 08 04 00 00 	lea    0x408(%rbx),%rdi
  40476b:	ba 3f 00 00 00       	mov    $0x3f,%edx
  404770:	4c 89 f6             	mov    %r14,%rsi
  404773:	e8 c8 dc ff ff       	call   402440 <strncpy@plt>
  404778:	c6 83 47 04 00 00 00 	movb   $0x0,0x447(%rbx)
  40477f:	b8 01 00 00 00       	mov    $0x1,%eax
  404784:	e9 0b ff ff ff       	jmp    404694 <auth_parser_handler+0x64>
  404789:	49 8d 7d 20          	lea    0x20(%r13),%rdi
  40478d:	ba 0f 00 00 00       	mov    $0xf,%edx
  404792:	4c 89 f6             	mov    %r14,%rsi
  404795:	e8 a6 dc ff ff       	call   402440 <strncpy@plt>
  40479a:	41 c6 45 2f 00       	movb   $0x0,0x2f(%r13)
  40479f:	b8 01 00 00 00       	mov    $0x1,%eax
  4047a4:	e9 eb fe ff ff       	jmp    404694 <auth_parser_handler+0x64>
  4047a9:	49 8d 7d 30          	lea    0x30(%r13),%rdi
  4047ad:	ba 0f 00 00 00       	mov    $0xf,%edx
  4047b2:	4c 89 f6             	mov    %r14,%rsi
  4047b5:	e8 86 dc ff ff       	call   402440 <strncpy@plt>
  4047ba:	41 c6 45 3f 00       	movb   $0x0,0x3f(%r13)
  4047bf:	b8 01 00 00 00       	mov    $0x1,%eax
  4047c4:	e9 cb fe ff ff       	jmp    404694 <auth_parser_handler+0x64>
  4047c9:	4c 89 f7             	mov    %r14,%rdi
  4047cc:	31 f6                	xor    %esi,%esi
  4047ce:	ba 0a 00 00 00       	mov    $0xa,%edx
  4047d3:	e8 18 db ff ff       	call   4022f0 <strtol@plt>
  4047d8:	66 41 89 45 50       	mov    %ax,0x50(%r13)
  4047dd:	b8 01 00 00 00       	mov    $0x1,%eax
  4047e2:	e9 ad fe ff ff       	jmp    404694 <auth_parser_handler+0x64>
  4047e7:	66 0f 1f 84 00 00 00 	nopw   0x0(%rax,%rax,1)
  4047ee:	00 00 

00000000004047f0 <teavpn_server_cfg_parse>:
  4047f0:	55                   	push   %rbp
  4047f1:	41 56                	push   %r14
  4047f3:	53                   	push   %rbx
  4047f4:	48 83 ec 20          	sub    $0x20,%rsp
  4047f8:	64 48 8b 04 25 28 00 	mov    %fs:0x28,%rax
  4047ff:	00 00 
  404801:	48 89 44 24 18       	mov    %rax,0x18(%rsp)
  404806:	48 8b 1f             	mov    (%rdi),%rbx
  404809:	c6 44 24 08 01       	movb   $0x1,0x8(%rsp)
  40480e:	48 89 7c 24 10       	mov    %rdi,0x10(%rsp)
  404813:	31 ed                	xor    %ebp,%ebp
  404815:	48 85 db             	test   %rbx,%rbx
  404818:	0f 84 a1 00 00 00    	je     4048bf <teavpn_server_cfg_parse+0xcf>
  40481e:	80 3b 00             	cmpb   $0x0,(%rbx)
  404821:	0f 84 98 00 00 00    	je     4048bf <teavpn_server_cfg_parse+0xcf>
  404827:	48 8d 35 52 4f 00 00 	lea    0x4f52(%rip),%rsi        # 409780 <short_opt+0x80>
  40482e:	48 89 df             	mov    %rbx,%rdi
  404831:	e8 3a d9 ff ff       	call   402170 <fopen@plt>
  404836:	48 85 c0             	test   %rax,%rax
  404839:	74 3c                	je     404877 <teavpn_server_cfg_parse+0x87>
  40483b:	49 89 c6             	mov    %rax,%r14
  40483e:	48 8d 35 9b 00 00 00 	lea    0x9b(%rip),%rsi        # 4048e0 <parser_handler>
  404845:	48 8d 54 24 08       	lea    0x8(%rsp),%rdx
  40484a:	48 89 c7             	mov    %rax,%rdi
  40484d:	e8 7e e7 ff ff       	call   402fd0 <ini_parse_file>
  404852:	85 c0                	test   %eax,%eax
  404854:	78 5c                	js     4048b2 <teavpn_server_cfg_parse+0xc2>
  404856:	31 ed                	xor    %ebp,%ebp
  404858:	80 7c 24 08 00       	cmpb   $0x0,0x8(%rsp)
  40485d:	75 58                	jne    4048b7 <teavpn_server_cfg_parse+0xc7>
  40485f:	48 8d 3d 7c 50 00 00 	lea    0x507c(%rip),%rdi        # 4098e2 <short_opt+0x1e2>
  404866:	48 89 de             	mov    %rbx,%rsi
  404869:	31 c0                	xor    %eax,%eax
  40486b:	e8 40 37 00 00       	call   407fb0 <__pr_error>
  404870:	bd ea ff ff ff       	mov    $0xffffffea,%ebp
  404875:	eb 40                	jmp    4048b7 <teavpn_server_cfg_parse+0xc7>
  404877:	48 8d 35 42 9a 00 00 	lea    0x9a42(%rip),%rsi        # 40e2c0 <d_srv_cfg_file>
  40487e:	48 89 df             	mov    %rbx,%rdi
  404881:	e8 2a db ff ff       	call   4023b0 <strcmp@plt>
  404886:	85 c0                	test   %eax,%eax
  404888:	74 35                	je     4048bf <teavpn_server_cfg_parse+0xcf>
  40488a:	e8 01 db ff ff       	call   402390 <__errno_location@plt>
  40488f:	8b 28                	mov    (%rax),%ebp
  404891:	89 ef                	mov    %ebp,%edi
  404893:	e8 28 da ff ff       	call   4022c0 <strerror@plt>
  404898:	48 8d 3d 18 50 00 00 	lea    0x5018(%rip),%rdi        # 4098b7 <short_opt+0x1b7>
  40489f:	48 89 de             	mov    %rbx,%rsi
  4048a2:	89 ea                	mov    %ebp,%edx
  4048a4:	48 89 c1             	mov    %rax,%rcx
  4048a7:	31 c0                	xor    %eax,%eax
  4048a9:	e8 02 37 00 00       	call   407fb0 <__pr_error>
  4048ae:	f7 dd                	neg    %ebp
  4048b0:	eb 0d                	jmp    4048bf <teavpn_server_cfg_parse+0xcf>
  4048b2:	bd ff ff ff ff       	mov    $0xffffffff,%ebp
  4048b7:	4c 89 f7             	mov    %r14,%rdi
  4048ba:	e8 71 db ff ff       	call   402430 <fclose@plt>
  4048bf:	64 48 8b 04 25 28 00 	mov    %fs:0x28,%rax
  4048c6:	00 00 
  4048c8:	48 3b 44 24 18       	cmp    0x18(%rsp),%rax
  4048cd:	75 0b                	jne    4048da <teavpn_server_cfg_parse+0xea>
  4048cf:	89 e8                	mov    %ebp,%eax
  4048d1:	48 83 c4 20          	add    $0x20,%rsp
  4048d5:	5b                   	pop    %rbx
  4048d6:	41 5e                	pop    %r14
  4048d8:	5d                   	pop    %rbp
  4048d9:	c3                   	ret    
  4048da:	e8 c1 da ff ff       	call   4023a0 <__stack_chk_fail@plt>
  4048df:	90                   	nop

00000000004048e0 <parser_handler>:
  4048e0:	55                   	push   %rbp
  4048e1:	41 57                	push   %r15
  4048e3:	41 56                	push   %r14
  4048e5:	41 55                	push   %r13
  4048e7:	41 54                	push   %r12
  4048e9:	53                   	push   %rbx
  4048ea:	48 83 ec 18          	sub    $0x18,%rsp
  4048ee:	45 89 c7             	mov    %r8d,%r15d
  4048f1:	49 89 ce             	mov    %rcx,%r14
  4048f4:	49 89 d4             	mov    %rdx,%r12
  4048f7:	48 89 f5             	mov    %rsi,%rbp
  4048fa:	48 89 fb             	mov    %rdi,%rbx
  4048fd:	64 48 8b 04 25 28 00 	mov    %fs:0x28,%rax
  404904:	00 00 
  404906:	48 89 44 24 10       	mov    %rax,0x10(%rsp)
  40490b:	4c 8b 6f 08          	mov    0x8(%rdi),%r13
  40490f:	48 8d 35 ec 4f 00 00 	lea    0x4fec(%rip),%rsi        # 409902 <short_opt+0x202>
  404916:	48 89 ef             	mov    %rbp,%rdi
  404919:	e8 92 da ff ff       	call   4023b0 <strcmp@plt>
  40491e:	85 c0                	test   %eax,%eax
  404920:	74 6a                	je     40498c <parser_handler+0xac>
  404922:	48 8d 35 f6 4f 00 00 	lea    0x4ff6(%rip),%rsi        # 40991f <short_opt+0x21f>
  404929:	48 89 ef             	mov    %rbp,%rdi
  40492c:	e8 7f da ff ff       	call   4023b0 <strcmp@plt>
  404931:	85 c0                	test   %eax,%eax
  404933:	0f 84 b5 00 00 00    	je     4049ee <parser_handler+0x10e>
  404939:	48 8d 35 11 4f 00 00 	lea    0x4f11(%rip),%rsi        # 409851 <short_opt+0x151>
  404940:	48 89 ef             	mov    %rbp,%rdi
  404943:	e8 68 da ff ff       	call   4023b0 <strcmp@plt>
  404948:	85 c0                	test   %eax,%eax
  40494a:	0f 84 6d 01 00 00    	je     404abd <parser_handler+0x1dd>
  404950:	48 8d 3d 0d 4f 00 00 	lea    0x4f0d(%rip),%rdi        # 409864 <short_opt+0x164>
  404957:	48 89 ee             	mov    %rbp,%rsi
  40495a:	44 89 fa             	mov    %r15d,%edx
  40495d:	31 c0                	xor    %eax,%eax
  40495f:	e8 4c 36 00 00       	call   407fb0 <__pr_error>
  404964:	c6 03 00             	movb   $0x0,(%rbx)
  404967:	31 c0                	xor    %eax,%eax
  404969:	64 48 8b 0c 25 28 00 	mov    %fs:0x28,%rcx
  404970:	00 00 
  404972:	48 3b 4c 24 10       	cmp    0x10(%rsp),%rcx
  404977:	0f 85 b3 03 00 00    	jne    404d30 <parser_handler+0x450>
  40497d:	48 83 c4 18          	add    $0x18,%rsp
  404981:	5b                   	pop    %rbx
  404982:	41 5c                	pop    %r12
  404984:	41 5d                	pop    %r13
  404986:	41 5e                	pop    %r14
  404988:	41 5f                	pop    %r15
  40498a:	5d                   	pop    %rbp
  40498b:	c3                   	ret    
  40498c:	48 8d 35 75 4f 00 00 	lea    0x4f75(%rip),%rsi        # 409908 <short_opt+0x208>
  404993:	4c 89 e7             	mov    %r12,%rdi
  404996:	e8 15 da ff ff       	call   4023b0 <strcmp@plt>
  40499b:	85 c0                	test   %eax,%eax
  40499d:	0f 84 92 01 00 00    	je     404b35 <parser_handler+0x255>
  4049a3:	48 8d 35 67 4f 00 00 	lea    0x4f67(%rip),%rsi        # 409911 <short_opt+0x211>
  4049aa:	4c 89 e7             	mov    %r12,%rdi
  4049ad:	e8 fe d9 ff ff       	call   4023b0 <strcmp@plt>
  4049b2:	85 c0                	test   %eax,%eax
  4049b4:	0f 84 96 01 00 00    	je     404b50 <parser_handler+0x270>
  4049ba:	48 8d 35 7c 4d 00 00 	lea    0x4d7c(%rip),%rsi        # 40973d <short_opt+0x3d>
  4049c1:	4c 89 e7             	mov    %r12,%rdi
  4049c4:	e8 e7 d9 ff ff       	call   4023b0 <strcmp@plt>
  4049c9:	85 c0                	test   %eax,%eax
  4049cb:	0f 85 48 01 00 00    	jne    404b19 <parser_handler+0x239>
  4049d1:	4c 89 f7             	mov    %r14,%rdi
  4049d4:	31 f6                	xor    %esi,%esi
  4049d6:	ba 0a 00 00 00       	mov    $0xa,%edx
  4049db:	e8 10 d9 ff ff       	call   4022f0 <strtol@plt>
  4049e0:	41 88 45 60          	mov    %al,0x60(%r13)
  4049e4:	b8 01 00 00 00       	mov    $0x1,%eax
  4049e9:	e9 7b ff ff ff       	jmp    404969 <parser_handler+0x89>
  4049ee:	48 8d 35 31 4f 00 00 	lea    0x4f31(%rip),%rsi        # 409926 <short_opt+0x226>
  4049f5:	4c 89 e7             	mov    %r12,%rdi
  4049f8:	e8 b3 d9 ff ff       	call   4023b0 <strcmp@plt>
  4049fd:	85 c0                	test   %eax,%eax
  4049ff:	0f 84 6d 01 00 00    	je     404b72 <parser_handler+0x292>
  404a05:	48 8d 35 24 4f 00 00 	lea    0x4f24(%rip),%rsi        # 409930 <short_opt+0x230>
  404a0c:	4c 89 e7             	mov    %r12,%rdi
  404a0f:	e8 9c d9 ff ff       	call   4023b0 <strcmp@plt>
  404a14:	85 c0                	test   %eax,%eax
  404a16:	0f 84 a1 01 00 00    	je     404bbd <parser_handler+0x2dd>
  404a1c:	48 8d 35 17 4f 00 00 	lea    0x4f17(%rip),%rsi        # 40993a <short_opt+0x23a>
  404a23:	4c 89 e7             	mov    %r12,%rdi
  404a26:	e8 85 d9 ff ff       	call   4023b0 <strcmp@plt>
  404a2b:	85 c0                	test   %eax,%eax
  404a2d:	0f 84 c0 01 00 00    	je     404bf3 <parser_handler+0x313>
  404a33:	48 8d 35 0a 4f 00 00 	lea    0x4f0a(%rip),%rsi        # 409944 <short_opt+0x244>
  404a3a:	4c 89 e7             	mov    %r12,%rdi
  404a3d:	e8 6e d9 ff ff       	call   4023b0 <strcmp@plt>
  404a42:	85 c0                	test   %eax,%eax
  404a44:	0f 84 ff 01 00 00    	je     404c49 <parser_handler+0x369>
  404a4a:	48 8d 35 44 4d 00 00 	lea    0x4d44(%rip),%rsi        # 409795 <short_opt+0x95>
  404a51:	4c 89 e7             	mov    %r12,%rdi
  404a54:	e8 57 d9 ff ff       	call   4023b0 <strcmp@plt>
  404a59:	85 c0                	test   %eax,%eax
  404a5b:	0f 84 2e 02 00 00    	je     404c8f <parser_handler+0x3af>
  404a61:	48 8d 35 e5 4e 00 00 	lea    0x4ee5(%rip),%rsi        # 40994d <short_opt+0x24d>
  404a68:	4c 89 e7             	mov    %r12,%rdi
  404a6b:	e8 40 d9 ff ff       	call   4023b0 <strcmp@plt>
  404a70:	85 c0                	test   %eax,%eax
  404a72:	0f 84 5c 02 00 00    	je     404cd4 <parser_handler+0x3f4>
  404a78:	48 8d 35 db 4e 00 00 	lea    0x4edb(%rip),%rsi        # 40995a <short_opt+0x25a>
  404a7f:	4c 89 e7             	mov    %r12,%rdi
  404a82:	e8 29 d9 ff ff       	call   4023b0 <strcmp@plt>
  404a87:	85 c0                	test   %eax,%eax
  404a89:	0f 84 60 02 00 00    	je     404cef <parser_handler+0x40f>
  404a8f:	48 8d 35 cd 4e 00 00 	lea    0x4ecd(%rip),%rsi        # 409963 <short_opt+0x263>
  404a96:	4c 89 e7             	mov    %r12,%rdi
  404a99:	e8 12 d9 ff ff       	call   4023b0 <strcmp@plt>
  404a9e:	85 c0                	test   %eax,%eax
  404aa0:	75 77                	jne    404b19 <parser_handler+0x239>
  404aa2:	be 00 02 00 00       	mov    $0x200,%esi
  404aa7:	4c 89 f7             	mov    %r14,%rdi
  404aaa:	e8 21 21 00 00       	call   406bd0 <ar_strndup>
  404aaf:	49 89 45 40          	mov    %rax,0x40(%r13)
  404ab3:	b8 01 00 00 00       	mov    $0x1,%eax
  404ab8:	e9 ac fe ff ff       	jmp    404969 <parser_handler+0x89>
  404abd:	48 8d 35 94 4c 00 00 	lea    0x4c94(%rip),%rsi        # 409758 <short_opt+0x58>
  404ac4:	4c 89 e7             	mov    %r12,%rdi
  404ac7:	e8 e4 d8 ff ff       	call   4023b0 <strcmp@plt>
  404acc:	85 c0                	test   %eax,%eax
  404ace:	0f 84 04 01 00 00    	je     404bd8 <parser_handler+0x2f8>
  404ad4:	48 8d 35 79 4c 00 00 	lea    0x4c79(%rip),%rsi        # 409754 <short_opt+0x54>
  404adb:	4c 89 e7             	mov    %r12,%rdi
  404ade:	e8 cd d8 ff ff       	call   4023b0 <strcmp@plt>
  404ae3:	85 c0                	test   %eax,%eax
  404ae5:	0f 84 33 01 00 00    	je     404c1e <parser_handler+0x33e>
  404aeb:	48 8d 35 6a 4c 00 00 	lea    0x4c6a(%rip),%rsi        # 40975c <short_opt+0x5c>
  404af2:	4c 89 e7             	mov    %r12,%rdi
  404af5:	e8 b6 d8 ff ff       	call   4023b0 <strcmp@plt>
  404afa:	85 c0                	test   %eax,%eax
  404afc:	0f 84 72 01 00 00    	je     404c74 <parser_handler+0x394>
  404b02:	48 8d 35 4e 4d 00 00 	lea    0x4d4e(%rip),%rsi        # 409857 <short_opt+0x157>
  404b09:	4c 89 e7             	mov    %r12,%rdi
  404b0c:	e8 9f d8 ff ff       	call   4023b0 <strcmp@plt>
  404b11:	85 c0                	test   %eax,%eax
  404b13:	0f 84 a0 01 00 00    	je     404cb9 <parser_handler+0x3d9>
  404b19:	48 8d 3d 50 4e 00 00 	lea    0x4e50(%rip),%rdi        # 409970 <short_opt+0x270>
  404b20:	4c 89 e6             	mov    %r12,%rsi
  404b23:	48 89 ea             	mov    %rbp,%rdx
  404b26:	44 89 f9             	mov    %r15d,%ecx
  404b29:	31 c0                	xor    %eax,%eax
  404b2b:	e8 80 34 00 00       	call   407fb0 <__pr_error>
  404b30:	e9 2f fe ff ff       	jmp    404964 <parser_handler+0x84>
  404b35:	be ff 00 00 00       	mov    $0xff,%esi
  404b3a:	4c 89 f7             	mov    %r14,%rdi
  404b3d:	e8 8e 20 00 00       	call   406bd0 <ar_strndup>
  404b42:	49 89 45 08          	mov    %rax,0x8(%r13)
  404b46:	b8 01 00 00 00       	mov    $0x1,%eax
  404b4b:	e9 19 fe ff ff       	jmp    404969 <parser_handler+0x89>
  404b50:	4c 89 f7             	mov    %r14,%rdi
  404b53:	31 f6                	xor    %esi,%esi
  404b55:	ba 0a 00 00 00       	mov    $0xa,%edx
  404b5a:	e8 91 d7 ff ff       	call   4022f0 <strtol@plt>
  404b5f:	48 8d 0d d2 97 00 00 	lea    0x97d2(%rip),%rcx        # 40e338 <__notice_level>
  404b66:	88 01                	mov    %al,(%rcx)
  404b68:	b8 01 00 00 00       	mov    $0x1,%eax
  404b6d:	e9 f7 fd ff ff       	jmp    404969 <parser_handler+0x89>
  404b72:	c7 44 24 08 00 00 00 	movl   $0x0,0x8(%rsp)
  404b79:	00 
  404b7a:	48 8d 7c 24 08       	lea    0x8(%rsp),%rdi
  404b7f:	ba 03 00 00 00       	mov    $0x3,%edx
  404b84:	4c 89 f6             	mov    %r14,%rsi
  404b87:	e8 b4 d8 ff ff       	call   402440 <strncpy@plt>
  404b8c:	81 4c 24 08 20 20 20 	orl    $0x20202020,0x8(%rsp)
  404b93:	20 
  404b94:	c6 44 24 0b 00       	movb   $0x0,0xb(%rsp)
  404b99:	8b 44 24 08          	mov    0x8(%rsp),%eax
  404b9d:	3d 74 63 70 00       	cmp    $0x706374,%eax
  404ba2:	0f 84 62 01 00 00    	je     404d0a <parser_handler+0x42a>
  404ba8:	3d 75 64 70 00       	cmp    $0x706475,%eax
  404bad:	0f 85 67 01 00 00    	jne    404d1a <parser_handler+0x43a>
  404bb3:	b8 01 00 00 00       	mov    $0x1,%eax
  404bb8:	e9 4f 01 00 00       	jmp    404d0c <parser_handler+0x42c>
  404bbd:	be 20 00 00 00       	mov    $0x20,%esi
  404bc2:	4c 89 f7             	mov    %r14,%rdi
  404bc5:	e8 06 20 00 00       	call   406bd0 <ar_strndup>
  404bca:	49 89 45 50          	mov    %rax,0x50(%r13)
  404bce:	b8 01 00 00 00       	mov    $0x1,%eax
  404bd3:	e9 91 fd ff ff       	jmp    404969 <parser_handler+0x89>
  404bd8:	be 10 00 00 00       	mov    $0x10,%esi
  404bdd:	4c 89 f7             	mov    %r14,%rdi
  404be0:	e8 eb 1f 00 00       	call   406bd0 <ar_strndup>
  404be5:	49 89 45 18          	mov    %rax,0x18(%r13)
  404be9:	b8 01 00 00 00       	mov    $0x1,%eax
  404bee:	e9 76 fd ff ff       	jmp    404969 <parser_handler+0x89>
  404bf3:	be 06 00 00 00       	mov    $0x6,%esi
  404bf8:	4c 89 f7             	mov    %r14,%rdi
  404bfb:	e8 d0 1f 00 00       	call   406bd0 <ar_strndup>
  404c00:	48 89 c7             	mov    %rax,%rdi
  404c03:	31 f6                	xor    %esi,%esi
  404c05:	ba 0a 00 00 00       	mov    $0xa,%edx
  404c0a:	e8 e1 d6 ff ff       	call   4022f0 <strtol@plt>
  404c0f:	66 41 89 45 58       	mov    %ax,0x58(%r13)
  404c14:	b8 01 00 00 00       	mov    $0x1,%eax
  404c19:	e9 4b fd ff ff       	jmp    404969 <parser_handler+0x89>
  404c1e:	be 06 00 00 00       	mov    $0x6,%esi
  404c23:	4c 89 f7             	mov    %r14,%rdi
  404c26:	e8 a5 1f 00 00       	call   406bd0 <ar_strndup>
  404c2b:	48 89 c7             	mov    %rax,%rdi
  404c2e:	31 f6                	xor    %esi,%esi
  404c30:	ba 0a 00 00 00       	mov    $0xa,%edx
  404c35:	e8 b6 d6 ff ff       	call   4022f0 <strtol@plt>
  404c3a:	66 41 89 45 10       	mov    %ax,0x10(%r13)
  404c3f:	b8 01 00 00 00       	mov    $0x1,%eax
  404c44:	e9 20 fd ff ff       	jmp    404969 <parser_handler+0x89>
  404c49:	be 06 00 00 00       	mov    $0x6,%esi
  404c4e:	4c 89 f7             	mov    %r14,%rdi
  404c51:	e8 7a 1f 00 00       	call   406bd0 <ar_strndup>
  404c56:	48 89 c7             	mov    %rax,%rdi
  404c59:	31 f6                	xor    %esi,%esi
  404c5b:	ba 0a 00 00 00       	mov    $0xa,%edx
  404c60:	e8 8b d6 ff ff       	call   4022f0 <strtol@plt>
  404c65:	66 41 89 45 5a       	mov    %ax,0x5a(%r13)
  404c6a:	b8 01 00 00 00       	mov    $0x1,%eax
  404c6f:	e9 f5 fc ff ff       	jmp    404969 <parser_handler+0x89>
  404c74:	be 11 00 00 00       	mov    $0x11,%esi
  404c79:	4c 89 f7             	mov    %r14,%rdi
  404c7c:	e8 4f 1f 00 00       	call   406bd0 <ar_strndup>
  404c81:	49 89 45 20          	mov    %rax,0x20(%r13)
  404c85:	b8 01 00 00 00       	mov    $0x1,%eax
  404c8a:	e9 da fc ff ff       	jmp    404969 <parser_handler+0x89>
  404c8f:	be 06 00 00 00       	mov    $0x6,%esi
  404c94:	4c 89 f7             	mov    %r14,%rdi
  404c97:	e8 34 1f 00 00       	call   406bd0 <ar_strndup>
  404c9c:	48 89 c7             	mov    %rax,%rdi
  404c9f:	31 f6                	xor    %esi,%esi
  404ca1:	ba 0a 00 00 00       	mov    $0xa,%edx
  404ca6:	e8 45 d6 ff ff       	call   4022f0 <strtol@plt>
  404cab:	41 89 45 5c          	mov    %eax,0x5c(%r13)
  404caf:	b8 01 00 00 00       	mov    $0x1,%eax
  404cb4:	e9 b0 fc ff ff       	jmp    404969 <parser_handler+0x89>
  404cb9:	be 11 00 00 00       	mov    $0x11,%esi
  404cbe:	4c 89 f7             	mov    %r14,%rdi
  404cc1:	e8 0a 1f 00 00       	call   406bd0 <ar_strndup>
  404cc6:	49 89 45 28          	mov    %rax,0x28(%r13)
  404cca:	b8 01 00 00 00       	mov    $0x1,%eax
  404ccf:	e9 95 fc ff ff       	jmp    404969 <parser_handler+0x89>
  404cd4:	be 11 00 00 00       	mov    $0x11,%esi
  404cd9:	4c 89 f7             	mov    %r14,%rdi
  404cdc:	e8 ef 1e 00 00       	call   406bd0 <ar_strndup>
  404ce1:	49 89 45 48          	mov    %rax,0x48(%r13)
  404ce5:	b8 01 00 00 00       	mov    $0x1,%eax
  404cea:	e9 7a fc ff ff       	jmp    404969 <parser_handler+0x89>
  404cef:	be 00 02 00 00       	mov    $0x200,%esi
  404cf4:	4c 89 f7             	mov    %r14,%rdi
  404cf7:	e8 d4 1e 00 00       	call   406bd0 <ar_strndup>
  404cfc:	49 89 45 38          	mov    %rax,0x38(%r13)
  404d00:	b8 01 00 00 00       	mov    $0x1,%eax
  404d05:	e9 5f fc ff ff       	jmp    404969 <parser_handler+0x89>
  404d0a:	31 c0                	xor    %eax,%eax
  404d0c:	41 89 45 30          	mov    %eax,0x30(%r13)
  404d10:	b8 01 00 00 00       	mov    $0x1,%eax
  404d15:	e9 4f fc ff ff       	jmp    404969 <parser_handler+0x89>
  404d1a:	48 8d 3d fe 49 00 00 	lea    0x49fe(%rip),%rdi        # 40971f <short_opt+0x1f>
  404d21:	4c 89 f6             	mov    %r14,%rsi
  404d24:	31 c0                	xor    %eax,%eax
  404d26:	e8 85 32 00 00       	call   407fb0 <__pr_error>
  404d2b:	e9 34 fc ff ff       	jmp    404964 <parser_handler+0x84>
  404d30:	e8 6b d6 ff ff       	call   4023a0 <__stack_chk_fail@plt>
  404d35:	66 2e 0f 1f 84 00 00 	cs nopw 0x0(%rax,%rax,1)
  404d3c:	00 00 00 
  404d3f:	90                   	nop

0000000000404d40 <teavpn_server_entry>:
  404d40:	53                   	push   %rbx
  404d41:	48 83 ec 70          	sub    $0x70,%rsp
  404d45:	64 48 8b 04 25 28 00 	mov    %fs:0x28,%rax
  404d4c:	00 00 
  404d4e:	48 89 44 24 68       	mov    %rax,0x68(%rsp)
  404d53:	0f 57 c0             	xorps  %xmm0,%xmm0
  404d56:	0f 29 44 24 50       	movaps %xmm0,0x50(%rsp)
  404d5b:	0f 29 44 24 40       	movaps %xmm0,0x40(%rsp)
  404d60:	0f 29 44 24 30       	movaps %xmm0,0x30(%rsp)
  404d65:	0f 29 44 24 20       	movaps %xmm0,0x20(%rsp)
  404d6a:	0f 29 44 24 10       	movaps %xmm0,0x10(%rsp)
  404d6f:	0f 29 04 24          	movaps %xmm0,(%rsp)
  404d73:	48 c7 44 24 60 00 00 	movq   $0x0,0x60(%rsp)
  404d7a:	00 00 
  404d7c:	48 89 e2             	mov    %rsp,%rdx
  404d7f:	e8 0c f3 ff ff       	call   404090 <teavpn_server_argv_parse>
  404d84:	bb 01 00 00 00       	mov    $0x1,%ebx
  404d89:	85 c0                	test   %eax,%eax
  404d8b:	78 75                	js     404e02 <teavpn_server_entry+0xc2>
  404d8d:	48 89 e7             	mov    %rsp,%rdi
  404d90:	e8 5b fa ff ff       	call   4047f0 <teavpn_server_cfg_parse>
  404d95:	85 c0                	test   %eax,%eax
  404d97:	78 69                	js     404e02 <teavpn_server_entry+0xc2>
  404d99:	48 83 7c 24 08 00    	cmpq   $0x0,0x8(%rsp)
  404d9f:	74 79                	je     404e1a <teavpn_server_entry+0xda>
  404da1:	8b 74 24 30          	mov    0x30(%rsp),%esi
  404da5:	83 fe 01             	cmp    $0x1,%esi
  404da8:	74 20                	je     404dca <teavpn_server_entry+0x8a>
  404daa:	85 f6                	test   %esi,%esi
  404dac:	75 41                	jne    404def <teavpn_server_entry+0xaf>
  404dae:	48 89 e7             	mov    %rsp,%rdi
  404db1:	e8 6a 02 00 00       	call   405020 <teavpn_server_tcp>
  404db6:	89 c3                	mov    %eax,%ebx
  404db8:	64 48 8b 04 25 28 00 	mov    %fs:0x28,%rax
  404dbf:	00 00 
  404dc1:	48 3b 44 24 68       	cmp    0x68(%rsp),%rax
  404dc6:	74 4a                	je     404e12 <teavpn_server_entry+0xd2>
  404dc8:	eb 6e                	jmp    404e38 <teavpn_server_entry+0xf8>
  404dca:	48 8d 3d cc 4b 00 00 	lea    0x4bcc(%rip),%rdi        # 40999d <short_opt+0x29d>
  404dd1:	31 c0                	xor    %eax,%eax
  404dd3:	e8 d8 31 00 00       	call   407fb0 <__pr_error>
  404dd8:	bb a2 ff ff ff       	mov    $0xffffffa2,%ebx
  404ddd:	64 48 8b 04 25 28 00 	mov    %fs:0x28,%rax
  404de4:	00 00 
  404de6:	48 3b 44 24 68       	cmp    0x68(%rsp),%rax
  404deb:	74 25                	je     404e12 <teavpn_server_entry+0xd2>
  404ded:	eb 49                	jmp    404e38 <teavpn_server_entry+0xf8>
  404def:	48 8d 3d d1 4b 00 00 	lea    0x4bd1(%rip),%rdi        # 4099c7 <short_opt+0x2c7>
  404df6:	31 c0                	xor    %eax,%eax
  404df8:	e8 b3 31 00 00       	call   407fb0 <__pr_error>
  404dfd:	bb ea ff ff ff       	mov    $0xffffffea,%ebx
  404e02:	64 48 8b 04 25 28 00 	mov    %fs:0x28,%rax
  404e09:	00 00 
  404e0b:	48 3b 44 24 68       	cmp    0x68(%rsp),%rax
  404e10:	75 26                	jne    404e38 <teavpn_server_entry+0xf8>
  404e12:	89 d8                	mov    %ebx,%eax
  404e14:	48 83 c4 70          	add    $0x70,%rsp
  404e18:	5b                   	pop    %rbx
  404e19:	c3                   	ret    
  404e1a:	48 8d 3d be 4b 00 00 	lea    0x4bbe(%rip),%rdi        # 4099df <short_opt+0x2df>
  404e21:	31 c0                	xor    %eax,%eax
  404e23:	e8 88 31 00 00       	call   407fb0 <__pr_error>
  404e28:	64 48 8b 04 25 28 00 	mov    %fs:0x28,%rax
  404e2f:	00 00 
  404e31:	48 3b 44 24 68       	cmp    0x68(%rsp),%rax
  404e36:	74 da                	je     404e12 <teavpn_server_entry+0xd2>
  404e38:	e8 63 d5 ff ff       	call   4023a0 <__stack_chk_fail@plt>
  404e3d:	0f 1f 00             	nopl   (%rax)

0000000000404e40 <teavpn_server_show_help>:
  404e40:	50                   	push   %rax
  404e41:	48 89 fe             	mov    %rdi,%rsi
  404e44:	48 8d 3d ae 4b 00 00 	lea    0x4bae(%rip),%rdi        # 4099f9 <short_opt+0x2f9>
  404e4b:	31 c0                	xor    %eax,%eax
  404e4d:	e8 ee d1 ff ff       	call   402040 <printf@plt>
  404e52:	bf 0a 00 00 00       	mov    $0xa,%edi
  404e57:	e8 c4 d2 ff ff       	call   402120 <putchar@plt>
  404e5c:	48 8d 3d a4 4d 00 00 	lea    0x4da4(%rip),%rdi        # 409c07 <short_opt+0x507>
  404e63:	e8 88 d2 ff ff       	call   4020f0 <puts@plt>
  404e68:	bf 0a 00 00 00       	mov    $0xa,%edi
  404e6d:	e8 ae d2 ff ff       	call   402120 <putchar@plt>
  404e72:	48 8d 3d a8 4d 00 00 	lea    0x4da8(%rip),%rdi        # 409c21 <short_opt+0x521>
  404e79:	e8 72 d2 ff ff       	call   4020f0 <puts@plt>
  404e7e:	48 8d 3d af 4d 00 00 	lea    0x4daf(%rip),%rdi        # 409c34 <short_opt+0x534>
  404e85:	e8 66 d2 ff ff       	call   4020f0 <puts@plt>
  404e8a:	48 8d 3d ca 4d 00 00 	lea    0x4dca(%rip),%rdi        # 409c5b <short_opt+0x55b>
  404e91:	e8 5a d2 ff ff       	call   4020f0 <puts@plt>
  404e96:	48 8d 3d 78 4b 00 00 	lea    0x4b78(%rip),%rdi        # 409a15 <short_opt+0x315>
  404e9d:	48 8d 35 1c 94 00 00 	lea    0x941c(%rip),%rsi        # 40e2c0 <d_srv_cfg_file>
  404ea4:	31 c0                	xor    %eax,%eax
  404ea6:	e8 95 d1 ff ff       	call   402040 <printf@plt>
  404eab:	48 8d 3d d5 4d 00 00 	lea    0x4dd5(%rip),%rdi        # 409c87 <short_opt+0x587>
  404eb2:	e8 39 d2 ff ff       	call   4020f0 <puts@plt>
  404eb7:	48 8d 05 14 94 00 00 	lea    0x9414(%rip),%rax        # 40e2d2 <d_num_of_threads>
  404ebe:	0f b6 30             	movzbl (%rax),%esi
  404ec1:	48 8d 3d 82 4b 00 00 	lea    0x4b82(%rip),%rdi        # 409a4a <short_opt+0x34a>
  404ec8:	31 c0                	xor    %eax,%eax
  404eca:	e8 71 d1 ff ff       	call   402040 <printf@plt>
  404ecf:	bf 0a 00 00 00       	mov    $0xa,%edi
  404ed4:	e8 47 d2 ff ff       	call   402120 <putchar@plt>
  404ed9:	48 8d 3d d1 4d 00 00 	lea    0x4dd1(%rip),%rdi        # 409cb1 <short_opt+0x5b1>
  404ee0:	e8 0b d2 ff ff       	call   4020f0 <puts@plt>
  404ee5:	48 8d 3d d6 4d 00 00 	lea    0x4dd6(%rip),%rdi        # 409cc2 <short_opt+0x5c2>
  404eec:	e8 ff d1 ff ff       	call   4020f0 <puts@plt>
  404ef1:	48 8d 3d 89 4b 00 00 	lea    0x4b89(%rip),%rdi        # 409a81 <short_opt+0x381>
  404ef8:	48 8d 35 d7 93 00 00 	lea    0x93d7(%rip),%rsi        # 40e2d6 <d_srv_dev>
  404eff:	31 c0                	xor    %eax,%eax
  404f01:	e8 3a d1 ff ff       	call   402040 <printf@plt>
  404f06:	48 8d 05 c7 93 00 00 	lea    0x93c7(%rip),%rax        # 40e2d4 <d_srv_mtu>
  404f0d:	0f b7 30             	movzwl (%rax),%esi
  404f10:	48 8d 3d af 4b 00 00 	lea    0x4baf(%rip),%rdi        # 409ac6 <short_opt+0x3c6>
  404f17:	31 c0                	xor    %eax,%eax
  404f19:	e8 22 d1 ff ff       	call   402040 <printf@plt>
  404f1e:	48 8d 3d d1 4b 00 00 	lea    0x4bd1(%rip),%rdi        # 409af6 <short_opt+0x3f6>
  404f25:	48 8d 35 b2 93 00 00 	lea    0x93b2(%rip),%rsi        # 40e2de <d_srv_ipv4>
  404f2c:	31 c0                	xor    %eax,%eax
  404f2e:	e8 0d d1 ff ff       	call   402040 <printf@plt>
  404f33:	48 8d 3d e7 4b 00 00 	lea    0x4be7(%rip),%rdi        # 409b21 <short_opt+0x421>
  404f3a:	48 8d 35 a6 93 00 00 	lea    0x93a6(%rip),%rsi        # 40e2e7 <d_srv_ipv4_netmask>
  404f41:	31 c0                	xor    %eax,%eax
  404f43:	e8 f8 d0 ff ff       	call   402040 <printf@plt>
  404f48:	bf 0a 00 00 00       	mov    $0xa,%edi
  404f4d:	e8 ce d1 ff ff       	call   402120 <putchar@plt>
  404f52:	48 8d 3d 85 4d 00 00 	lea    0x4d85(%rip),%rdi        # 409cde <short_opt+0x5de>
  404f59:	e8 92 d1 ff ff       	call   4020f0 <puts@plt>
  404f5e:	48 8d 3d 82 4d 00 00 	lea    0x4d82(%rip),%rdi        # 409ce7 <short_opt+0x5e7>
  404f65:	e8 86 d1 ff ff       	call   4020f0 <puts@plt>
  404f6a:	48 8d 3d c3 4d 00 00 	lea    0x4dc3(%rip),%rdi        # 409d34 <short_opt+0x634>
  404f71:	e8 7a d1 ff ff       	call   4020f0 <puts@plt>
  404f76:	48 8d 05 81 93 00 00 	lea    0x9381(%rip),%rax        # 40e2fe <d_srv_bind_port>
  404f7d:	0f b7 30             	movzwl (%rax),%esi
  404f80:	48 8d 3d d5 4b 00 00 	lea    0x4bd5(%rip),%rdi        # 409b5c <short_opt+0x45c>
  404f87:	31 c0                	xor    %eax,%eax
  404f89:	e8 b2 d0 ff ff       	call   402040 <printf@plt>
  404f8e:	48 8d 05 6b 93 00 00 	lea    0x936b(%rip),%rax        # 40e300 <d_srv_max_conn>
  404f95:	0f b7 30             	movzwl (%rax),%esi
  404f98:	48 8d 3d f3 4b 00 00 	lea    0x4bf3(%rip),%rdi        # 409b92 <short_opt+0x492>
  404f9f:	31 c0                	xor    %eax,%eax
  404fa1:	e8 9a d0 ff ff       	call   402040 <printf@plt>
  404fa6:	48 8d 05 57 93 00 00 	lea    0x9357(%rip),%rax        # 40e304 <d_srv_backlog>
  404fad:	8b 30                	mov    (%rax),%esi
  404faf:	48 8d 3d 14 4c 00 00 	lea    0x4c14(%rip),%rdi        # 409bca <short_opt+0x4ca>
  404fb6:	31 c0                	xor    %eax,%eax
  404fb8:	e8 83 d0 ff ff       	call   402040 <printf@plt>
  404fbd:	48 8d 3d aa 4d 00 00 	lea    0x4daa(%rip),%rdi        # 409d6e <short_opt+0x66e>
  404fc4:	e8 27 d1 ff ff       	call   4020f0 <puts@plt>
  404fc9:	48 8d 3d ca 4d 00 00 	lea    0x4dca(%rip),%rdi        # 409d9a <short_opt+0x69a>
  404fd0:	e8 1b d1 ff ff       	call   4020f0 <puts@plt>
  404fd5:	bf 0a 00 00 00       	mov    $0xa,%edi
  404fda:	e8 41 d1 ff ff       	call   402120 <putchar@plt>
  404fdf:	bf 0a 00 00 00       	mov    $0xa,%edi
  404fe4:	e8 37 d1 ff ff       	call   402120 <putchar@plt>
  404fe9:	48 8d 3d d9 4d 00 00 	lea    0x4dd9(%rip),%rdi        # 409dc9 <short_opt+0x6c9>
  404ff0:	e8 fb d0 ff ff       	call   4020f0 <puts@plt>
  404ff5:	48 8d 3d 0b 4e 00 00 	lea    0x4e0b(%rip),%rdi        # 409e07 <short_opt+0x707>
  404ffc:	e8 ef d0 ff ff       	call   4020f0 <puts@plt>
  405001:	bf 0a 00 00 00       	mov    $0xa,%edi
  405006:	e8 15 d1 ff ff       	call   402120 <putchar@plt>
  40500b:	48 8d 3d 2d 4e 00 00 	lea    0x4e2d(%rip),%rdi        # 409e3f <short_opt+0x73f>
  405012:	58                   	pop    %rax
  405013:	e9 d8 d0 ff ff       	jmp    4020f0 <puts@plt>
  405018:	0f 1f 84 00 00 00 00 	nopl   0x0(%rax,%rax,1)
  40501f:	00 

0000000000405020 <teavpn_server_tcp>:
  405020:	e9 fb e0 ff ff       	jmp    403120 <teavpn_server_tcp_handler>
  405025:	66 2e 0f 1f 84 00 00 	cs nopw 0x0(%rax,%rax,1)
  40502c:	00 00 00 
  40502f:	90                   	nop

0000000000405030 <teavpn_client_tcp_handler>:
  405030:	55                   	push   %rbp
  405031:	41 57                	push   %r15
  405033:	41 56                	push   %r14
  405035:	41 55                	push   %r13
  405037:	41 54                	push   %r12
  405039:	53                   	push   %rbx
  40503a:	48 81 ec e8 81 00 00 	sub    $0x81e8,%rsp
  405041:	48 89 fd             	mov    %rdi,%rbp
  405044:	64 48 8b 04 25 28 00 	mov    %fs:0x28,%rax
  40504b:	00 00 
  40504d:	48 89 84 24 e0 81 00 	mov    %rax,0x81e0(%rsp)
  405054:	00 
  405055:	48 8d 5c 24 28       	lea    0x28(%rsp),%rbx
  40505a:	ba 28 81 00 00       	mov    $0x8128,%edx
  40505f:	48 89 df             	mov    %rbx,%rdi
  405062:	31 f6                	xor    %esi,%esi
  405064:	e8 e7 cf ff ff       	call   402050 <memset@plt>
  405069:	48 89 6c 24 38       	mov    %rbp,0x38(%rsp)
  40506e:	48 89 1d e3 92 00 00 	mov    %rbx,0x92e3(%rip)        # 40e358 <g_state>
  405075:	48 8d 2d f4 10 00 00 	lea    0x10f4(%rip),%rbp        # 406170 <handle_interrupt>
  40507c:	bf 01 00 00 00       	mov    $0x1,%edi
  405081:	48 89 ee             	mov    %rbp,%rsi
  405084:	e8 a7 d2 ff ff       	call   402330 <signal@plt>
  405089:	bf 02 00 00 00       	mov    $0x2,%edi
  40508e:	48 89 ee             	mov    %rbp,%rsi
  405091:	e8 9a d2 ff ff       	call   402330 <signal@plt>
  405096:	bf 0f 00 00 00       	mov    $0xf,%edi
  40509b:	48 89 ee             	mov    %rbp,%rsi
  40509e:	e8 8d d2 ff ff       	call   402330 <signal@plt>
  4050a3:	bf 03 00 00 00       	mov    $0x3,%edi
  4050a8:	48 89 ee             	mov    %rbp,%rsi
  4050ab:	e8 80 d2 ff ff       	call   402330 <signal@plt>
  4050b0:	be 01 00 00 00       	mov    $0x1,%esi
  4050b5:	bf 0d 00 00 00       	mov    $0xd,%edi
  4050ba:	e8 71 d2 ff ff       	call   402330 <signal@plt>
  4050bf:	48 8d b4 24 50 81 00 	lea    0x8150(%rsp),%rsi
  4050c6:	00 
  4050c7:	bf 01 00 00 00       	mov    $0x1,%edi
  4050cc:	e8 1f 2b 00 00       	call   407bf0 <optimize_cpu_affinity>
  4050d1:	85 c0                	test   %eax,%eax
  4050d3:	74 3f                	je     405114 <teavpn_client_tcp_handler+0xe4>
  4050d5:	0f 57 c0             	xorps  %xmm0,%xmm0
  4050d8:	0f 11 83 18 81 00 00 	movups %xmm0,0x8118(%rbx)
  4050df:	0f 11 83 08 81 00 00 	movups %xmm0,0x8108(%rbx)
  4050e6:	0f 11 83 f8 80 00 00 	movups %xmm0,0x80f8(%rbx)
  4050ed:	0f 11 83 e8 80 00 00 	movups %xmm0,0x80e8(%rbx)
  4050f4:	0f 11 83 d8 80 00 00 	movups %xmm0,0x80d8(%rbx)
  4050fb:	0f 11 83 c8 80 00 00 	movups %xmm0,0x80c8(%rbx)
  405102:	0f 11 83 b8 80 00 00 	movups %xmm0,0x80b8(%rbx)
  405109:	0f 11 83 a8 80 00 00 	movups %xmm0,0x80a8(%rbx)
  405110:	31 c0                	xor    %eax,%eax
  405112:	eb 7a                	jmp    40518e <teavpn_client_tcp_handler+0x15e>
  405114:	0f 10 84 24 c8 81 00 	movups 0x81c8(%rsp),%xmm0
  40511b:	00 
  40511c:	0f 11 83 18 81 00 00 	movups %xmm0,0x8118(%rbx)
  405123:	0f 10 84 24 b8 81 00 	movups 0x81b8(%rsp),%xmm0
  40512a:	00 
  40512b:	0f 11 83 08 81 00 00 	movups %xmm0,0x8108(%rbx)
  405132:	0f 10 84 24 a8 81 00 	movups 0x81a8(%rsp),%xmm0
  405139:	00 
  40513a:	0f 11 83 f8 80 00 00 	movups %xmm0,0x80f8(%rbx)
  405141:	0f 10 84 24 98 81 00 	movups 0x8198(%rsp),%xmm0
  405148:	00 
  405149:	0f 11 83 e8 80 00 00 	movups %xmm0,0x80e8(%rbx)
  405150:	0f 10 84 24 58 81 00 	movups 0x8158(%rsp),%xmm0
  405157:	00 
  405158:	0f 10 8c 24 68 81 00 	movups 0x8168(%rsp),%xmm1
  40515f:	00 
  405160:	0f 10 94 24 78 81 00 	movups 0x8178(%rsp),%xmm2
  405167:	00 
  405168:	0f 10 9c 24 88 81 00 	movups 0x8188(%rsp),%xmm3
  40516f:	00 
  405170:	0f 11 9b d8 80 00 00 	movups %xmm3,0x80d8(%rbx)
  405177:	0f 11 93 c8 80 00 00 	movups %xmm2,0x80c8(%rbx)
  40517e:	0f 11 8b b8 80 00 00 	movups %xmm1,0x80b8(%rbx)
  405185:	0f 11 83 a8 80 00 00 	movups %xmm0,0x80a8(%rbx)
  40518c:	b0 01                	mov    $0x1,%al
  40518e:	88 84 24 cb 80 00 00 	mov    %al,0x80cb(%rsp)
  405195:	48 8d b4 24 50 81 00 	lea    0x8150(%rsp),%rsi
  40519c:	00 
  40519d:	bf ec ff ff ff       	mov    $0xffffffec,%edi
  4051a2:	e8 f9 2c 00 00       	call   407ea0 <optimize_process_priority>
  4051a7:	48 c7 44 24 28 ff ff 	movq   $0xffffffffffffffff,0x28(%rsp)
  4051ae:	ff ff 
  4051b0:	c7 44 24 30 ff ff ff 	movl   $0xffffffff,0x30(%rsp)
  4051b7:	ff 
  4051b8:	c6 44 24 34 00       	movb   $0x0,0x34(%rsp)
  4051bd:	c6 44 24 36 00       	movb   $0x0,0x36(%rsp)
  4051c2:	c6 84 24 ca 80 00 00 	movb   $0x0,0x80ca(%rsp)
  4051c9:	00 
  4051ca:	0f 57 c0             	xorps  %xmm0,%xmm0
  4051cd:	0f 11 44 24 40       	movups %xmm0,0x40(%rsp)
  4051d2:	48 8b 5c 24 38       	mov    0x38(%rsp),%rbx
  4051d7:	48 8b 73 10          	mov    0x10(%rbx),%rsi
  4051db:	48 8d 3d 78 3e 00 00 	lea    0x3e78(%rip),%rdi        # 40905a <_IO_stdin_used+0x5a>
  4051e2:	31 c0                	xor    %eax,%eax
  4051e4:	e8 c7 33 00 00       	call   4085b0 <__pr_notice>
  4051e9:	48 8b 7b 10          	mov    0x10(%rbx),%rdi
  4051ed:	be 01 10 00 00       	mov    $0x1001,%esi
  4051f2:	e8 09 1f 00 00       	call   407100 <tun_alloc>
  4051f7:	85 c0                	test   %eax,%eax
  4051f9:	0f 88 5c 0f 00 00    	js     40615b <teavpn_client_tcp_handler+0x112b>
  4051ff:	89 c3                	mov    %eax,%ebx
  405201:	89 c7                	mov    %eax,%edi
  405203:	e8 98 20 00 00       	call   4072a0 <fd_set_nonblock>
  405208:	85 c0                	test   %eax,%eax
  40520a:	0f 88 43 0e 00 00    	js     406053 <teavpn_client_tcp_handler+0x1023>
  405210:	89 5c 24 30          	mov    %ebx,0x30(%rsp)
  405214:	48 8b 44 24 38       	mov    0x38(%rsp),%rax
  405219:	4c 8b 68 28          	mov    0x28(%rax),%r13
  40521d:	44 0f b7 70 24       	movzwl 0x24(%rax),%r14d
  405222:	48 8d 3d a2 3f 00 00 	lea    0x3fa2(%rip),%rdi        # 4091cb <_IO_stdin_used+0x1cb>
  405229:	31 c0                	xor    %eax,%eax
  40522b:	e8 80 33 00 00       	call   4085b0 <__pr_notice>
  405230:	bf 02 00 00 00       	mov    $0x2,%edi
  405235:	be 01 08 00 00       	mov    $0x801,%esi
  40523a:	ba 06 00 00 00       	mov    $0x6,%edx
  40523f:	e8 2c d1 ff ff       	call   402370 <socket@plt>
  405244:	85 c0                	test   %eax,%eax
  405246:	0f 88 13 0e 00 00    	js     40605f <teavpn_client_tcp_handler+0x102f>
  40524c:	41 89 c7             	mov    %eax,%r15d
  40524f:	48 8d 3d 64 4c 00 00 	lea    0x4c64(%rip),%rdi        # 409eba <short_opt+0x7ba>
  405256:	31 c0                	xor    %eax,%eax
  405258:	e8 53 33 00 00       	call   4085b0 <__pr_notice>
  40525d:	c7 44 24 24 01 00 00 	movl   $0x1,0x24(%rsp)
  405264:	00 
  405265:	48 8d 4c 24 24       	lea    0x24(%rsp),%rcx
  40526a:	44 89 ff             	mov    %r15d,%edi
  40526d:	be 01 00 00 00       	mov    $0x1,%esi
  405272:	ba 02 00 00 00       	mov    $0x2,%edx
  405277:	41 b8 04 00 00 00    	mov    $0x4,%r8d
  40527d:	e8 2e cf ff ff       	call   4021b0 <setsockopt@plt>
  405282:	48 8d 1d da 3f 00 00 	lea    0x3fda(%rip),%rbx        # 409263 <_IO_stdin_used+0x263>
  405289:	85 c0                	test   %eax,%eax
  40528b:	0f 88 29 0e 00 00    	js     4060ba <teavpn_client_tcp_handler+0x108a>
  405291:	c7 44 24 24 01 00 00 	movl   $0x1,0x24(%rsp)
  405298:	00 
  405299:	48 8d 4c 24 24       	lea    0x24(%rsp),%rcx
  40529e:	44 89 ff             	mov    %r15d,%edi
  4052a1:	be 06 00 00 00       	mov    $0x6,%esi
  4052a6:	ba 01 00 00 00       	mov    $0x1,%edx
  4052ab:	41 b8 04 00 00 00    	mov    $0x4,%r8d
  4052b1:	e8 fa ce ff ff       	call   4021b0 <setsockopt@plt>
  4052b6:	85 c0                	test   %eax,%eax
  4052b8:	0f 88 08 0e 00 00    	js     4060c6 <teavpn_client_tcp_handler+0x1096>
  4052be:	31 f6                	xor    %esi,%esi
  4052c0:	48 89 f0             	mov    %rsi,%rax
  4052c3:	48 c1 e8 06          	shr    $0x6,%rax
  4052c7:	48 8b 8c c4 d0 80 00 	mov    0x80d0(%rsp,%rax,8),%rcx
  4052ce:	00 
  4052cf:	89 f2                	mov    %esi,%edx
  4052d1:	80 e2 3e             	and    $0x3e,%dl
  4052d4:	0f b6 d2             	movzbl %dl,%edx
  4052d7:	48 0f a3 d1          	bt     %rdx,%rcx
  4052db:	72 27                	jb     405304 <teavpn_client_tcp_handler+0x2d4>
  4052dd:	48 8b 84 c4 d0 80 00 	mov    0x80d0(%rsp,%rax,8),%rax
  4052e4:	00 
  4052e5:	8d 4e 01             	lea    0x1(%rsi),%ecx
  4052e8:	0f b6 c9             	movzbl %cl,%ecx
  4052eb:	48 0f a3 c8          	bt     %rcx,%rax
  4052ef:	72 0f                	jb     405300 <teavpn_client_tcp_handler+0x2d0>
  4052f1:	48 83 c6 02          	add    $0x2,%rsi
  4052f5:	48 81 fe 00 04 00 00 	cmp    $0x400,%rsi
  4052fc:	75 c2                	jne    4052c0 <teavpn_client_tcp_handler+0x290>
  4052fe:	eb 47                	jmp    405347 <teavpn_client_tcp_handler+0x317>
  405300:	48 83 c6 01          	add    $0x1,%rsi
  405304:	89 74 24 24          	mov    %esi,0x24(%rsp)
  405308:	48 8d 05 29 90 00 00 	lea    0x9029(%rip),%rax        # 40e338 <__notice_level>
  40530f:	80 38 03             	cmpb   $0x3,(%rax)
  405312:	76 0e                	jbe    405322 <teavpn_client_tcp_handler+0x2f2>
  405314:	48 8d 3d 29 4c 00 00 	lea    0x4c29(%rip),%rdi        # 409f44 <short_opt+0x844>
  40531b:	31 c0                	xor    %eax,%eax
  40531d:	e8 8e 32 00 00       	call   4085b0 <__pr_notice>
  405322:	48 8d 4c 24 24       	lea    0x24(%rsp),%rcx
  405327:	44 89 ff             	mov    %r15d,%edi
  40532a:	be 01 00 00 00       	mov    $0x1,%esi
  40532f:	ba 31 00 00 00       	mov    $0x31,%edx
  405334:	41 b8 04 00 00 00    	mov    $0x4,%r8d
  40533a:	e8 71 ce ff ff       	call   4021b0 <setsockopt@plt>
  40533f:	85 c0                	test   %eax,%eax
  405341:	0f 88 bb 0d 00 00    	js     406102 <teavpn_client_tcp_handler+0x10d2>
  405347:	c7 44 24 24 06 00 00 	movl   $0x6,0x24(%rsp)
  40534e:	00 
  40534f:	48 8d 4c 24 24       	lea    0x24(%rsp),%rcx
  405354:	44 89 ff             	mov    %r15d,%edi
  405357:	be 01 00 00 00       	mov    $0x1,%esi
  40535c:	ba 0c 00 00 00       	mov    $0xc,%edx
  405361:	41 b8 04 00 00 00    	mov    $0x4,%r8d
  405367:	e8 44 ce ff ff       	call   4021b0 <setsockopt@plt>
  40536c:	48 8d 2d 2c 3f 00 00 	lea    0x3f2c(%rip),%rbp        # 40929f <_IO_stdin_used+0x29f>
  405373:	85 c0                	test   %eax,%eax
  405375:	0f 88 5e 0d 00 00    	js     4060d9 <teavpn_client_tcp_handler+0x10a9>
  40537b:	c7 44 24 24 00 00 40 	movl   $0x400000,0x24(%rsp)
  405382:	00 
  405383:	48 8d 4c 24 24       	lea    0x24(%rsp),%rcx
  405388:	44 89 ff             	mov    %r15d,%edi
  40538b:	be 01 00 00 00       	mov    $0x1,%esi
  405390:	ba 21 00 00 00       	mov    $0x21,%edx
  405395:	41 b8 04 00 00 00    	mov    $0x4,%r8d
  40539b:	e8 10 ce ff ff       	call   4021b0 <setsockopt@plt>
  4053a0:	85 c0                	test   %eax,%eax
  4053a2:	0f 88 3d 0d 00 00    	js     4060e5 <teavpn_client_tcp_handler+0x10b5>
  4053a8:	c7 44 24 24 00 00 40 	movl   $0x400000,0x24(%rsp)
  4053af:	00 
  4053b0:	48 8d 4c 24 24       	lea    0x24(%rsp),%rcx
  4053b5:	44 89 ff             	mov    %r15d,%edi
  4053b8:	be 01 00 00 00       	mov    $0x1,%esi
  4053bd:	ba 20 00 00 00       	mov    $0x20,%edx
  4053c2:	41 b8 04 00 00 00    	mov    $0x4,%r8d
  4053c8:	e8 e3 cd ff ff       	call   4021b0 <setsockopt@plt>
  4053cd:	85 c0                	test   %eax,%eax
  4053cf:	0f 88 15 0d 00 00    	js     4060ea <teavpn_client_tcp_handler+0x10ba>
  4053d5:	c7 44 24 24 50 c3 00 	movl   $0xc350,0x24(%rsp)
  4053dc:	00 
  4053dd:	48 8d 4c 24 24       	lea    0x24(%rsp),%rcx
  4053e2:	44 89 ff             	mov    %r15d,%edi
  4053e5:	be 01 00 00 00       	mov    $0x1,%esi
  4053ea:	ba 2e 00 00 00       	mov    $0x2e,%edx
  4053ef:	41 b8 04 00 00 00    	mov    $0x4,%r8d
  4053f5:	e8 b6 cd ff ff       	call   4021b0 <setsockopt@plt>
  4053fa:	85 c0                	test   %eax,%eax
  4053fc:	0f 88 f4 0c 00 00    	js     4060f6 <teavpn_client_tcp_handler+0x10c6>
  405402:	66 c7 84 24 50 81 00 	movw   $0x2,0x8150(%rsp)
  405409:	00 02 00 
  40540c:	44 89 f0             	mov    %r14d,%eax
  40540f:	66 c1 c0 08          	rol    $0x8,%ax
  405413:	66 89 84 24 52 81 00 	mov    %ax,0x8152(%rsp)
  40541a:	00 
  40541b:	48 8d 94 24 54 81 00 	lea    0x8154(%rsp),%rdx
  405422:	00 
  405423:	bf 02 00 00 00       	mov    $0x2,%edi
  405428:	4c 89 ee             	mov    %r13,%rsi
  40542b:	e8 60 cc ff ff       	call   402090 <inet_pton@plt>
  405430:	85 c0                	test   %eax,%eax
  405432:	74 78                	je     4054ac <teavpn_client_tcp_handler+0x47c>
  405434:	48 8d 3d c1 4a 00 00 	lea    0x4ac1(%rip),%rdi        # 409efc <short_opt+0x7fc>
  40543b:	4c 89 ee             	mov    %r13,%rsi
  40543e:	44 89 f2             	mov    %r14d,%edx
  405441:	31 c0                	xor    %eax,%eax
  405443:	e8 68 31 00 00       	call   4085b0 <__pr_notice>
  405448:	48 8d 9c 24 50 81 00 	lea    0x8150(%rsp),%rbx
  40544f:	00 
  405450:	44 89 ff             	mov    %r15d,%edi
  405453:	48 89 de             	mov    %rbx,%rsi
  405456:	ba 10 00 00 00       	mov    $0x10,%edx
  40545b:	e8 a0 ce ff ff       	call   402300 <connect@plt>
  405460:	85 c0                	test   %eax,%eax
  405462:	0f 89 84 00 00 00    	jns    4054ec <teavpn_client_tcp_handler+0x4bc>
  405468:	e8 23 cf ff ff       	call   402390 <__errno_location@plt>
  40546d:	8b 28                	mov    (%rax),%ebp
  40546f:	89 e8                	mov    %ebp,%eax
  405471:	83 e0 fe             	and    $0xfffffffe,%eax
  405474:	83 f8 72             	cmp    $0x72,%eax
  405477:	75 11                	jne    40548a <teavpn_client_tcp_handler+0x45a>
  405479:	bf 88 13 00 00       	mov    $0x1388,%edi
  40547e:	e8 2d ce ff ff       	call   4022b0 <usleep@plt>
  405483:	80 7c 24 34 01       	cmpb   $0x1,0x34(%rsp)
  405488:	75 c6                	jne    405450 <teavpn_client_tcp_handler+0x420>
  40548a:	41 89 ec             	mov    %ebp,%r12d
  40548d:	41 f7 dc             	neg    %r12d
  405490:	89 ef                	mov    %ebp,%edi
  405492:	e8 29 ce ff ff       	call   4022c0 <strerror@plt>
  405497:	48 8d 3d 75 4a 00 00 	lea    0x4a75(%rip),%rdi        # 409f13 <short_opt+0x813>
  40549e:	89 ee                	mov    %ebp,%esi
  4054a0:	48 89 c2             	mov    %rax,%rdx
  4054a3:	31 c0                	xor    %eax,%eax
  4054a5:	e8 06 2b 00 00       	call   407fb0 <__pr_error>
  4054aa:	eb 29                	jmp    4054d5 <teavpn_client_tcp_handler+0x4a5>
  4054ac:	bf 16 00 00 00       	mov    $0x16,%edi
  4054b1:	e8 0a ce ff ff       	call   4022c0 <strerror@plt>
  4054b6:	48 8d 3d 22 4a 00 00 	lea    0x4a22(%rip),%rdi        # 409edf <short_opt+0x7df>
  4054bd:	4c 89 ee             	mov    %r13,%rsi
  4054c0:	ba 16 00 00 00       	mov    $0x16,%edx
  4054c5:	48 89 c1             	mov    %rax,%rcx
  4054c8:	31 c0                	xor    %eax,%eax
  4054ca:	e8 e1 2a 00 00       	call   407fb0 <__pr_error>
  4054cf:	41 bc ea ff ff ff    	mov    $0xffffffea,%r12d
  4054d5:	45 85 ff             	test   %r15d,%r15d
  4054d8:	7e 08                	jle    4054e2 <teavpn_client_tcp_handler+0x4b2>
  4054da:	44 89 ff             	mov    %r15d,%edi
  4054dd:	e8 be cb ff ff       	call   4020a0 <close@plt>
  4054e2:	45 85 e4             	test   %r12d,%r12d
  4054e5:	79 18                	jns    4054ff <teavpn_client_tcp_handler+0x4cf>
  4054e7:	e9 85 0a 00 00       	jmp    405f71 <teavpn_client_tcp_handler+0xf41>
  4054ec:	44 89 7c 24 2c       	mov    %r15d,0x2c(%rsp)
  4054f1:	48 8d 3d 34 4a 00 00 	lea    0x4a34(%rip),%rdi        # 409f2c <short_opt+0x82c>
  4054f8:	31 c0                	xor    %eax,%eax
  4054fa:	e8 b1 30 00 00       	call   4085b0 <__pr_notice>
  4054ff:	44 8b 74 24 2c       	mov    0x2c(%rsp),%r14d
  405504:	8b 6c 24 30          	mov    0x30(%rsp),%ebp
  405508:	48 8d 3d 79 4a 00 00 	lea    0x4a79(%rip),%rdi        # 409f88 <short_opt+0x888>
  40550f:	31 c0                	xor    %eax,%eax
  405511:	e8 9a 30 00 00       	call   4085b0 <__pr_notice>
  405516:	bf 03 00 00 00       	mov    $0x3,%edi
  40551b:	e8 c0 cb ff ff       	call   4020e0 <epoll_create@plt>
  405520:	85 c0                	test   %eax,%eax
  405522:	0f 88 6c 0b 00 00    	js     406094 <teavpn_client_tcp_handler+0x1064>
  405528:	89 c3                	mov    %eax,%ebx
  40552a:	c7 84 24 58 81 00 00 	movl   $0x0,0x8158(%rsp)
  405531:	00 00 00 00 
  405535:	c7 84 24 50 81 00 00 	movl   $0x3,0x8150(%rsp)
  40553c:	03 00 00 00 
  405540:	89 ac 24 54 81 00 00 	mov    %ebp,0x8154(%rsp)
  405547:	48 8d 8c 24 50 81 00 	lea    0x8150(%rsp),%rcx
  40554e:	00 
  40554f:	89 c7                	mov    %eax,%edi
  405551:	be 01 00 00 00       	mov    $0x1,%esi
  405556:	89 ea                	mov    %ebp,%edx
  405558:	e8 73 cd ff ff       	call   4022d0 <epoll_ctl@plt>
  40555d:	85 c0                	test   %eax,%eax
  40555f:	0f 88 c5 0a 00 00    	js     40602a <teavpn_client_tcp_handler+0xffa>
  405565:	c7 84 24 58 81 00 00 	movl   $0x0,0x8158(%rsp)
  40556c:	00 00 00 00 
  405570:	c7 84 24 50 81 00 00 	movl   $0x3,0x8150(%rsp)
  405577:	03 00 00 00 
  40557b:	44 89 b4 24 54 81 00 	mov    %r14d,0x8154(%rsp)
  405582:	00 
  405583:	48 8d 8c 24 50 81 00 	lea    0x8150(%rsp),%rcx
  40558a:	00 
  40558b:	89 df                	mov    %ebx,%edi
  40558d:	be 01 00 00 00       	mov    $0x1,%esi
  405592:	44 89 f2             	mov    %r14d,%edx
  405595:	e8 36 cd ff ff       	call   4022d0 <epoll_ctl@plt>
  40559a:	85 c0                	test   %eax,%eax
  40559c:	0f 88 88 0a 00 00    	js     40602a <teavpn_client_tcp_handler+0xffa>
  4055a2:	89 5c 24 28          	mov    %ebx,0x28(%rsp)
  4055a6:	48 8d 05 8b 8d 00 00 	lea    0x8d8b(%rip),%rax        # 40e338 <__notice_level>
  4055ad:	80 38 02             	cmpb   $0x2,(%rax)
  4055b0:	72 0e                	jb     4055c0 <teavpn_client_tcp_handler+0x590>
  4055b2:	48 8d 3d e8 49 00 00 	lea    0x49e8(%rip),%rdi        # 409fa1 <short_opt+0x8a1>
  4055b9:	31 c0                	xor    %eax,%eax
  4055bb:	e8 f0 2f 00 00       	call   4085b0 <__pr_notice>
  4055c0:	48 8d 5c 24 58       	lea    0x58(%rsp),%rbx
  4055c5:	48 c7 44 24 5c 00 00 	movq   $0x0,0x5c(%rsp)
  4055cc:	00 00 
  4055ce:	c7 44 24 63 00 00 00 	movl   $0x0,0x63(%rsp)
  4055d5:	00 
  4055d6:	c6 44 24 5e 01       	movb   $0x1,0x5e(%rsp)
  4055db:	48 8d 7c 24 5f       	lea    0x5f(%rsp),%rdi
  4055e0:	48 8d 35 ec 57 00 00 	lea    0x57ec(%rip),%rsi        # 40add3 <license_text_teavpn2+0x323>
  4055e7:	ba 07 00 00 00       	mov    $0x7,%edx
  4055ec:	e8 4f ce ff ff       	call   402440 <strncpy@plt>
  4055f1:	c6 44 24 66 00       	movb   $0x0,0x66(%rsp)
  4055f6:	c7 44 24 58 00 00 00 	movl   $0xb000000,0x58(%rsp)
  4055fd:	0b 
  4055fe:	48 8d 7c 24 28       	lea    0x28(%rsp),%rdi
  405603:	ba 0f 00 00 00       	mov    $0xf,%edx
  405608:	48 89 de             	mov    %rbx,%rsi
  40560b:	e8 a0 0b 00 00       	call   4061b0 <send_to_server>
  405610:	41 bc ff ff ff ff    	mov    $0xffffffff,%r12d
  405616:	48 85 c0             	test   %rax,%rax
  405619:	0f 8e 52 09 00 00    	jle    405f71 <teavpn_client_tcp_handler+0xf41>
  40561f:	48 8d 3d 6a 48 00 00 	lea    0x486a(%rip),%rdi        # 409e90 <short_opt+0x790>
  405626:	45 31 e4             	xor    %r12d,%r12d
  405629:	31 c0                	xor    %eax,%eax
  40562b:	e8 80 2f 00 00       	call   4085b0 <__pr_notice>
  405630:	44 8b 7c 24 28       	mov    0x28(%rsp),%r15d
  405635:	0f 57 c0             	xorps  %xmm0,%xmm0
  405638:	0f 29 84 24 60 81 00 	movaps %xmm0,0x8160(%rsp)
  40563f:	00 
  405640:	0f 29 84 24 50 81 00 	movaps %xmm0,0x8150(%rsp)
  405647:	00 
  405648:	c7 84 24 70 81 00 00 	movl   $0x0,0x8170(%rsp)
  40564f:	00 00 00 00 
  405653:	80 7c 24 34 01       	cmpb   $0x1,0x34(%rsp)
  405658:	0f 84 13 09 00 00    	je     405f71 <teavpn_client_tcp_handler+0xf41>
  40565e:	48 8d b4 24 50 81 00 	lea    0x8150(%rsp),%rsi
  405665:	00 
  405666:	44 89 ff             	mov    %r15d,%edi
  405669:	ba 03 00 00 00       	mov    $0x3,%edx
  40566e:	b9 32 00 00 00       	mov    $0x32,%ecx
  405673:	e8 68 cd ff ff       	call   4023e0 <epoll_wait@plt>
  405678:	85 c0                	test   %eax,%eax
  40567a:	0f 84 61 08 00 00    	je     405ee1 <teavpn_client_tcp_handler+0xeb1>
  405680:	41 89 c4             	mov    %eax,%r12d
  405683:	0f 88 6c 08 00 00    	js     405ef5 <teavpn_client_tcp_handler+0xec5>
  405689:	44 89 e0             	mov    %r12d,%eax
  40568c:	48 89 44 24 18       	mov    %rax,0x18(%rsp)
  405691:	45 31 ed             	xor    %r13d,%r13d
  405694:	eb 29                	jmp    4056bf <teavpn_client_tcp_handler+0x68f>
  405696:	e8 f5 cc ff ff       	call   402390 <__errno_location@plt>
  40569b:	8b 28                	mov    (%rax),%ebp
  40569d:	83 fd 0b             	cmp    $0xb,%ebp
  4056a0:	0f 85 ae 08 00 00    	jne    405f54 <teavpn_client_tcp_handler+0xf24>
  4056a6:	66 2e 0f 1f 84 00 00 	cs nopw 0x0(%rax,%rax,1)
  4056ad:	00 00 00 
  4056b0:	49 83 c5 01          	add    $0x1,%r13
  4056b4:	4c 3b 6c 24 18       	cmp    0x18(%rsp),%r13
  4056b9:	0f 84 51 08 00 00    	je     405f10 <teavpn_client_tcp_handler+0xee0>
  4056bf:	4a 8d 0c 6d 00 00 00 	lea    0x0(,%r13,2),%rcx
  4056c6:	00 
  4056c7:	4c 01 e9             	add    %r13,%rcx
  4056ca:	8b 84 8c 50 81 00 00 	mov    0x8150(%rsp,%rcx,4),%eax
  4056d1:	44 8b b4 8c 54 81 00 	mov    0x8154(%rsp,%rcx,4),%r14d
  4056d8:	00 
  4056d9:	44 3b 74 24 30       	cmp    0x30(%rsp),%r14d
  4056de:	0f 85 44 03 00 00    	jne    405a28 <teavpn_client_tcp_handler+0x9f8>
  4056e4:	41 bc ff ff ff ff    	mov    $0xffffffff,%r12d
  4056ea:	a8 18                	test   $0x18,%al
  4056ec:	0f 85 7f 08 00 00    	jne    405f71 <teavpn_client_tcp_handler+0xf41>
  4056f2:	83 44 24 48 01       	addl   $0x1,0x48(%rsp)
  4056f7:	ba 00 10 00 00       	mov    $0x1000,%edx
  4056fc:	44 89 f7             	mov    %r14d,%edi
  4056ff:	48 8d 74 24 5c       	lea    0x5c(%rsp),%rsi
  405704:	e8 37 ca ff ff       	call   402140 <read@plt>
  405709:	48 85 c0             	test   %rax,%rax
  40570c:	78 88                	js     405696 <teavpn_client_tcp_handler+0x666>
  40570e:	74 a0                	je     4056b0 <teavpn_client_tcp_handler+0x680>
  405710:	66 c7 44 24 58 03 00 	movw   $0x3,0x58(%rsp)
  405717:	0f b7 d0             	movzwl %ax,%edx
  40571a:	66 c1 c0 08          	rol    $0x8,%ax
  40571e:	66 89 44 24 5a       	mov    %ax,0x5a(%rsp)
  405723:	48 83 c2 04          	add    $0x4,%rdx
  405727:	48 8d 7c 24 28       	lea    0x28(%rsp),%rdi
  40572c:	48 89 de             	mov    %rbx,%rsi
  40572f:	e8 7c 0a 00 00       	call   4061b0 <send_to_server>
  405734:	83 44 24 48 01       	addl   $0x1,0x48(%rsp)
  405739:	ba 00 10 00 00       	mov    $0x1000,%edx
  40573e:	44 89 f7             	mov    %r14d,%edi
  405741:	48 8d 74 24 5c       	lea    0x5c(%rsp),%rsi
  405746:	e8 f5 c9 ff ff       	call   402140 <read@plt>
  40574b:	48 85 c0             	test   %rax,%rax
  40574e:	0f 88 42 ff ff ff    	js     405696 <teavpn_client_tcp_handler+0x666>
  405754:	0f 84 56 ff ff ff    	je     4056b0 <teavpn_client_tcp_handler+0x680>
  40575a:	66 c7 44 24 58 03 00 	movw   $0x3,0x58(%rsp)
  405761:	0f b7 d0             	movzwl %ax,%edx
  405764:	66 c1 c0 08          	rol    $0x8,%ax
  405768:	66 89 44 24 5a       	mov    %ax,0x5a(%rsp)
  40576d:	48 83 c2 04          	add    $0x4,%rdx
  405771:	48 8d 7c 24 28       	lea    0x28(%rsp),%rdi
  405776:	48 89 de             	mov    %rbx,%rsi
  405779:	e8 32 0a 00 00       	call   4061b0 <send_to_server>
  40577e:	83 44 24 48 01       	addl   $0x1,0x48(%rsp)
  405783:	ba 00 10 00 00       	mov    $0x1000,%edx
  405788:	44 89 f7             	mov    %r14d,%edi
  40578b:	48 8d 74 24 5c       	lea    0x5c(%rsp),%rsi
  405790:	e8 ab c9 ff ff       	call   402140 <read@plt>
  405795:	48 85 c0             	test   %rax,%rax
  405798:	0f 88 f8 fe ff ff    	js     405696 <teavpn_client_tcp_handler+0x666>
  40579e:	0f 84 0c ff ff ff    	je     4056b0 <teavpn_client_tcp_handler+0x680>
  4057a4:	66 c7 44 24 58 03 00 	movw   $0x3,0x58(%rsp)
  4057ab:	0f b7 d0             	movzwl %ax,%edx
  4057ae:	66 c1 c0 08          	rol    $0x8,%ax
  4057b2:	66 89 44 24 5a       	mov    %ax,0x5a(%rsp)
  4057b7:	48 83 c2 04          	add    $0x4,%rdx
  4057bb:	48 8d 7c 24 28       	lea    0x28(%rsp),%rdi
  4057c0:	48 89 de             	mov    %rbx,%rsi
  4057c3:	e8 e8 09 00 00       	call   4061b0 <send_to_server>
  4057c8:	83 44 24 48 01       	addl   $0x1,0x48(%rsp)
  4057cd:	ba 00 10 00 00       	mov    $0x1000,%edx
  4057d2:	44 89 f7             	mov    %r14d,%edi
  4057d5:	48 8d 74 24 5c       	lea    0x5c(%rsp),%rsi
  4057da:	e8 61 c9 ff ff       	call   402140 <read@plt>
  4057df:	48 85 c0             	test   %rax,%rax
  4057e2:	0f 88 ae fe ff ff    	js     405696 <teavpn_client_tcp_handler+0x666>
  4057e8:	0f 84 c2 fe ff ff    	je     4056b0 <teavpn_client_tcp_handler+0x680>
  4057ee:	66 c7 44 24 58 03 00 	movw   $0x3,0x58(%rsp)
  4057f5:	0f b7 d0             	movzwl %ax,%edx
  4057f8:	66 c1 c0 08          	rol    $0x8,%ax
  4057fc:	66 89 44 24 5a       	mov    %ax,0x5a(%rsp)
  405801:	48 83 c2 04          	add    $0x4,%rdx
  405805:	48 8d 7c 24 28       	lea    0x28(%rsp),%rdi
  40580a:	48 89 de             	mov    %rbx,%rsi
  40580d:	e8 9e 09 00 00       	call   4061b0 <send_to_server>
  405812:	83 44 24 48 01       	addl   $0x1,0x48(%rsp)
  405817:	ba 00 10 00 00       	mov    $0x1000,%edx
  40581c:	44 89 f7             	mov    %r14d,%edi
  40581f:	48 8d 74 24 5c       	lea    0x5c(%rsp),%rsi
  405824:	e8 17 c9 ff ff       	call   402140 <read@plt>
  405829:	48 85 c0             	test   %rax,%rax
  40582c:	0f 88 64 fe ff ff    	js     405696 <teavpn_client_tcp_handler+0x666>
  405832:	0f 84 78 fe ff ff    	je     4056b0 <teavpn_client_tcp_handler+0x680>
  405838:	66 c7 44 24 58 03 00 	movw   $0x3,0x58(%rsp)
  40583f:	0f b7 d0             	movzwl %ax,%edx
  405842:	66 c1 c0 08          	rol    $0x8,%ax
  405846:	66 89 44 24 5a       	mov    %ax,0x5a(%rsp)
  40584b:	48 83 c2 04          	add    $0x4,%rdx
  40584f:	48 8d 7c 24 28       	lea    0x28(%rsp),%rdi
  405854:	48 89 de             	mov    %rbx,%rsi
  405857:	e8 54 09 00 00       	call   4061b0 <send_to_server>
  40585c:	83 44 24 48 01       	addl   $0x1,0x48(%rsp)
  405861:	ba 00 10 00 00       	mov    $0x1000,%edx
  405866:	44 89 f7             	mov    %r14d,%edi
  405869:	48 8d 74 24 5c       	lea    0x5c(%rsp),%rsi
  40586e:	e8 cd c8 ff ff       	call   402140 <read@plt>
  405873:	48 85 c0             	test   %rax,%rax
  405876:	0f 88 1a fe ff ff    	js     405696 <teavpn_client_tcp_handler+0x666>
  40587c:	0f 84 2e fe ff ff    	je     4056b0 <teavpn_client_tcp_handler+0x680>
  405882:	66 c7 44 24 58 03 00 	movw   $0x3,0x58(%rsp)
  405889:	0f b7 d0             	movzwl %ax,%edx
  40588c:	66 c1 c0 08          	rol    $0x8,%ax
  405890:	66 89 44 24 5a       	mov    %ax,0x5a(%rsp)
  405895:	48 83 c2 04          	add    $0x4,%rdx
  405899:	48 8d 7c 24 28       	lea    0x28(%rsp),%rdi
  40589e:	48 89 de             	mov    %rbx,%rsi
  4058a1:	e8 0a 09 00 00       	call   4061b0 <send_to_server>
  4058a6:	83 44 24 48 01       	addl   $0x1,0x48(%rsp)
  4058ab:	ba 00 10 00 00       	mov    $0x1000,%edx
  4058b0:	44 89 f7             	mov    %r14d,%edi
  4058b3:	48 8d 74 24 5c       	lea    0x5c(%rsp),%rsi
  4058b8:	e8 83 c8 ff ff       	call   402140 <read@plt>
  4058bd:	48 85 c0             	test   %rax,%rax
  4058c0:	0f 88 d0 fd ff ff    	js     405696 <teavpn_client_tcp_handler+0x666>
  4058c6:	0f 84 e4 fd ff ff    	je     4056b0 <teavpn_client_tcp_handler+0x680>
  4058cc:	66 c7 44 24 58 03 00 	movw   $0x3,0x58(%rsp)
  4058d3:	0f b7 d0             	movzwl %ax,%edx
  4058d6:	66 c1 c0 08          	rol    $0x8,%ax
  4058da:	66 89 44 24 5a       	mov    %ax,0x5a(%rsp)
  4058df:	48 83 c2 04          	add    $0x4,%rdx
  4058e3:	48 8d 7c 24 28       	lea    0x28(%rsp),%rdi
  4058e8:	48 89 de             	mov    %rbx,%rsi
  4058eb:	e8 c0 08 00 00       	call   4061b0 <send_to_server>
  4058f0:	83 44 24 48 01       	addl   $0x1,0x48(%rsp)
  4058f5:	ba 00 10 00 00       	mov    $0x1000,%edx
  4058fa:	44 89 f7             	mov    %r14d,%edi
  4058fd:	48 8d 74 24 5c       	lea    0x5c(%rsp),%rsi
  405902:	e8 39 c8 ff ff       	call   402140 <read@plt>
  405907:	48 85 c0             	test   %rax,%rax
  40590a:	0f 88 86 fd ff ff    	js     405696 <teavpn_client_tcp_handler+0x666>
  405910:	0f 84 9a fd ff ff    	je     4056b0 <teavpn_client_tcp_handler+0x680>
  405916:	66 c7 44 24 58 03 00 	movw   $0x3,0x58(%rsp)
  40591d:	0f b7 d0             	movzwl %ax,%edx
  405920:	66 c1 c0 08          	rol    $0x8,%ax
  405924:	66 89 44 24 5a       	mov    %ax,0x5a(%rsp)
  405929:	48 83 c2 04          	add    $0x4,%rdx
  40592d:	48 8d 7c 24 28       	lea    0x28(%rsp),%rdi
  405932:	48 89 de             	mov    %rbx,%rsi
  405935:	e8 76 08 00 00       	call   4061b0 <send_to_server>
  40593a:	83 44 24 48 01       	addl   $0x1,0x48(%rsp)
  40593f:	ba 00 10 00 00       	mov    $0x1000,%edx
  405944:	44 89 f7             	mov    %r14d,%edi
  405947:	48 8d 74 24 5c       	lea    0x5c(%rsp),%rsi
  40594c:	e8 ef c7 ff ff       	call   402140 <read@plt>
  405951:	48 85 c0             	test   %rax,%rax
  405954:	0f 88 3c fd ff ff    	js     405696 <teavpn_client_tcp_handler+0x666>
  40595a:	0f 84 50 fd ff ff    	je     4056b0 <teavpn_client_tcp_handler+0x680>
  405960:	66 c7 44 24 58 03 00 	movw   $0x3,0x58(%rsp)
  405967:	0f b7 d0             	movzwl %ax,%edx
  40596a:	66 c1 c0 08          	rol    $0x8,%ax
  40596e:	66 89 44 24 5a       	mov    %ax,0x5a(%rsp)
  405973:	48 83 c2 04          	add    $0x4,%rdx
  405977:	48 8d 7c 24 28       	lea    0x28(%rsp),%rdi
  40597c:	48 89 de             	mov    %rbx,%rsi
  40597f:	e8 2c 08 00 00       	call   4061b0 <send_to_server>
  405984:	83 44 24 48 01       	addl   $0x1,0x48(%rsp)
  405989:	ba 00 10 00 00       	mov    $0x1000,%edx
  40598e:	44 89 f7             	mov    %r14d,%edi
  405991:	48 8d 74 24 5c       	lea    0x5c(%rsp),%rsi
  405996:	e8 a5 c7 ff ff       	call   402140 <read@plt>
  40599b:	48 85 c0             	test   %rax,%rax
  40599e:	0f 88 f2 fc ff ff    	js     405696 <teavpn_client_tcp_handler+0x666>
  4059a4:	0f 84 06 fd ff ff    	je     4056b0 <teavpn_client_tcp_handler+0x680>
  4059aa:	66 c7 44 24 58 03 00 	movw   $0x3,0x58(%rsp)
  4059b1:	0f b7 d0             	movzwl %ax,%edx
  4059b4:	66 c1 c0 08          	rol    $0x8,%ax
  4059b8:	66 89 44 24 5a       	mov    %ax,0x5a(%rsp)
  4059bd:	48 83 c2 04          	add    $0x4,%rdx
  4059c1:	48 8d 7c 24 28       	lea    0x28(%rsp),%rdi
  4059c6:	48 89 de             	mov    %rbx,%rsi
  4059c9:	e8 e2 07 00 00       	call   4061b0 <send_to_server>
  4059ce:	83 44 24 48 01       	addl   $0x1,0x48(%rsp)
  4059d3:	ba 00 10 00 00       	mov    $0x1000,%edx
  4059d8:	44 89 f7             	mov    %r14d,%edi
  4059db:	48 8d 74 24 5c       	lea    0x5c(%rsp),%rsi
  4059e0:	e8 5b c7 ff ff       	call   402140 <read@plt>
  4059e5:	48 85 c0             	test   %rax,%rax
  4059e8:	0f 88 a8 fc ff ff    	js     405696 <teavpn_client_tcp_handler+0x666>
  4059ee:	0f 84 bc fc ff ff    	je     4056b0 <teavpn_client_tcp_handler+0x680>
  4059f4:	48 89 c5             	mov    %rax,%rbp
  4059f7:	66 c7 44 24 58 03 00 	movw   $0x3,0x58(%rsp)
  4059fe:	0f b7 d5             	movzwl %bp,%edx
  405a01:	66 c1 c0 08          	rol    $0x8,%ax
  405a05:	66 89 44 24 5a       	mov    %ax,0x5a(%rsp)
  405a0a:	48 83 c2 04          	add    $0x4,%rdx
  405a0e:	48 8d 7c 24 28       	lea    0x28(%rsp),%rdi
  405a13:	48 89 de             	mov    %rbx,%rsi
  405a16:	e8 95 07 00 00       	call   4061b0 <send_to_server>
  405a1b:	85 ed                	test   %ebp,%ebp
  405a1d:	0f 89 8d fc ff ff    	jns    4056b0 <teavpn_client_tcp_handler+0x680>
  405a23:	e9 49 05 00 00       	jmp    405f71 <teavpn_client_tcp_handler+0xf41>
  405a28:	44 3b 74 24 2c       	cmp    0x2c(%rsp),%r14d
  405a2d:	0f 85 1a 07 00 00    	jne    40614d <teavpn_client_tcp_handler+0x111d>
  405a33:	a8 18                	test   $0x18,%al
  405a35:	44 89 7c 24 0c       	mov    %r15d,0xc(%rsp)
  405a3a:	0f 85 02 04 00 00    	jne    405e42 <teavpn_client_tcp_handler+0xe12>
  405a40:	48 8b 6c 24 50       	mov    0x50(%rsp),%rbp
  405a45:	31 c0                	xor    %eax,%eax
  405a47:	89 44 24 20          	mov    %eax,0x20(%rsp)
  405a4b:	ba 10 40 00 00       	mov    $0x4010,%edx
  405a50:	48 29 ea             	sub    %rbp,%rdx
  405a53:	83 44 24 40 01       	addl   $0x1,0x40(%rsp)
  405a58:	48 8d 84 24 68 40 00 	lea    0x4068(%rsp),%rax
  405a5f:	00 
  405a60:	48 8d 34 28          	lea    (%rax,%rbp,1),%rsi
  405a64:	44 89 f7             	mov    %r14d,%edi
  405a67:	31 c9                	xor    %ecx,%ecx
  405a69:	e8 12 c7 ff ff       	call   402180 <recv@plt>
  405a6e:	48 85 c0             	test   %rax,%rax
  405a71:	0f 88 d7 03 00 00    	js     405e4e <teavpn_client_tcp_handler+0xe1e>
  405a77:	0f 84 c5 03 00 00    	je     405e42 <teavpn_client_tcp_handler+0xe12>
  405a7d:	49 89 c4             	mov    %rax,%r12
  405a80:	49 01 ec             	add    %rbp,%r12
  405a83:	49 83 fc 04          	cmp    $0x4,%r12
  405a87:	0f 82 a9 02 00 00    	jb     405d36 <teavpn_client_tcp_handler+0xd06>
  405a8d:	0f 1f 00             	nopl   (%rax)
  405a90:	0f b7 84 24 6a 40 00 	movzwl 0x406a(%rsp),%eax
  405a97:	00 
  405a98:	89 c1                	mov    %eax,%ecx
  405a9a:	66 c1 c1 08          	rol    $0x8,%cx
  405a9e:	0f b7 d1             	movzwl %cx,%edx
  405aa1:	81 fa 05 10 00 00    	cmp    $0x1005,%edx
  405aa7:	0f 83 ae 02 00 00    	jae    405d5b <teavpn_client_tcp_handler+0xd2b>
  405aad:	44 0f b6 bc 24 69 40 	movzbl 0x4069(%rsp),%r15d
  405ab4:	00 00 
  405ab6:	49 01 d7             	add    %rdx,%r15
  405ab9:	49 8d 5c 24 fc       	lea    -0x4(%r12),%rbx
  405abe:	4c 39 fb             	cmp    %r15,%rbx
  405ac1:	0f 82 6f 02 00 00    	jb     405d36 <teavpn_client_tcp_handler+0xd06>
  405ac7:	0f b6 b4 24 68 40 00 	movzbl 0x4068(%rsp),%esi
  405ace:	00 
  405acf:	83 fe 03             	cmp    $0x3,%esi
  405ad2:	75 6b                	jne    405b3f <teavpn_client_tcp_handler+0xb0f>
  405ad4:	80 7c 24 35 01       	cmpb   $0x1,0x35(%rsp)
  405ad9:	0f 85 9f 02 00 00    	jne    405d7e <teavpn_client_tcp_handler+0xd4e>
  405adf:	8b 6c 24 30          	mov    0x30(%rsp),%ebp
  405ae3:	83 44 24 4c 01       	addl   $0x1,0x4c(%rsp)
  405ae8:	89 d2                	mov    %edx,%edx
  405aea:	89 ef                	mov    %ebp,%edi
  405aec:	48 8d b4 24 6c 40 00 	lea    0x406c(%rsp),%rsi
  405af3:	00 
  405af4:	e8 b7 c9 ff ff       	call   4024b0 <write@plt>
  405af9:	48 85 c0             	test   %rax,%rax
  405afc:	0f 88 cf 02 00 00    	js     405dd1 <teavpn_client_tcp_handler+0xda1>
  405b02:	0f 84 01 03 00 00    	je     405e09 <teavpn_client_tcp_handler+0xdd9>
  405b08:	4c 39 fb             	cmp    %r15,%rbx
  405b0b:	0f 86 22 02 00 00    	jbe    405d33 <teavpn_client_tcp_handler+0xd03>
  405b11:	49 8d 47 04          	lea    0x4(%r15),%rax
  405b15:	49 29 c4             	sub    %rax,%r12
  405b18:	48 8d bc 24 68 40 00 	lea    0x4068(%rsp),%rdi
  405b1f:	00 
  405b20:	4a 8d 34 3f          	lea    (%rdi,%r15,1),%rsi
  405b24:	48 83 c6 04          	add    $0x4,%rsi
  405b28:	4c 89 e2             	mov    %r12,%rdx
  405b2b:	e8 20 c8 ff ff       	call   402350 <memmove@plt>
  405b30:	49 83 fc 03          	cmp    $0x3,%r12
  405b34:	0f 87 56 ff ff ff    	ja     405a90 <teavpn_client_tcp_handler+0xa60>
  405b3a:	e9 f7 01 00 00       	jmp    405d36 <teavpn_client_tcp_handler+0xd06>
  405b3f:	40 80 fe 06          	cmp    $0x6,%sil
  405b43:	0f 87 7a 03 00 00    	ja     405ec3 <teavpn_client_tcp_handler+0xe93>
  405b49:	40 0f b6 ce          	movzbl %sil,%ecx
  405b4d:	48 8d 3d 20 43 00 00 	lea    0x4320(%rip),%rdi        # 409e74 <short_opt+0x774>
  405b54:	48 63 0c 8f          	movslq (%rdi,%rcx,4),%rcx
  405b58:	48 01 f9             	add    %rdi,%rcx
  405b5b:	ff e1                	jmp    *%rcx
  405b5d:	80 7c 24 35 00       	cmpb   $0x0,0x35(%rsp)
  405b62:	75 a4                	jne    405b08 <teavpn_client_tcp_handler+0xad8>
  405b64:	66 85 c0             	test   %ax,%ax
  405b67:	0f 85 2c 03 00 00    	jne    405e99 <teavpn_client_tcp_handler+0xe69>
  405b6d:	48 8d 3d f9 46 00 00 	lea    0x46f9(%rip),%rdi        # 40a26d <short_opt+0xb6d>
  405b74:	31 c0                	xor    %eax,%eax
  405b76:	e8 35 2a 00 00       	call   4085b0 <__pr_notice>
  405b7b:	48 8b 44 24 38       	mov    0x38(%rsp),%rax
  405b80:	48 8b 68 30          	mov    0x30(%rax),%rbp
  405b84:	48 8b 40 38          	mov    0x38(%rax),%rax
  405b88:	48 89 44 24 10       	mov    %rax,0x10(%rsp)
  405b8d:	48 8d 05 a4 87 00 00 	lea    0x87a4(%rip),%rax        # 40e338 <__notice_level>
  405b94:	80 38 02             	cmpb   $0x2,(%rax)
  405b97:	72 11                	jb     405baa <teavpn_client_tcp_handler+0xb7a>
  405b99:	48 8d 3d ec 46 00 00 	lea    0x46ec(%rip),%rdi        # 40a28c <short_opt+0xb8c>
  405ba0:	48 89 ee             	mov    %rbp,%rsi
  405ba3:	31 c0                	xor    %eax,%eax
  405ba5:	e8 06 2a 00 00       	call   4085b0 <__pr_notice>
  405baa:	0f 57 c0             	xorps  %xmm0,%xmm0
  405bad:	48 8d 7c 24 5c       	lea    0x5c(%rsp),%rdi
  405bb2:	0f 11 47 70          	movups %xmm0,0x70(%rdi)
  405bb6:	0f 11 47 60          	movups %xmm0,0x60(%rdi)
  405bba:	0f 11 47 50          	movups %xmm0,0x50(%rdi)
  405bbe:	0f 11 47 40          	movups %xmm0,0x40(%rdi)
  405bc2:	0f 11 47 30          	movups %xmm0,0x30(%rdi)
  405bc6:	0f 11 47 20          	movups %xmm0,0x20(%rdi)
  405bca:	0f 11 47 10          	movups %xmm0,0x10(%rdi)
  405bce:	0f 11 07             	movups %xmm0,(%rdi)
  405bd1:	ba 3f 00 00 00       	mov    $0x3f,%edx
  405bd6:	48 89 ee             	mov    %rbp,%rsi
  405bd9:	e8 62 c8 ff ff       	call   402440 <strncpy@plt>
  405bde:	c6 84 24 9b 00 00 00 	movb   $0x0,0x9b(%rsp)
  405be5:	00 
  405be6:	ba 3f 00 00 00       	mov    $0x3f,%edx
  405beb:	48 8d bc 24 9c 00 00 	lea    0x9c(%rsp),%rdi
  405bf2:	00 
  405bf3:	48 8b 74 24 10       	mov    0x10(%rsp),%rsi
  405bf8:	e8 43 c8 ff ff       	call   402440 <strncpy@plt>
  405bfd:	c6 84 24 db 00 00 00 	movb   $0x0,0xdb(%rsp)
  405c04:	00 
  405c05:	c7 44 24 58 01 00 00 	movl   $0x80000001,0x58(%rsp)
  405c0c:	80 
  405c0d:	ba 84 00 00 00       	mov    $0x84,%edx
  405c12:	48 8d 7c 24 28       	lea    0x28(%rsp),%rdi
  405c17:	48 8d 74 24 58       	lea    0x58(%rsp),%rsi
  405c1c:	e8 8f 05 00 00       	call   4061b0 <send_to_server>
  405c21:	48 85 c0             	test   %rax,%rax
  405c24:	0f 8f de fe ff ff    	jg     405b08 <teavpn_client_tcp_handler+0xad8>
  405c2a:	e9 5d 01 00 00       	jmp    405d8c <teavpn_client_tcp_handler+0xd5c>
  405c2f:	0f b7 c0             	movzwl %ax,%eax
  405c32:	3d 00 52 00 00       	cmp    $0x5200,%eax
  405c37:	0f 85 71 02 00 00    	jne    405eae <teavpn_client_tcp_handler+0xe7e>
  405c3d:	48 8b 6c 24 38       	mov    0x38(%rsp),%rbp
  405c42:	0f b6 45 18          	movzbl 0x18(%rbp),%eax
  405c46:	88 44 24 10          	mov    %al,0x10(%rsp)
  405c4a:	48 8b 75 10          	mov    0x10(%rbp),%rsi
  405c4e:	ba 0f 00 00 00       	mov    $0xf,%edx
  405c53:	48 8d bc 24 6c 40 00 	lea    0x406c(%rsp),%rdi
  405c5a:	00 
  405c5b:	e8 e0 c7 ff ff       	call   402440 <strncpy@plt>
  405c60:	c6 84 24 7b 40 00 00 	movb   $0x0,0x407b(%rsp)
  405c67:	00 
  405c68:	66 c1 84 24 bc 40 00 	rolw   $0x8,0x40bc(%rsp)
  405c6f:	00 08 
  405c71:	48 8d 3d 70 46 00 00 	lea    0x4670(%rip),%rdi        # 40a2e8 <short_opt+0xbe8>
  405c78:	31 c0                	xor    %eax,%eax
  405c7a:	e8 31 29 00 00       	call   4085b0 <__pr_notice>
  405c7f:	80 7c 24 10 00       	cmpb   $0x0,0x10(%rsp)
  405c84:	74 20                	je     405ca6 <teavpn_client_tcp_handler+0xc76>
  405c86:	48 8b 75 28          	mov    0x28(%rbp),%rsi
  405c8a:	ba 0f 00 00 00       	mov    $0xf,%edx
  405c8f:	48 8d bc 24 7c 40 00 	lea    0x407c(%rsp),%rdi
  405c96:	00 
  405c97:	e8 a4 c7 ff ff       	call   402440 <strncpy@plt>
  405c9c:	c6 84 24 8b 40 00 00 	movb   $0x0,0x408b(%rsp)
  405ca3:	00 
  405ca4:	eb 10                	jmp    405cb6 <teavpn_client_tcp_handler+0xc86>
  405ca6:	c6 84 24 7c 40 00 00 	movb   $0x0,0x407c(%rsp)
  405cad:	00 
  405cae:	c6 84 24 ac 40 00 00 	movb   $0x0,0x40ac(%rsp)
  405cb5:	00 
  405cb6:	48 8d bc 24 6c 40 00 	lea    0x406c(%rsp),%rdi
  405cbd:	00 
  405cbe:	0f b7 47 50          	movzwl 0x50(%rdi),%eax
  405cc2:	48 8d 8c 24 68 40 00 	lea    0x4068(%rsp),%rcx
  405cc9:	00 
  405cca:	66 89 81 60 40 00 00 	mov    %ax,0x4060(%rcx)
  405cd1:	0f 10 47 40          	movups 0x40(%rdi),%xmm0
  405cd5:	0f 11 81 50 40 00 00 	movups %xmm0,0x4050(%rcx)
  405cdc:	0f 10 07             	movups (%rdi),%xmm0
  405cdf:	0f 10 4f 10          	movups 0x10(%rdi),%xmm1
  405ce3:	0f 10 57 20          	movups 0x20(%rdi),%xmm2
  405ce7:	0f 10 5f 30          	movups 0x30(%rdi),%xmm3
  405ceb:	0f 11 99 40 40 00 00 	movups %xmm3,0x4040(%rcx)
  405cf2:	0f 11 91 30 40 00 00 	movups %xmm2,0x4030(%rcx)
  405cf9:	0f 11 89 20 40 00 00 	movups %xmm1,0x4020(%rcx)
  405d00:	0f 11 81 10 40 00 00 	movups %xmm0,0x4010(%rcx)
  405d07:	e8 34 16 00 00       	call   407340 <teavpn_iface_up>
  405d0c:	84 c0                	test   %al,%al
  405d0e:	0f 84 a3 01 00 00    	je     405eb7 <teavpn_client_tcp_handler+0xe87>
  405d14:	c6 84 24 ca 80 00 00 	movb   $0x1,0x80ca(%rsp)
  405d1b:	01 
  405d1c:	c6 44 24 35 01       	movb   $0x1,0x35(%rsp)
  405d21:	c7 44 24 58 02 00 00 	movl   $0x2,0x58(%rsp)
  405d28:	00 
  405d29:	ba 04 00 00 00       	mov    $0x4,%edx
  405d2e:	e9 df fe ff ff       	jmp    405c12 <teavpn_client_tcp_handler+0xbe2>
  405d33:	45 31 e4             	xor    %r12d,%r12d
  405d36:	4c 89 64 24 50       	mov    %r12,0x50(%rsp)
  405d3b:	8b 44 24 20          	mov    0x20(%rsp),%eax
  405d3f:	04 01                	add    $0x1,%al
  405d41:	4c 89 e5             	mov    %r12,%rbp
  405d44:	3c 0b                	cmp    $0xb,%al
  405d46:	48 8d 5c 24 58       	lea    0x58(%rsp),%rbx
  405d4b:	44 8b 7c 24 0c       	mov    0xc(%rsp),%r15d
  405d50:	0f 85 f1 fc ff ff    	jne    405a47 <teavpn_client_tcp_handler+0xa17>
  405d56:	e9 55 f9 ff ff       	jmp    4056b0 <teavpn_client_tcp_handler+0x680>
  405d5b:	be 04 10 00 00       	mov    $0x1004,%esi
  405d60:	48 8d 3d 95 43 00 00 	lea    0x4395(%rip),%rdi        # 40a0fc <short_opt+0x9fc>
  405d67:	4c 89 e1             	mov    %r12,%rcx
  405d6a:	31 c0                	xor    %eax,%eax
  405d6c:	e8 3f 28 00 00       	call   4085b0 <__pr_notice>
  405d71:	80 7c 24 35 00       	cmpb   $0x0,0x35(%rsp)
  405d76:	0f 85 8d 00 00 00    	jne    405e09 <teavpn_client_tcp_handler+0xdd9>
  405d7c:	eb 0e                	jmp    405d8c <teavpn_client_tcp_handler+0xd5c>
  405d7e:	48 8d 3d 26 44 00 00 	lea    0x4426(%rip),%rdi        # 40a1ab <short_opt+0xaab>
  405d85:	31 c0                	xor    %eax,%eax
  405d87:	e8 24 28 00 00       	call   4085b0 <__pr_notice>
  405d8c:	c6 44 24 34 01       	movb   $0x1,0x34(%rsp)
  405d91:	8b 7c 24 28          	mov    0x28(%rsp),%edi
  405d95:	be 02 00 00 00       	mov    $0x2,%esi
  405d9a:	44 89 f2             	mov    %r14d,%edx
  405d9d:	31 c9                	xor    %ecx,%ecx
  405d9f:	e8 2c c5 ff ff       	call   4022d0 <epoll_ctl@plt>
  405da4:	85 c0                	test   %eax,%eax
  405da6:	0f 88 c7 00 00 00    	js     405e73 <teavpn_client_tcp_handler+0xe43>
  405dac:	44 89 f7             	mov    %r14d,%edi
  405daf:	e8 ec c2 ff ff       	call   4020a0 <close@plt>
  405db4:	48 8d 3d 10 43 00 00 	lea    0x4310(%rip),%rdi        # 40a0cb <short_opt+0x9cb>
  405dbb:	31 c0                	xor    %eax,%eax
  405dbd:	e8 ee 27 00 00       	call   4085b0 <__pr_notice>
  405dc2:	48 8d 5c 24 58       	lea    0x58(%rsp),%rbx
  405dc7:	44 8b 7c 24 0c       	mov    0xc(%rsp),%r15d
  405dcc:	e9 df f8 ff ff       	jmp    4056b0 <teavpn_client_tcp_handler+0x680>
  405dd1:	e8 ba c5 ff ff       	call   402390 <__errno_location@plt>
  405dd6:	8b 18                	mov    (%rax),%ebx
  405dd8:	83 fb 0b             	cmp    $0xb,%ebx
  405ddb:	75 10                	jne    405ded <teavpn_client_tcp_handler+0xdbd>
  405ddd:	48 8d 3d fa 43 00 00 	lea    0x43fa(%rip),%rdi        # 40a1de <short_opt+0xade>
  405de4:	31 c0                	xor    %eax,%eax
  405de6:	e8 c5 21 00 00       	call   407fb0 <__pr_error>
  405deb:	eb 1c                	jmp    405e09 <teavpn_client_tcp_handler+0xdd9>
  405ded:	89 df                	mov    %ebx,%edi
  405def:	e8 cc c4 ff ff       	call   4022c0 <strerror@plt>
  405df4:	48 8d 3d 0e 44 00 00 	lea    0x440e(%rip),%rdi        # 40a209 <short_opt+0xb09>
  405dfb:	89 ee                	mov    %ebp,%esi
  405dfd:	89 da                	mov    %ebx,%edx
  405dff:	48 89 c1             	mov    %rax,%rcx
  405e02:	31 c0                	xor    %eax,%eax
  405e04:	e8 a7 21 00 00       	call   407fb0 <__pr_error>
  405e09:	48 c7 44 24 50 00 00 	movq   $0x0,0x50(%rsp)
  405e10:	00 00 
  405e12:	8a 44 24 36          	mov    0x36(%rsp),%al
  405e16:	8d 48 01             	lea    0x1(%rax),%ecx
  405e19:	88 4c 24 36          	mov    %cl,0x36(%rsp)
  405e1d:	3c 0f                	cmp    $0xf,%al
  405e1f:	48 8d 5c 24 58       	lea    0x58(%rsp),%rbx
  405e24:	44 8b 7c 24 0c       	mov    0xc(%rsp),%r15d
  405e29:	0f 82 81 f8 ff ff    	jb     4056b0 <teavpn_client_tcp_handler+0x680>
  405e2f:	48 8d 3d 74 42 00 00 	lea    0x4274(%rip),%rdi        # 40a0aa <short_opt+0x9aa>
  405e36:	31 c0                	xor    %eax,%eax
  405e38:	e8 73 21 00 00       	call   407fb0 <__pr_error>
  405e3d:	e9 4a ff ff ff       	jmp    405d8c <teavpn_client_tcp_handler+0xd5c>
  405e42:	48 8d 3d 40 42 00 00 	lea    0x4240(%rip),%rdi        # 40a089 <short_opt+0x989>
  405e49:	e9 37 ff ff ff       	jmp    405d85 <teavpn_client_tcp_handler+0xd55>
  405e4e:	e8 3d c5 ff ff       	call   402390 <__errno_location@plt>
  405e53:	8b 28                	mov    (%rax),%ebp
  405e55:	83 fd 0b             	cmp    $0xb,%ebp
  405e58:	0f 84 52 f8 ff ff    	je     4056b0 <teavpn_client_tcp_handler+0x680>
  405e5e:	89 ef                	mov    %ebp,%edi
  405e60:	e8 5b c4 ff ff       	call   4022c0 <strerror@plt>
  405e65:	48 8d 3d 75 42 00 00 	lea    0x4275(%rip),%rdi        # 40a0e1 <short_opt+0x9e1>
  405e6c:	44 89 f6             	mov    %r14d,%esi
  405e6f:	89 ea                	mov    %ebp,%edx
  405e71:	eb 8c                	jmp    405dff <teavpn_client_tcp_handler+0xdcf>
  405e73:	e8 18 c5 ff ff       	call   402390 <__errno_location@plt>
  405e78:	8b 18                	mov    (%rax),%ebx
  405e7a:	89 df                	mov    %ebx,%edi
  405e7c:	e8 3f c4 ff ff       	call   4022c0 <strerror@plt>
  405e81:	48 8d 3d 77 44 00 00 	lea    0x4477(%rip),%rdi        # 40a2ff <short_opt+0xbff>
  405e88:	89 de                	mov    %ebx,%esi
  405e8a:	48 89 c2             	mov    %rax,%rdx
  405e8d:	31 c0                	xor    %eax,%eax
  405e8f:	e8 1c 21 00 00       	call   407fb0 <__pr_error>
  405e94:	e9 13 ff ff ff       	jmp    405dac <teavpn_client_tcp_handler+0xd7c>
  405e99:	48 8d 3d 8d 43 00 00 	lea    0x438d(%rip),%rdi        # 40a22d <short_opt+0xb2d>
  405ea0:	89 d6                	mov    %edx,%esi
  405ea2:	31 c0                	xor    %eax,%eax
  405ea4:	e8 07 27 00 00       	call   4085b0 <__pr_notice>
  405ea9:	e9 de fe ff ff       	jmp    405d8c <teavpn_client_tcp_handler+0xd5c>
  405eae:	48 8d 3d ef 43 00 00 	lea    0x43ef(%rip),%rdi        # 40a2a4 <short_opt+0xba4>
  405eb5:	eb e9                	jmp    405ea0 <teavpn_client_tcp_handler+0xe70>
  405eb7:	48 8d 3d c8 31 00 00 	lea    0x31c8(%rip),%rdi        # 409086 <_IO_stdin_used+0x86>
  405ebe:	e9 73 ff ff ff       	jmp    405e36 <teavpn_client_tcp_handler+0xe06>
  405ec3:	48 8d 3d a3 42 00 00 	lea    0x42a3(%rip),%rdi        # 40a16d <short_opt+0xa6d>
  405eca:	31 c0                	xor    %eax,%eax
  405ecc:	e8 df 26 00 00       	call   4085b0 <__pr_notice>
  405ed1:	80 7c 24 35 00       	cmpb   $0x0,0x35(%rsp)
  405ed6:	0f 85 2d ff ff ff    	jne    405e09 <teavpn_client_tcp_handler+0xdd9>
  405edc:	e9 ab fe ff ff       	jmp    405d8c <teavpn_client_tcp_handler+0xd5c>
  405ee1:	ba 28 81 00 00       	mov    $0x8128,%edx
  405ee6:	48 8d 7c 24 28       	lea    0x28(%rsp),%rdi
  405eeb:	48 89 fe             	mov    %rdi,%rsi
  405eee:	e8 fd 11 00 00       	call   4070f0 <memcmp_explicit>
  405ef3:	eb 1b                	jmp    405f10 <teavpn_client_tcp_handler+0xee0>
  405ef5:	e8 96 c4 ff ff       	call   402390 <__errno_location@plt>
  405efa:	8b 28                	mov    (%rax),%ebp
  405efc:	83 fd 04             	cmp    $0x4,%ebp
  405eff:	75 27                	jne    405f28 <teavpn_client_tcp_handler+0xef8>
  405f01:	48 8d 3d e0 34 00 00 	lea    0x34e0(%rip),%rdi        # 4093e8 <_IO_stdin_used+0x3e8>
  405f08:	31 c0                	xor    %eax,%eax
  405f0a:	e8 a1 26 00 00       	call   4085b0 <__pr_notice>
  405f0f:	90                   	nop
  405f10:	80 7c 24 34 01       	cmpb   $0x1,0x34(%rsp)
  405f15:	48 8d b4 24 50 81 00 	lea    0x8150(%rsp),%rsi
  405f1c:	00 
  405f1d:	0f 85 43 f7 ff ff    	jne    405666 <teavpn_client_tcp_handler+0x636>
  405f23:	e9 1d 02 00 00       	jmp    406145 <teavpn_client_tcp_handler+0x1115>
  405f28:	89 ef                	mov    %ebp,%edi
  405f2a:	e8 91 c3 ff ff       	call   4022c0 <strerror@plt>
  405f2f:	48 8d 3d 0e 41 00 00 	lea    0x410e(%rip),%rdi        # 40a044 <short_opt+0x944>
  405f36:	89 ee                	mov    %ebp,%esi
  405f38:	48 89 c2             	mov    %rax,%rdx
  405f3b:	31 c0                	xor    %eax,%eax
  405f3d:	e8 6e 20 00 00       	call   407fb0 <__pr_error>
  405f42:	41 89 ec             	mov    %ebp,%r12d
  405f45:	41 f7 dc             	neg    %r12d
  405f48:	85 ed                	test   %ebp,%ebp
  405f4a:	74 c4                	je     405f10 <teavpn_client_tcp_handler+0xee0>
  405f4c:	0f 8e 37 f7 ff ff    	jle    405689 <teavpn_client_tcp_handler+0x659>
  405f52:	eb 1d                	jmp    405f71 <teavpn_client_tcp_handler+0xf41>
  405f54:	89 ef                	mov    %ebp,%edi
  405f56:	e8 65 c3 ff ff       	call   4022c0 <strerror@plt>
  405f5b:	48 8d 3d e1 34 00 00 	lea    0x34e1(%rip),%rdi        # 409443 <_IO_stdin_used+0x443>
  405f62:	44 89 f6             	mov    %r14d,%esi
  405f65:	89 ea                	mov    %ebp,%edx
  405f67:	48 89 c1             	mov    %rax,%rcx
  405f6a:	31 c0                	xor    %eax,%eax
  405f6c:	e8 3f 20 00 00       	call   407fb0 <__pr_error>
  405f71:	80 bc 24 ca 80 00 00 	cmpb   $0x0,0x80ca(%rsp)
  405f78:	00 
  405f79:	74 1b                	je     405f96 <teavpn_client_tcp_handler+0xf66>
  405f7b:	48 8d 3d a5 43 00 00 	lea    0x43a5(%rip),%rdi        # 40a327 <short_opt+0xc27>
  405f82:	31 c0                	xor    %eax,%eax
  405f84:	e8 27 26 00 00       	call   4085b0 <__pr_notice>
  405f89:	48 8d bc 24 78 80 00 	lea    0x8078(%rsp),%rdi
  405f90:	00 
  405f91:	e8 4a 1c 00 00       	call   407be0 <teavpn_iface_down>
  405f96:	44 8b 74 24 28       	mov    0x28(%rsp),%r14d
  405f9b:	44 8b 7c 24 2c       	mov    0x2c(%rsp),%r15d
  405fa0:	8b 6c 24 30          	mov    0x30(%rsp),%ebp
  405fa4:	83 fd ff             	cmp    $0xffffffff,%ebp
  405fa7:	74 17                	je     405fc0 <teavpn_client_tcp_handler+0xf90>
  405fa9:	48 8d 3d 32 35 00 00 	lea    0x3532(%rip),%rdi        # 4094e2 <_IO_stdin_used+0x4e2>
  405fb0:	89 ee                	mov    %ebp,%esi
  405fb2:	31 c0                	xor    %eax,%eax
  405fb4:	e8 f7 25 00 00       	call   4085b0 <__pr_notice>
  405fb9:	89 ef                	mov    %ebp,%edi
  405fbb:	e8 e0 c0 ff ff       	call   4020a0 <close@plt>
  405fc0:	41 83 ff ff          	cmp    $0xffffffff,%r15d
  405fc4:	74 19                	je     405fdf <teavpn_client_tcp_handler+0xfaf>
  405fc6:	48 8d 3d 30 35 00 00 	lea    0x3530(%rip),%rdi        # 4094fd <_IO_stdin_used+0x4fd>
  405fcd:	44 89 fe             	mov    %r15d,%esi
  405fd0:	31 c0                	xor    %eax,%eax
  405fd2:	e8 d9 25 00 00       	call   4085b0 <__pr_notice>
  405fd7:	44 89 ff             	mov    %r15d,%edi
  405fda:	e8 c1 c0 ff ff       	call   4020a0 <close@plt>
  405fdf:	41 83 fe ff          	cmp    $0xffffffff,%r14d
  405fe3:	74 19                	je     405ffe <teavpn_client_tcp_handler+0xfce>
  405fe5:	48 8d 3d 59 43 00 00 	lea    0x4359(%rip),%rdi        # 40a345 <short_opt+0xc45>
  405fec:	44 89 f6             	mov    %r14d,%esi
  405fef:	31 c0                	xor    %eax,%eax
  405ff1:	e8 ba 25 00 00       	call   4085b0 <__pr_notice>
  405ff6:	44 89 f7             	mov    %r14d,%edi
  405ff9:	e8 a2 c0 ff ff       	call   4020a0 <close@plt>
  405ffe:	64 48 8b 04 25 28 00 	mov    %fs:0x28,%rax
  406005:	00 00 
  406007:	48 3b 84 24 e0 81 00 	cmp    0x81e0(%rsp),%rax
  40600e:	00 
  40600f:	0f 85 51 01 00 00    	jne    406166 <teavpn_client_tcp_handler+0x1136>
  406015:	44 89 e0             	mov    %r12d,%eax
  406018:	48 81 c4 e8 81 00 00 	add    $0x81e8,%rsp
  40601f:	5b                   	pop    %rbx
  406020:	41 5c                	pop    %r12
  406022:	41 5d                	pop    %r13
  406024:	41 5e                	pop    %r14
  406026:	41 5f                	pop    %r15
  406028:	5d                   	pop    %rbp
  406029:	c3                   	ret    
  40602a:	e8 61 c3 ff ff       	call   402390 <__errno_location@plt>
  40602f:	8b 28                	mov    (%rax),%ebp
  406031:	89 ef                	mov    %ebp,%edi
  406033:	e8 88 c2 ff ff       	call   4022c0 <strerror@plt>
  406038:	48 8d 3d 69 33 00 00 	lea    0x3369(%rip),%rdi        # 4093a8 <_IO_stdin_used+0x3a8>
  40603f:	89 ee                	mov    %ebp,%esi
  406041:	48 89 c2             	mov    %rax,%rdx
  406044:	31 c0                	xor    %eax,%eax
  406046:	e8 65 1f 00 00       	call   407fb0 <__pr_error>
  40604b:	85 db                	test   %ebx,%ebx
  40604d:	0f 8e 08 01 00 00    	jle    40615b <teavpn_client_tcp_handler+0x112b>
  406053:	89 df                	mov    %ebx,%edi
  406055:	e8 46 c0 ff ff       	call   4020a0 <close@plt>
  40605a:	e9 fc 00 00 00       	jmp    40615b <teavpn_client_tcp_handler+0x112b>
  40605f:	e8 2c c3 ff ff       	call   402390 <__errno_location@plt>
  406064:	8b 28                	mov    (%rax),%ebp
  406066:	41 89 ec             	mov    %ebp,%r12d
  406069:	41 f7 dc             	neg    %r12d
  40606c:	89 ef                	mov    %ebp,%edi
  40606e:	e8 4d c2 ff ff       	call   4022c0 <strerror@plt>
  406073:	48 8d 3d 68 31 00 00 	lea    0x3168(%rip),%rdi        # 4091e2 <_IO_stdin_used+0x1e2>
  40607a:	89 ee                	mov    %ebp,%esi
  40607c:	48 89 c2             	mov    %rax,%rdx
  40607f:	31 c0                	xor    %eax,%eax
  406081:	e8 2a 1f 00 00       	call   407fb0 <__pr_error>
  406086:	45 85 e4             	test   %r12d,%r12d
  406089:	0f 89 70 f4 ff ff    	jns    4054ff <teavpn_client_tcp_handler+0x4cf>
  40608f:	e9 dd fe ff ff       	jmp    405f71 <teavpn_client_tcp_handler+0xf41>
  406094:	e8 f7 c2 ff ff       	call   402390 <__errno_location@plt>
  406099:	8b 18                	mov    (%rax),%ebx
  40609b:	89 df                	mov    %ebx,%edi
  40609d:	e8 1e c2 ff ff       	call   4022c0 <strerror@plt>
  4060a2:	48 8d 3d e1 32 00 00 	lea    0x32e1(%rip),%rdi        # 40938a <_IO_stdin_used+0x38a>
  4060a9:	89 de                	mov    %ebx,%esi
  4060ab:	48 89 c2             	mov    %rax,%rdx
  4060ae:	31 c0                	xor    %eax,%eax
  4060b0:	e8 fb 1e 00 00       	call   407fb0 <__pr_error>
  4060b5:	e9 a1 00 00 00       	jmp    40615b <teavpn_client_tcp_handler+0x112b>
  4060ba:	41 89 c4             	mov    %eax,%r12d
  4060bd:	48 8d 2d aa 31 00 00 	lea    0x31aa(%rip),%rbp        # 40926e <_IO_stdin_used+0x26e>
  4060c4:	eb 46                	jmp    40610c <teavpn_client_tcp_handler+0x10dc>
  4060c6:	41 89 c4             	mov    %eax,%r12d
  4060c9:	48 8d 2d b7 31 00 00 	lea    0x31b7(%rip),%rbp        # 409287 <_IO_stdin_used+0x287>
  4060d0:	48 8d 1d a4 31 00 00 	lea    0x31a4(%rip),%rbx        # 40927b <_IO_stdin_used+0x27b>
  4060d7:	eb 33                	jmp    40610c <teavpn_client_tcp_handler+0x10dc>
  4060d9:	41 89 c4             	mov    %eax,%r12d
  4060dc:	48 8d 1d b0 31 00 00 	lea    0x31b0(%rip),%rbx        # 409293 <_IO_stdin_used+0x293>
  4060e3:	eb 27                	jmp    40610c <teavpn_client_tcp_handler+0x10dc>
  4060e5:	41 89 c4             	mov    %eax,%r12d
  4060e8:	eb 22                	jmp    40610c <teavpn_client_tcp_handler+0x10dc>
  4060ea:	41 89 c4             	mov    %eax,%r12d
  4060ed:	48 8d 2d ba 31 00 00 	lea    0x31ba(%rip),%rbp        # 4092ae <_IO_stdin_used+0x2ae>
  4060f4:	eb 16                	jmp    40610c <teavpn_client_tcp_handler+0x10dc>
  4060f6:	41 89 c4             	mov    %eax,%r12d
  4060f9:	48 8d 2d bd 31 00 00 	lea    0x31bd(%rip),%rbp        # 4092bd <_IO_stdin_used+0x2bd>
  406100:	eb 0a                	jmp    40610c <teavpn_client_tcp_handler+0x10dc>
  406102:	45 31 e4             	xor    %r12d,%r12d
  406105:	48 8d 2d be 31 00 00 	lea    0x31be(%rip),%rbp        # 4092ca <_IO_stdin_used+0x2ca>
  40610c:	e8 7f c2 ff ff       	call   402390 <__errno_location@plt>
  406111:	8b 38                	mov    (%rax),%edi
  406113:	89 7c 24 18          	mov    %edi,0x18(%rsp)
  406117:	e8 a4 c1 ff ff       	call   4022c0 <strerror@plt>
  40611c:	48 8d 3d 43 3e 00 00 	lea    0x3e43(%rip),%rdi        # 409f66 <short_opt+0x866>
  406123:	48 89 de             	mov    %rbx,%rsi
  406126:	48 89 ea             	mov    %rbp,%rdx
  406129:	8b 4c 24 18          	mov    0x18(%rsp),%ecx
  40612d:	49 89 c0             	mov    %rax,%r8
  406130:	31 c0                	xor    %eax,%eax
  406132:	e8 79 1e 00 00       	call   407fb0 <__pr_error>
  406137:	45 85 e4             	test   %r12d,%r12d
  40613a:	0f 89 c2 f2 ff ff    	jns    405402 <teavpn_client_tcp_handler+0x3d2>
  406140:	e9 90 f3 ff ff       	jmp    4054d5 <teavpn_client_tcp_handler+0x4a5>
  406145:	45 31 e4             	xor    %r12d,%r12d
  406148:	e9 24 fe ff ff       	jmp    405f71 <teavpn_client_tcp_handler+0xf41>
  40614d:	48 8d 3d 0c 3f 00 00 	lea    0x3f0c(%rip),%rdi        # 40a060 <short_opt+0x960>
  406154:	31 c0                	xor    %eax,%eax
  406156:	e8 55 1e 00 00       	call   407fb0 <__pr_error>
  40615b:	41 bc ff ff ff ff    	mov    $0xffffffff,%r12d
  406161:	e9 0b fe ff ff       	jmp    405f71 <teavpn_client_tcp_handler+0xf41>
  406166:	e8 35 c2 ff ff       	call   4023a0 <__stack_chk_fail@plt>
  40616b:	0f 1f 44 00 00       	nopl   0x0(%rax,%rax,1)

0000000000406170 <handle_interrupt>:
  406170:	53                   	push   %rbx
  406171:	89 fb                	mov    %edi,%ebx
  406173:	48 8b 05 de 81 00 00 	mov    0x81de(%rip),%rax        # 40e358 <g_state>
  40617a:	c6 40 0c 01          	movb   $0x1,0xc(%rax)
  40617e:	48 8b 05 6b 7e 00 00 	mov    0x7e6b(%rip),%rax        # 40dff0 <stdout@GLIBC_2.2.5>
  406185:	48 8b 30             	mov    (%rax),%rsi
  406188:	bf 0a 00 00 00       	mov    $0xa,%edi
  40618d:	e8 8e c1 ff ff       	call   402320 <putc@plt>
  406192:	89 df                	mov    %ebx,%edi
  406194:	e8 97 bf ff ff       	call   402130 <strsignal@plt>
  406199:	48 8d 3d c9 32 00 00 	lea    0x32c9(%rip),%rdi        # 409469 <_IO_stdin_used+0x469>
  4061a0:	89 de                	mov    %ebx,%esi
  4061a2:	48 89 c2             	mov    %rax,%rdx
  4061a5:	31 c0                	xor    %eax,%eax
  4061a7:	5b                   	pop    %rbx
  4061a8:	e9 03 24 00 00       	jmp    4085b0 <__pr_notice>
  4061ad:	0f 1f 00             	nopl   (%rax)

00000000004061b0 <send_to_server>:
  4061b0:	55                   	push   %rbp
  4061b1:	41 56                	push   %r14
  4061b3:	53                   	push   %rbx
  4061b4:	48 89 d3             	mov    %rdx,%rbx
  4061b7:	44 8b 77 04          	mov    0x4(%rdi),%r14d
  4061bb:	0f b6 46 01          	movzbl 0x1(%rsi),%eax
  4061bf:	48 01 c3             	add    %rax,%rbx
  4061c2:	83 47 1c 01          	addl   $0x1,0x1c(%rdi)
  4061c6:	44 89 f7             	mov    %r14d,%edi
  4061c9:	48 89 da             	mov    %rbx,%rdx
  4061cc:	31 c9                	xor    %ecx,%ecx
  4061ce:	e8 ed c1 ff ff       	call   4023c0 <send@plt>
  4061d3:	48 85 c0             	test   %rax,%rax
  4061d6:	78 10                	js     4061e8 <send_to_server+0x38>
  4061d8:	48 89 c5             	mov    %rax,%rbp
  4061db:	48 39 c3             	cmp    %rax,%rbx
  4061de:	75 26                	jne    406206 <send_to_server+0x56>
  4061e0:	48 89 d8             	mov    %rbx,%rax
  4061e3:	5b                   	pop    %rbx
  4061e4:	41 5e                	pop    %r14
  4061e6:	5d                   	pop    %rbp
  4061e7:	c3                   	ret    
  4061e8:	e8 a3 c1 ff ff       	call   402390 <__errno_location@plt>
  4061ed:	8b 18                	mov    (%rax),%ebx
  4061ef:	83 fb 0b             	cmp    $0xb,%ebx
  4061f2:	75 2b                	jne    40621f <send_to_server+0x6f>
  4061f4:	48 8d 3d c8 3d 00 00 	lea    0x3dc8(%rip),%rdi        # 409fc3 <short_opt+0x8c3>
  4061fb:	31 db                	xor    %ebx,%ebx
  4061fd:	31 c0                	xor    %eax,%eax
  4061ff:	e8 ac 1d 00 00       	call   407fb0 <__pr_error>
  406204:	eb da                	jmp    4061e0 <send_to_server+0x30>
  406206:	48 8d 3d fa 3d 00 00 	lea    0x3dfa(%rip),%rdi        # 40a007 <short_opt+0x907>
  40620d:	48 89 de             	mov    %rbx,%rsi
  406210:	48 89 ea             	mov    %rbp,%rdx
  406213:	31 c0                	xor    %eax,%eax
  406215:	e8 96 1d 00 00       	call   407fb0 <__pr_error>
  40621a:	48 89 eb             	mov    %rbp,%rbx
  40621d:	eb c1                	jmp    4061e0 <send_to_server+0x30>
  40621f:	89 df                	mov    %ebx,%edi
  406221:	e8 9a c0 ff ff       	call   4022c0 <strerror@plt>
  406226:	48 8d 3d c0 3d 00 00 	lea    0x3dc0(%rip),%rdi        # 409fed <short_opt+0x8ed>
  40622d:	44 89 f6             	mov    %r14d,%esi
  406230:	89 da                	mov    %ebx,%edx
  406232:	48 89 c1             	mov    %rax,%rcx
  406235:	31 c0                	xor    %eax,%eax
  406237:	e8 74 1d 00 00       	call   407fb0 <__pr_error>
  40623c:	48 c7 c3 ff ff ff ff 	mov    $0xffffffffffffffff,%rbx
  406243:	eb 9b                	jmp    4061e0 <send_to_server+0x30>
  406245:	66 2e 0f 1f 84 00 00 	cs nopw 0x0(%rax,%rax,1)
  40624c:	00 00 00 
  40624f:	90                   	nop

0000000000406250 <teavpn_client_argv_parse>:
  406250:	55                   	push   %rbp
  406251:	41 57                	push   %r15
  406253:	41 56                	push   %r14
  406255:	41 55                	push   %r13
  406257:	41 54                	push   %r12
  406259:	53                   	push   %rbx
  40625a:	48 83 ec 28          	sub    $0x28,%rsp
  40625e:	49 89 d5             	mov    %rdx,%r13
  406261:	49 89 f6             	mov    %rsi,%r14
  406264:	41 89 fc             	mov    %edi,%r12d
  406267:	64 48 8b 04 25 28 00 	mov    %fs:0x28,%rax
  40626e:	00 00 
  406270:	48 89 44 24 20       	mov    %rax,0x20(%rsp)
  406275:	48 8b 06             	mov    (%rsi),%rax
  406278:	48 89 44 24 08       	mov    %rax,0x8(%rsp)
  40627d:	48 8d 05 8c 80 00 00 	lea    0x808c(%rip),%rax        # 40e310 <d_cli_cfg_file>
  406284:	48 89 02             	mov    %rax,(%rdx)
  406287:	48 c7 42 08 00 00 00 	movq   $0x0,0x8(%rdx)
  40628e:	00 
  40628f:	48 8d 05 8c 80 00 00 	lea    0x808c(%rip),%rax        # 40e322 <d_cli_dev>
  406296:	48 89 42 10          	mov    %rax,0x10(%rdx)
  40629a:	8b 05 c0 80 00 00    	mov    0x80c0(%rip),%eax        # 40e360 <d_cli_sock_type>
  4062a0:	89 42 20             	mov    %eax,0x20(%rdx)
  4062a3:	48 c7 42 28 00 00 00 	movq   $0x0,0x28(%rdx)
  4062aa:	00 
  4062ab:	0f b7 05 78 80 00 00 	movzwl 0x8078(%rip),%eax        # 40e32a <d_cli_server_port>
  4062b2:	66 89 42 24          	mov    %ax,0x24(%rdx)
  4062b6:	48 8d 42 30          	lea    0x30(%rdx),%rax
  4062ba:	48 89 44 24 10       	mov    %rax,0x10(%rsp)
  4062bf:	0f 57 c0             	xorps  %xmm0,%xmm0
  4062c2:	0f 11 42 30          	movups %xmm0,0x30(%rdx)
  4062c6:	41 83 c4 ff          	add    $0xffffffff,%r12d
  4062ca:	49 83 c6 08          	add    $0x8,%r14
  4062ce:	48 8d 2d 6b 41 00 00 	lea    0x416b(%rip),%rbp        # 40a440 <short_opt>
  4062d5:	4c 8d 3d 84 79 00 00 	lea    0x7984(%rip),%r15        # 40dc60 <long_opt>
  4062dc:	48 8d 1d 8d 40 00 00 	lea    0x408d(%rip),%rbx        # 40a370 <short_opt+0xc70>
  4062e3:	66 2e 0f 1f 84 00 00 	cs nopw 0x0(%rax,%rax,1)
  4062ea:	00 00 00 
  4062ed:	0f 1f 00             	nopl   (%rax)
  4062f0:	c7 44 24 1c 00 00 00 	movl   $0x0,0x1c(%rsp)
  4062f7:	00 
  4062f8:	44 89 e7             	mov    %r12d,%edi
  4062fb:	4c 89 f6             	mov    %r14,%rsi
  4062fe:	48 89 ea             	mov    %rbp,%rdx
  406301:	4c 89 f9             	mov    %r15,%rcx
  406304:	4c 8d 44 24 1c       	lea    0x1c(%rsp),%r8
  406309:	e8 52 c0 ff ff       	call   402360 <getopt_long@plt>
  40630e:	8d 48 bc             	lea    -0x44(%rax),%ecx
  406311:	83 f9 32             	cmp    $0x32,%ecx
  406314:	0f 87 63 01 00 00    	ja     40647d <teavpn_client_argv_parse+0x22d>
  40631a:	48 63 04 8b          	movslq (%rbx,%rcx,4),%rax
  40631e:	48 01 d8             	add    %rbx,%rax
  406321:	ff e0                	jmp    *%rax
  406323:	48 8b 05 be 7c 00 00 	mov    0x7cbe(%rip),%rax        # 40dfe8 <optarg@GLIBC_2.2.5>
  40632a:	48 8b 38             	mov    (%rax),%rdi
  40632d:	be ff 00 00 00       	mov    $0xff,%esi
  406332:	e8 79 0d 00 00       	call   4070b0 <trunc_str>
  406337:	49 89 45 08          	mov    %rax,0x8(%r13)
  40633b:	eb b3                	jmp    4062f0 <teavpn_client_argv_parse+0xa0>
  40633d:	c7 44 24 18 00 00 00 	movl   $0x0,0x18(%rsp)
  406344:	00 
  406345:	48 8b 05 9c 7c 00 00 	mov    0x7c9c(%rip),%rax        # 40dfe8 <optarg@GLIBC_2.2.5>
  40634c:	48 8b 30             	mov    (%rax),%rsi
  40634f:	ba 03 00 00 00       	mov    $0x3,%edx
  406354:	48 8d 7c 24 18       	lea    0x18(%rsp),%rdi
  406359:	e8 e2 c0 ff ff       	call   402440 <strncpy@plt>
  40635e:	c6 44 24 1b 00       	movb   $0x0,0x1b(%rsp)
  406363:	81 4c 24 18 20 20 20 	orl    $0x20202020,0x18(%rsp)
  40636a:	20 
  40636b:	c6 44 24 1b 00       	movb   $0x0,0x1b(%rsp)
  406370:	31 c0                	xor    %eax,%eax
  406372:	8b 4c 24 18          	mov    0x18(%rsp),%ecx
  406376:	81 f9 74 63 70 00    	cmp    $0x706374,%ecx
  40637c:	74 11                	je     40638f <teavpn_client_argv_parse+0x13f>
  40637e:	81 f9 75 64 70 00    	cmp    $0x706475,%ecx
  406384:	0f 85 1c 01 00 00    	jne    4064a6 <teavpn_client_argv_parse+0x256>
  40638a:	b8 01 00 00 00       	mov    $0x1,%eax
  40638f:	41 89 45 20          	mov    %eax,0x20(%r13)
  406393:	e9 58 ff ff ff       	jmp    4062f0 <teavpn_client_argv_parse+0xa0>
  406398:	48 8b 05 49 7c 00 00 	mov    0x7c49(%rip),%rax        # 40dfe8 <optarg@GLIBC_2.2.5>
  40639f:	44 89 64 24 04       	mov    %r12d,0x4(%rsp)
  4063a4:	49 89 c4             	mov    %rax,%r12
  4063a7:	48 8b 38             	mov    (%rax),%rdi
  4063aa:	be ff 00 00 00       	mov    $0xff,%esi
  4063af:	e8 1c 08 00 00       	call   406bd0 <ar_strndup>
  4063b4:	49 89 45 38          	mov    %rax,0x38(%r13)
  4063b8:	4d 8b 24 24          	mov    (%r12),%r12
  4063bc:	4c 89 e7             	mov    %r12,%rdi
  4063bf:	e8 4c be ff ff       	call   402210 <strlen@plt>
  4063c4:	4c 89 e7             	mov    %r12,%rdi
  4063c7:	44 8b 64 24 04       	mov    0x4(%rsp),%r12d
  4063cc:	48 8d 2d 6d 40 00 00 	lea    0x406d(%rip),%rbp        # 40a440 <short_opt>
  4063d3:	be 78 00 00 00       	mov    $0x78,%esi
  4063d8:	48 89 c2             	mov    %rax,%rdx
  4063db:	e8 70 bc ff ff       	call   402050 <memset@plt>
  4063e0:	e9 0b ff ff ff       	jmp    4062f0 <teavpn_client_argv_parse+0xa0>
  4063e5:	48 8b 05 fc 7b 00 00 	mov    0x7bfc(%rip),%rax        # 40dfe8 <optarg@GLIBC_2.2.5>
  4063ec:	48 8b 38             	mov    (%rax),%rdi
  4063ef:	be 40 00 00 00       	mov    $0x40,%esi
  4063f4:	e8 b7 0c 00 00       	call   4070b0 <trunc_str>
  4063f9:	48 8b 4c 24 10       	mov    0x10(%rsp),%rcx
  4063fe:	48 89 01             	mov    %rax,(%rcx)
  406401:	e9 ea fe ff ff       	jmp    4062f0 <teavpn_client_argv_parse+0xa0>
  406406:	48 8b 05 db 7b 00 00 	mov    0x7bdb(%rip),%rax        # 40dfe8 <optarg@GLIBC_2.2.5>
  40640d:	48 8b 38             	mov    (%rax),%rdi
  406410:	be ff 00 00 00       	mov    $0xff,%esi
  406415:	e8 96 0c 00 00       	call   4070b0 <trunc_str>
  40641a:	49 89 45 00          	mov    %rax,0x0(%r13)
  40641e:	e9 cd fe ff ff       	jmp    4062f0 <teavpn_client_argv_parse+0xa0>
  406423:	48 8b 05 be 7b 00 00 	mov    0x7bbe(%rip),%rax        # 40dfe8 <optarg@GLIBC_2.2.5>
  40642a:	48 8b 38             	mov    (%rax),%rdi
  40642d:	31 f6                	xor    %esi,%esi
  40642f:	ba 0a 00 00 00       	mov    $0xa,%edx
  406434:	e8 b7 be ff ff       	call   4022f0 <strtol@plt>
  406439:	66 41 89 45 24       	mov    %ax,0x24(%r13)
  40643e:	e9 ad fe ff ff       	jmp    4062f0 <teavpn_client_argv_parse+0xa0>
  406443:	48 8b 05 9e 7b 00 00 	mov    0x7b9e(%rip),%rax        # 40dfe8 <optarg@GLIBC_2.2.5>
  40644a:	48 8b 38             	mov    (%rax),%rdi
  40644d:	be ff 00 00 00       	mov    $0xff,%esi
  406452:	e8 59 0c 00 00       	call   4070b0 <trunc_str>
  406457:	49 89 45 10          	mov    %rax,0x10(%r13)
  40645b:	e9 90 fe ff ff       	jmp    4062f0 <teavpn_client_argv_parse+0xa0>
  406460:	48 8b 05 81 7b 00 00 	mov    0x7b81(%rip),%rax        # 40dfe8 <optarg@GLIBC_2.2.5>
  406467:	48 8b 38             	mov    (%rax),%rdi
  40646a:	be ff 00 00 00       	mov    $0xff,%esi
  40646f:	e8 3c 0c 00 00       	call   4070b0 <trunc_str>
  406474:	49 89 45 28          	mov    %rax,0x28(%r13)
  406478:	e9 73 fe ff ff       	jmp    4062f0 <teavpn_client_argv_parse+0xa0>
  40647d:	83 f8 ff             	cmp    $0xffffffff,%eax
  406480:	74 3e                	je     4064c0 <teavpn_client_argv_parse+0x270>
  406482:	b8 ff ff ff ff       	mov    $0xffffffff,%eax
  406487:	64 48 8b 0c 25 28 00 	mov    %fs:0x28,%rcx
  40648e:	00 00 
  406490:	48 3b 4c 24 20       	cmp    0x20(%rsp),%rcx
  406495:	75 3b                	jne    4064d2 <teavpn_client_argv_parse+0x282>
  406497:	48 83 c4 28          	add    $0x28,%rsp
  40649b:	5b                   	pop    %rbx
  40649c:	41 5c                	pop    %r12
  40649e:	41 5d                	pop    %r13
  4064a0:	41 5e                	pop    %r14
  4064a2:	41 5f                	pop    %r15
  4064a4:	5d                   	pop    %rbp
  4064a5:	c3                   	ret    
  4064a6:	48 8b 05 3b 7b 00 00 	mov    0x7b3b(%rip),%rax        # 40dfe8 <optarg@GLIBC_2.2.5>
  4064ad:	48 8b 30             	mov    (%rax),%rsi
  4064b0:	48 8d 3d 68 32 00 00 	lea    0x3268(%rip),%rdi        # 40971f <short_opt+0x1f>
  4064b7:	31 c0                	xor    %eax,%eax
  4064b9:	e8 f2 1a 00 00       	call   407fb0 <__pr_error>
  4064be:	eb c2                	jmp    406482 <teavpn_client_argv_parse+0x232>
  4064c0:	31 c0                	xor    %eax,%eax
  4064c2:	64 48 8b 0c 25 28 00 	mov    %fs:0x28,%rcx
  4064c9:	00 00 
  4064cb:	48 3b 4c 24 20       	cmp    0x20(%rsp),%rcx
  4064d0:	74 c5                	je     406497 <teavpn_client_argv_parse+0x247>
  4064d2:	e8 c9 be ff ff       	call   4023a0 <__stack_chk_fail@plt>
  4064d7:	48 8b 7c 24 08       	mov    0x8(%rsp),%rdi
  4064dc:	e8 df 04 00 00       	call   4069c0 <teavpn_client_show_help>
  4064e1:	31 ff                	xor    %edi,%edi
  4064e3:	e8 28 bc ff ff       	call   402110 <exit@plt>
  4064e8:	e8 b3 1a 00 00       	call   407fa0 <teavpn_print_version>
  4064ed:	31 ff                	xor    %edi,%edi
  4064ef:	e8 1c bc ff ff       	call   402110 <exit@plt>
  4064f4:	66 2e 0f 1f 84 00 00 	cs nopw 0x0(%rax,%rax,1)
  4064fb:	00 00 00 
  4064fe:	66 90                	xchg   %ax,%ax

0000000000406500 <teavpn_client_cfg_parse>:
  406500:	55                   	push   %rbp
  406501:	41 56                	push   %r14
  406503:	53                   	push   %rbx
  406504:	48 83 ec 20          	sub    $0x20,%rsp
  406508:	64 48 8b 04 25 28 00 	mov    %fs:0x28,%rax
  40650f:	00 00 
  406511:	48 89 44 24 18       	mov    %rax,0x18(%rsp)
  406516:	48 8b 1f             	mov    (%rdi),%rbx
  406519:	c6 44 24 08 01       	movb   $0x1,0x8(%rsp)
  40651e:	48 89 7c 24 10       	mov    %rdi,0x10(%rsp)
  406523:	31 ed                	xor    %ebp,%ebp
  406525:	48 85 db             	test   %rbx,%rbx
  406528:	0f 84 a1 00 00 00    	je     4065cf <teavpn_client_cfg_parse+0xcf>
  40652e:	80 3b 00             	cmpb   $0x0,(%rbx)
  406531:	0f 84 98 00 00 00    	je     4065cf <teavpn_client_cfg_parse+0xcf>
  406537:	48 8d 35 42 32 00 00 	lea    0x3242(%rip),%rsi        # 409780 <short_opt+0x80>
  40653e:	48 89 df             	mov    %rbx,%rdi
  406541:	e8 2a bc ff ff       	call   402170 <fopen@plt>
  406546:	48 85 c0             	test   %rax,%rax
  406549:	74 3c                	je     406587 <teavpn_client_cfg_parse+0x87>
  40654b:	49 89 c6             	mov    %rax,%r14
  40654e:	48 8d 35 9b 00 00 00 	lea    0x9b(%rip),%rsi        # 4065f0 <parser_handler>
  406555:	48 8d 54 24 08       	lea    0x8(%rsp),%rdx
  40655a:	48 89 c7             	mov    %rax,%rdi
  40655d:	e8 6e ca ff ff       	call   402fd0 <ini_parse_file>
  406562:	85 c0                	test   %eax,%eax
  406564:	78 5c                	js     4065c2 <teavpn_client_cfg_parse+0xc2>
  406566:	31 ed                	xor    %ebp,%ebp
  406568:	80 7c 24 08 00       	cmpb   $0x0,0x8(%rsp)
  40656d:	75 58                	jne    4065c7 <teavpn_client_cfg_parse+0xc7>
  40656f:	48 8d 3d 6c 33 00 00 	lea    0x336c(%rip),%rdi        # 4098e2 <short_opt+0x1e2>
  406576:	48 89 de             	mov    %rbx,%rsi
  406579:	31 c0                	xor    %eax,%eax
  40657b:	e8 30 1a 00 00       	call   407fb0 <__pr_error>
  406580:	bd ea ff ff ff       	mov    $0xffffffea,%ebp
  406585:	eb 40                	jmp    4065c7 <teavpn_client_cfg_parse+0xc7>
  406587:	48 8d 35 82 7d 00 00 	lea    0x7d82(%rip),%rsi        # 40e310 <d_cli_cfg_file>
  40658e:	48 89 df             	mov    %rbx,%rdi
  406591:	e8 1a be ff ff       	call   4023b0 <strcmp@plt>
  406596:	85 c0                	test   %eax,%eax
  406598:	74 35                	je     4065cf <teavpn_client_cfg_parse+0xcf>
  40659a:	e8 f1 bd ff ff       	call   402390 <__errno_location@plt>
  40659f:	8b 28                	mov    (%rax),%ebp
  4065a1:	89 ef                	mov    %ebp,%edi
  4065a3:	e8 18 bd ff ff       	call   4022c0 <strerror@plt>
  4065a8:	48 8d 3d bc 3e 00 00 	lea    0x3ebc(%rip),%rdi        # 40a46b <short_opt+0x2b>
  4065af:	48 89 de             	mov    %rbx,%rsi
  4065b2:	89 ea                	mov    %ebp,%edx
  4065b4:	48 89 c1             	mov    %rax,%rcx
  4065b7:	31 c0                	xor    %eax,%eax
  4065b9:	e8 f2 19 00 00       	call   407fb0 <__pr_error>
  4065be:	f7 dd                	neg    %ebp
  4065c0:	eb 0d                	jmp    4065cf <teavpn_client_cfg_parse+0xcf>
  4065c2:	bd ff ff ff ff       	mov    $0xffffffff,%ebp
  4065c7:	4c 89 f7             	mov    %r14,%rdi
  4065ca:	e8 61 be ff ff       	call   402430 <fclose@plt>
  4065cf:	64 48 8b 04 25 28 00 	mov    %fs:0x28,%rax
  4065d6:	00 00 
  4065d8:	48 3b 44 24 18       	cmp    0x18(%rsp),%rax
  4065dd:	75 0b                	jne    4065ea <teavpn_client_cfg_parse+0xea>
  4065df:	89 e8                	mov    %ebp,%eax
  4065e1:	48 83 c4 20          	add    $0x20,%rsp
  4065e5:	5b                   	pop    %rbx
  4065e6:	41 5e                	pop    %r14
  4065e8:	5d                   	pop    %rbp
  4065e9:	c3                   	ret    
  4065ea:	e8 b1 bd ff ff       	call   4023a0 <__stack_chk_fail@plt>
  4065ef:	90                   	nop

00000000004065f0 <parser_handler>:
  4065f0:	55                   	push   %rbp
  4065f1:	41 57                	push   %r15
  4065f3:	41 56                	push   %r14
  4065f5:	41 55                	push   %r13
  4065f7:	41 54                	push   %r12
  4065f9:	53                   	push   %rbx
  4065fa:	48 83 ec 18          	sub    $0x18,%rsp
  4065fe:	45 89 c7             	mov    %r8d,%r15d
  406601:	49 89 ce             	mov    %rcx,%r14
  406604:	49 89 d4             	mov    %rdx,%r12
  406607:	48 89 f5             	mov    %rsi,%rbp
  40660a:	48 89 fb             	mov    %rdi,%rbx
  40660d:	64 48 8b 04 25 28 00 	mov    %fs:0x28,%rax
  406614:	00 00 
  406616:	48 89 44 24 10       	mov    %rax,0x10(%rsp)
  40661b:	4c 8b 6f 08          	mov    0x8(%rdi),%r13
  40661f:	48 8d 35 dc 32 00 00 	lea    0x32dc(%rip),%rsi        # 409902 <short_opt+0x202>
  406626:	48 89 ef             	mov    %rbp,%rdi
  406629:	e8 82 bd ff ff       	call   4023b0 <strcmp@plt>
  40662e:	85 c0                	test   %eax,%eax
  406630:	0f 84 81 00 00 00    	je     4066b7 <parser_handler+0xc7>
  406636:	48 8d 35 e2 32 00 00 	lea    0x32e2(%rip),%rsi        # 40991f <short_opt+0x21f>
  40663d:	48 89 ef             	mov    %rbp,%rdi
  406640:	e8 6b bd ff ff       	call   4023b0 <strcmp@plt>
  406645:	85 c0                	test   %eax,%eax
  406647:	0f 84 b7 00 00 00    	je     406704 <parser_handler+0x114>
  40664d:	48 8d 35 fd 31 00 00 	lea    0x31fd(%rip),%rsi        # 409851 <short_opt+0x151>
  406654:	48 89 ef             	mov    %rbp,%rdi
  406657:	e8 54 bd ff ff       	call   4023b0 <strcmp@plt>
  40665c:	85 c0                	test   %eax,%eax
  40665e:	0f 84 10 01 00 00    	je     406774 <parser_handler+0x184>
  406664:	48 8d 35 cf 31 00 00 	lea    0x31cf(%rip),%rsi        # 40983a <short_opt+0x13a>
  40666b:	48 89 ef             	mov    %rbp,%rdi
  40666e:	e8 3d bd ff ff       	call   4023b0 <strcmp@plt>
  406673:	85 c0                	test   %eax,%eax
  406675:	0f 84 43 01 00 00    	je     4067be <parser_handler+0x1ce>
  40667b:	48 8d 3d e2 31 00 00 	lea    0x31e2(%rip),%rdi        # 409864 <short_opt+0x164>
  406682:	48 89 ee             	mov    %rbp,%rsi
  406685:	44 89 fa             	mov    %r15d,%edx
  406688:	31 c0                	xor    %eax,%eax
  40668a:	e8 21 19 00 00       	call   407fb0 <__pr_error>
  40668f:	c6 03 00             	movb   $0x0,(%rbx)
  406692:	31 c0                	xor    %eax,%eax
  406694:	64 48 8b 0c 25 28 00 	mov    %fs:0x28,%rcx
  40669b:	00 00 
  40669d:	48 3b 4c 24 10       	cmp    0x10(%rsp),%rcx
  4066a2:	0f 85 51 02 00 00    	jne    4068f9 <parser_handler+0x309>
  4066a8:	48 83 c4 18          	add    $0x18,%rsp
  4066ac:	5b                   	pop    %rbx
  4066ad:	41 5c                	pop    %r12
  4066af:	41 5d                	pop    %r13
  4066b1:	41 5e                	pop    %r14
  4066b3:	41 5f                	pop    %r15
  4066b5:	5d                   	pop    %rbp
  4066b6:	c3                   	ret    
  4066b7:	48 8d 35 4a 32 00 00 	lea    0x324a(%rip),%rsi        # 409908 <short_opt+0x208>
  4066be:	4c 89 e7             	mov    %r12,%rdi
  4066c1:	e8 ea bc ff ff       	call   4023b0 <strcmp@plt>
  4066c6:	85 c0                	test   %eax,%eax
  4066c8:	0f 84 3a 01 00 00    	je     406808 <parser_handler+0x218>
  4066ce:	48 8d 35 3c 32 00 00 	lea    0x323c(%rip),%rsi        # 409911 <short_opt+0x211>
  4066d5:	4c 89 e7             	mov    %r12,%rdi
  4066d8:	e8 d3 bc ff ff       	call   4023b0 <strcmp@plt>
  4066dd:	85 c0                	test   %eax,%eax
  4066df:	0f 85 07 01 00 00    	jne    4067ec <parser_handler+0x1fc>
  4066e5:	4c 89 f7             	mov    %r14,%rdi
  4066e8:	31 f6                	xor    %esi,%esi
  4066ea:	ba 0a 00 00 00       	mov    $0xa,%edx
  4066ef:	e8 fc bb ff ff       	call   4022f0 <strtol@plt>
  4066f4:	48 8d 0d 3d 7c 00 00 	lea    0x7c3d(%rip),%rcx        # 40e338 <__notice_level>
  4066fb:	88 01                	mov    %al,(%rcx)
  4066fd:	b8 01 00 00 00       	mov    $0x1,%eax
  406702:	eb 90                	jmp    406694 <parser_handler+0xa4>
  406704:	48 8d 35 1b 32 00 00 	lea    0x321b(%rip),%rsi        # 409926 <short_opt+0x226>
  40670b:	4c 89 e7             	mov    %r12,%rdi
  40670e:	e8 9d bc ff ff       	call   4023b0 <strcmp@plt>
  406713:	85 c0                	test   %eax,%eax
  406715:	0f 84 08 01 00 00    	je     406823 <parser_handler+0x233>
  40671b:	48 8d 35 72 3d 00 00 	lea    0x3d72(%rip),%rsi        # 40a494 <short_opt+0x54>
  406722:	4c 89 e7             	mov    %r12,%rdi
  406725:	e8 86 bc ff ff       	call   4023b0 <strcmp@plt>
  40672a:	85 c0                	test   %eax,%eax
  40672c:	0f 84 35 01 00 00    	je     406867 <parser_handler+0x277>
  406732:	48 8d 35 67 3d 00 00 	lea    0x3d67(%rip),%rsi        # 40a4a0 <short_opt+0x60>
  406739:	4c 89 e7             	mov    %r12,%rdi
  40673c:	e8 6f bc ff ff       	call   4023b0 <strcmp@plt>
  406741:	85 c0                	test   %eax,%eax
  406743:	0f 85 a3 00 00 00    	jne    4067ec <parser_handler+0x1fc>
  406749:	be 06 00 00 00       	mov    $0x6,%esi
  40674e:	4c 89 f7             	mov    %r14,%rdi
  406751:	e8 7a 04 00 00       	call   406bd0 <ar_strndup>
  406756:	48 89 c7             	mov    %rax,%rdi
  406759:	31 f6                	xor    %esi,%esi
  40675b:	ba 0a 00 00 00       	mov    $0xa,%edx
  406760:	e8 8b bb ff ff       	call   4022f0 <strtol@plt>
  406765:	66 41 89 45 24       	mov    %ax,0x24(%r13)
  40676a:	b8 01 00 00 00       	mov    $0x1,%eax
  40676f:	e9 20 ff ff ff       	jmp    406694 <parser_handler+0xa4>
  406774:	48 8d 35 dd 2f 00 00 	lea    0x2fdd(%rip),%rsi        # 409758 <short_opt+0x58>
  40677b:	4c 89 e7             	mov    %r12,%rdi
  40677e:	e8 2d bc ff ff       	call   4023b0 <strcmp@plt>
  406783:	85 c0                	test   %eax,%eax
  406785:	0f 84 f7 00 00 00    	je     406882 <parser_handler+0x292>
  40678b:	48 8d 35 1a 3d 00 00 	lea    0x3d1a(%rip),%rsi        # 40a4ac <short_opt+0x6c>
  406792:	4c 89 e7             	mov    %r12,%rdi
  406795:	e8 16 bc ff ff       	call   4023b0 <strcmp@plt>
  40679a:	85 c0                	test   %eax,%eax
  40679c:	75 4e                	jne    4067ec <parser_handler+0x1fc>
  40679e:	4c 89 f7             	mov    %r14,%rdi
  4067a1:	31 f6                	xor    %esi,%esi
  4067a3:	ba 0a 00 00 00       	mov    $0xa,%edx
  4067a8:	e8 43 bb ff ff       	call   4022f0 <strtol@plt>
  4067ad:	85 c0                	test   %eax,%eax
  4067af:	41 0f 95 45 18       	setne  0x18(%r13)
  4067b4:	b8 01 00 00 00       	mov    $0x1,%eax
  4067b9:	e9 d6 fe ff ff       	jmp    406694 <parser_handler+0xa4>
  4067be:	48 8d 35 7a 30 00 00 	lea    0x307a(%rip),%rsi        # 40983f <short_opt+0x13f>
  4067c5:	4c 89 e7             	mov    %r12,%rdi
  4067c8:	e8 e3 bb ff ff       	call   4023b0 <strcmp@plt>
  4067cd:	85 c0                	test   %eax,%eax
  4067cf:	0f 84 c8 00 00 00    	je     40689d <parser_handler+0x2ad>
  4067d5:	48 8d 35 6c 30 00 00 	lea    0x306c(%rip),%rsi        # 409848 <short_opt+0x148>
  4067dc:	4c 89 e7             	mov    %r12,%rdi
  4067df:	e8 cc bb ff ff       	call   4023b0 <strcmp@plt>
  4067e4:	85 c0                	test   %eax,%eax
  4067e6:	0f 84 cc 00 00 00    	je     4068b8 <parser_handler+0x2c8>
  4067ec:	48 8d 3d 7d 31 00 00 	lea    0x317d(%rip),%rdi        # 409970 <short_opt+0x270>
  4067f3:	4c 89 e6             	mov    %r12,%rsi
  4067f6:	48 89 ea             	mov    %rbp,%rdx
  4067f9:	44 89 f9             	mov    %r15d,%ecx
  4067fc:	31 c0                	xor    %eax,%eax
  4067fe:	e8 ad 17 00 00       	call   407fb0 <__pr_error>
  406803:	e9 87 fe ff ff       	jmp    40668f <parser_handler+0x9f>
  406808:	be ff 00 00 00       	mov    $0xff,%esi
  40680d:	4c 89 f7             	mov    %r14,%rdi
  406810:	e8 bb 03 00 00       	call   406bd0 <ar_strndup>
  406815:	49 89 45 08          	mov    %rax,0x8(%r13)
  406819:	b8 01 00 00 00       	mov    $0x1,%eax
  40681e:	e9 71 fe ff ff       	jmp    406694 <parser_handler+0xa4>
  406823:	c7 44 24 08 00 00 00 	movl   $0x0,0x8(%rsp)
  40682a:	00 
  40682b:	48 8d 7c 24 08       	lea    0x8(%rsp),%rdi
  406830:	ba 03 00 00 00       	mov    $0x3,%edx
  406835:	4c 89 f6             	mov    %r14,%rsi
  406838:	e8 03 bc ff ff       	call   402440 <strncpy@plt>
  40683d:	81 4c 24 08 20 20 20 	orl    $0x20202020,0x8(%rsp)
  406844:	20 
  406845:	c6 44 24 0b 00       	movb   $0x0,0xb(%rsp)
  40684a:	8b 44 24 08          	mov    0x8(%rsp),%eax
  40684e:	3d 74 63 70 00       	cmp    $0x706374,%eax
  406853:	74 7e                	je     4068d3 <parser_handler+0x2e3>
  406855:	3d 75 64 70 00       	cmp    $0x706475,%eax
  40685a:	0f 85 83 00 00 00    	jne    4068e3 <parser_handler+0x2f3>
  406860:	b8 01 00 00 00       	mov    $0x1,%eax
  406865:	eb 6e                	jmp    4068d5 <parser_handler+0x2e5>
  406867:	be 20 00 00 00       	mov    $0x20,%esi
  40686c:	4c 89 f7             	mov    %r14,%rdi
  40686f:	e8 5c 03 00 00       	call   406bd0 <ar_strndup>
  406874:	49 89 45 28          	mov    %rax,0x28(%r13)
  406878:	b8 01 00 00 00       	mov    $0x1,%eax
  40687d:	e9 12 fe ff ff       	jmp    406694 <parser_handler+0xa4>
  406882:	be 10 00 00 00       	mov    $0x10,%esi
  406887:	4c 89 f7             	mov    %r14,%rdi
  40688a:	e8 41 03 00 00       	call   406bd0 <ar_strndup>
  40688f:	49 89 45 10          	mov    %rax,0x10(%r13)
  406893:	b8 01 00 00 00       	mov    $0x1,%eax
  406898:	e9 f7 fd ff ff       	jmp    406694 <parser_handler+0xa4>
  40689d:	be 40 00 00 00       	mov    $0x40,%esi
  4068a2:	4c 89 f7             	mov    %r14,%rdi
  4068a5:	e8 26 03 00 00       	call   406bd0 <ar_strndup>
  4068aa:	49 89 45 30          	mov    %rax,0x30(%r13)
  4068ae:	b8 01 00 00 00       	mov    $0x1,%eax
  4068b3:	e9 dc fd ff ff       	jmp    406694 <parser_handler+0xa4>
  4068b8:	be ff 00 00 00       	mov    $0xff,%esi
  4068bd:	4c 89 f7             	mov    %r14,%rdi
  4068c0:	e8 0b 03 00 00       	call   406bd0 <ar_strndup>
  4068c5:	49 89 45 38          	mov    %rax,0x38(%r13)
  4068c9:	b8 01 00 00 00       	mov    $0x1,%eax
  4068ce:	e9 c1 fd ff ff       	jmp    406694 <parser_handler+0xa4>
  4068d3:	31 c0                	xor    %eax,%eax
  4068d5:	41 89 45 20          	mov    %eax,0x20(%r13)
  4068d9:	b8 01 00 00 00       	mov    $0x1,%eax
  4068de:	e9 b1 fd ff ff       	jmp    406694 <parser_handler+0xa4>
  4068e3:	48 8d 3d 35 2e 00 00 	lea    0x2e35(%rip),%rdi        # 40971f <short_opt+0x1f>
  4068ea:	4c 89 f6             	mov    %r14,%rsi
  4068ed:	31 c0                	xor    %eax,%eax
  4068ef:	e8 bc 16 00 00       	call   407fb0 <__pr_error>
  4068f4:	e9 96 fd ff ff       	jmp    40668f <parser_handler+0x9f>
  4068f9:	e8 a2 ba ff ff       	call   4023a0 <__stack_chk_fail@plt>
  4068fe:	66 90                	xchg   %ax,%ax

0000000000406900 <teavpn_client_entry>:
  406900:	53                   	push   %rbx
  406901:	48 83 ec 50          	sub    $0x50,%rsp
  406905:	64 48 8b 04 25 28 00 	mov    %fs:0x28,%rax
  40690c:	00 00 
  40690e:	48 89 44 24 48       	mov    %rax,0x48(%rsp)
  406913:	0f 57 c0             	xorps  %xmm0,%xmm0
  406916:	0f 29 44 24 30       	movaps %xmm0,0x30(%rsp)
  40691b:	0f 29 44 24 20       	movaps %xmm0,0x20(%rsp)
  406920:	0f 29 44 24 10       	movaps %xmm0,0x10(%rsp)
  406925:	0f 29 04 24          	movaps %xmm0,(%rsp)
  406929:	48 89 e2             	mov    %rsp,%rdx
  40692c:	e8 1f f9 ff ff       	call   406250 <teavpn_client_argv_parse>
  406931:	bb 01 00 00 00       	mov    $0x1,%ebx
  406936:	85 c0                	test   %eax,%eax
  406938:	78 65                	js     40699f <teavpn_client_entry+0x9f>
  40693a:	48 89 e7             	mov    %rsp,%rdi
  40693d:	e8 be fb ff ff       	call   406500 <teavpn_client_cfg_parse>
  406942:	85 c0                	test   %eax,%eax
  406944:	78 59                	js     40699f <teavpn_client_entry+0x9f>
  406946:	48 83 7c 24 08 00    	cmpq   $0x0,0x8(%rsp)
  40694c:	74 19                	je     406967 <teavpn_client_entry+0x67>
  40694e:	8b 74 24 20          	mov    0x20(%rsp),%esi
  406952:	83 fe 01             	cmp    $0x1,%esi
  406955:	74 20                	je     406977 <teavpn_client_entry+0x77>
  406957:	85 f6                	test   %esi,%esi
  406959:	75 31                	jne    40698c <teavpn_client_entry+0x8c>
  40695b:	48 89 e7             	mov    %rsp,%rdi
  40695e:	e8 cd 01 00 00       	call   406b30 <teavpn_client_tcp>
  406963:	89 c3                	mov    %eax,%ebx
  406965:	eb 38                	jmp    40699f <teavpn_client_entry+0x9f>
  406967:	48 8d 3d 71 30 00 00 	lea    0x3071(%rip),%rdi        # 4099df <short_opt+0x2df>
  40696e:	31 c0                	xor    %eax,%eax
  406970:	e8 3b 16 00 00       	call   407fb0 <__pr_error>
  406975:	eb 28                	jmp    40699f <teavpn_client_entry+0x9f>
  406977:	48 8d 3d 1f 30 00 00 	lea    0x301f(%rip),%rdi        # 40999d <short_opt+0x29d>
  40697e:	31 c0                	xor    %eax,%eax
  406980:	e8 2b 16 00 00       	call   407fb0 <__pr_error>
  406985:	bb a2 ff ff ff       	mov    $0xffffffa2,%ebx
  40698a:	eb 13                	jmp    40699f <teavpn_client_entry+0x9f>
  40698c:	48 8d 3d 34 30 00 00 	lea    0x3034(%rip),%rdi        # 4099c7 <short_opt+0x2c7>
  406993:	31 c0                	xor    %eax,%eax
  406995:	e8 16 16 00 00       	call   407fb0 <__pr_error>
  40699a:	bb ea ff ff ff       	mov    $0xffffffea,%ebx
  40699f:	64 48 8b 04 25 28 00 	mov    %fs:0x28,%rax
  4069a6:	00 00 
  4069a8:	48 3b 44 24 48       	cmp    0x48(%rsp),%rax
  4069ad:	75 08                	jne    4069b7 <teavpn_client_entry+0xb7>
  4069af:	89 d8                	mov    %ebx,%eax
  4069b1:	48 83 c4 50          	add    $0x50,%rsp
  4069b5:	5b                   	pop    %rbx
  4069b6:	c3                   	ret    
  4069b7:	e8 e4 b9 ff ff       	call   4023a0 <__stack_chk_fail@plt>
  4069bc:	0f 1f 40 00          	nopl   0x0(%rax)

00000000004069c0 <teavpn_client_show_help>:
  4069c0:	50                   	push   %rax
  4069c1:	48 89 fe             	mov    %rdi,%rsi
  4069c4:	48 8d 3d 2e 30 00 00 	lea    0x302e(%rip),%rdi        # 4099f9 <short_opt+0x2f9>
  4069cb:	31 c0                	xor    %eax,%eax
  4069cd:	e8 6e b6 ff ff       	call   402040 <printf@plt>
  4069d2:	bf 0a 00 00 00       	mov    $0xa,%edi
  4069d7:	e8 44 b7 ff ff       	call   402120 <putchar@plt>
  4069dc:	48 8d 3d 13 3b 00 00 	lea    0x3b13(%rip),%rdi        # 40a4f6 <short_opt+0xb6>
  4069e3:	e8 08 b7 ff ff       	call   4020f0 <puts@plt>
  4069e8:	bf 0a 00 00 00       	mov    $0xa,%edi
  4069ed:	e8 2e b7 ff ff       	call   402120 <putchar@plt>
  4069f2:	48 8d 3d 28 32 00 00 	lea    0x3228(%rip),%rdi        # 409c21 <short_opt+0x521>
  4069f9:	e8 f2 b6 ff ff       	call   4020f0 <puts@plt>
  4069fe:	48 8d 3d 2f 32 00 00 	lea    0x322f(%rip),%rdi        # 409c34 <short_opt+0x534>
  406a05:	e8 e6 b6 ff ff       	call   4020f0 <puts@plt>
  406a0a:	48 8d 3d 4a 32 00 00 	lea    0x324a(%rip),%rdi        # 409c5b <short_opt+0x55b>
  406a11:	e8 da b6 ff ff       	call   4020f0 <puts@plt>
  406a16:	48 8d 3d f8 2f 00 00 	lea    0x2ff8(%rip),%rdi        # 409a15 <short_opt+0x315>
  406a1d:	48 8d 35 ec 78 00 00 	lea    0x78ec(%rip),%rsi        # 40e310 <d_cli_cfg_file>
  406a24:	31 c0                	xor    %eax,%eax
  406a26:	e8 15 b6 ff ff       	call   402040 <printf@plt>
  406a2b:	48 8d 3d de 3a 00 00 	lea    0x3ade(%rip),%rdi        # 40a510 <short_opt+0xd0>
  406a32:	e8 b9 b6 ff ff       	call   4020f0 <puts@plt>
  406a37:	bf 0a 00 00 00       	mov    $0xa,%edi
  406a3c:	e8 df b6 ff ff       	call   402120 <putchar@plt>
  406a41:	48 8d 3d 69 32 00 00 	lea    0x3269(%rip),%rdi        # 409cb1 <short_opt+0x5b1>
  406a48:	e8 a3 b6 ff ff       	call   4020f0 <puts@plt>
  406a4d:	48 8d 3d 6e 32 00 00 	lea    0x326e(%rip),%rdi        # 409cc2 <short_opt+0x5c2>
  406a54:	e8 97 b6 ff ff       	call   4020f0 <puts@plt>
  406a59:	48 8d 3d 21 30 00 00 	lea    0x3021(%rip),%rdi        # 409a81 <short_opt+0x381>
  406a60:	48 8d 35 bb 78 00 00 	lea    0x78bb(%rip),%rsi        # 40e322 <d_cli_dev>
  406a67:	31 c0                	xor    %eax,%eax
  406a69:	e8 d2 b5 ff ff       	call   402040 <printf@plt>
  406a6e:	bf 0a 00 00 00       	mov    $0xa,%edi
  406a73:	e8 a8 b6 ff ff       	call   402120 <putchar@plt>
  406a78:	48 8d 3d 5f 32 00 00 	lea    0x325f(%rip),%rdi        # 409cde <short_opt+0x5de>
  406a7f:	e8 6c b6 ff ff       	call   4020f0 <puts@plt>
  406a84:	48 8d 3d 5c 32 00 00 	lea    0x325c(%rip),%rdi        # 409ce7 <short_opt+0x5e7>
  406a8b:	e8 60 b6 ff ff       	call   4020f0 <puts@plt>
  406a90:	48 8d 3d 9f 3a 00 00 	lea    0x3a9f(%rip),%rdi        # 40a536 <short_opt+0xf6>
  406a97:	e8 54 b6 ff ff       	call   4020f0 <puts@plt>
  406a9c:	48 8d 05 87 78 00 00 	lea    0x7887(%rip),%rax        # 40e32a <d_cli_server_port>
  406aa3:	0f b7 30             	movzwl (%rax),%esi
  406aa6:	48 8d 3d 10 3a 00 00 	lea    0x3a10(%rip),%rdi        # 40a4bd <short_opt+0x7d>
  406aad:	31 c0                	xor    %eax,%eax
  406aaf:	e8 8c b5 ff ff       	call   402040 <printf@plt>
  406ab4:	bf 0a 00 00 00       	mov    $0xa,%edi
  406ab9:	e8 62 b6 ff ff       	call   402120 <putchar@plt>
  406abe:	48 8d 3d 9d 3a 00 00 	lea    0x3a9d(%rip),%rdi        # 40a562 <short_opt+0x122>
  406ac5:	e8 26 b6 ff ff       	call   4020f0 <puts@plt>
  406aca:	48 8d 3d 98 3a 00 00 	lea    0x3a98(%rip),%rdi        # 40a569 <short_opt+0x129>
  406ad1:	e8 1a b6 ff ff       	call   4020f0 <puts@plt>
  406ad6:	48 8d 3d b1 3a 00 00 	lea    0x3ab1(%rip),%rdi        # 40a58e <short_opt+0x14e>
  406add:	e8 0e b6 ff ff       	call   4020f0 <puts@plt>
  406ae2:	bf 0a 00 00 00       	mov    $0xa,%edi
  406ae7:	e8 34 b6 ff ff       	call   402120 <putchar@plt>
  406aec:	bf 0a 00 00 00       	mov    $0xa,%edi
  406af1:	e8 2a b6 ff ff       	call   402120 <putchar@plt>
  406af6:	48 8d 3d cc 32 00 00 	lea    0x32cc(%rip),%rdi        # 409dc9 <short_opt+0x6c9>
  406afd:	e8 ee b5 ff ff       	call   4020f0 <puts@plt>
  406b02:	48 8d 3d fe 32 00 00 	lea    0x32fe(%rip),%rdi        # 409e07 <short_opt+0x707>
  406b09:	e8 e2 b5 ff ff       	call   4020f0 <puts@plt>
  406b0e:	bf 0a 00 00 00       	mov    $0xa,%edi
  406b13:	e8 08 b6 ff ff       	call   402120 <putchar@plt>
  406b18:	48 8d 3d 20 33 00 00 	lea    0x3320(%rip),%rdi        # 409e3f <short_opt+0x73f>
  406b1f:	58                   	pop    %rax
  406b20:	e9 cb b5 ff ff       	jmp    4020f0 <puts@plt>
  406b25:	66 2e 0f 1f 84 00 00 	cs nopw 0x0(%rax,%rax,1)
  406b2c:	00 00 00 
  406b2f:	90                   	nop

0000000000406b30 <teavpn_client_tcp>:
  406b30:	e9 fb e4 ff ff       	jmp    405030 <teavpn_client_tcp_handler>
  406b35:	66 2e 0f 1f 84 00 00 	cs nopw 0x0(%rax,%rax,1)
  406b3c:	00 00 00 
  406b3f:	90                   	nop

0000000000406b40 <ar_init>:
  406b40:	48 89 3d 21 78 00 00 	mov    %rdi,0x7821(%rip)        # 40e368 <__ar_addr>
  406b47:	48 89 35 22 78 00 00 	mov    %rsi,0x7822(%rip)        # 40e370 <__ar_size>
  406b4e:	48 c7 05 1f 78 00 00 	movq   $0x0,0x781f(%rip)        # 40e378 <__ar_pos>
  406b55:	00 00 00 00 
  406b59:	c3                   	ret    
  406b5a:	66 0f 1f 44 00 00    	nopw   0x0(%rax,%rax,1)

0000000000406b60 <ar_unused_size>:
  406b60:	48 8b 05 09 78 00 00 	mov    0x7809(%rip),%rax        # 40e370 <__ar_size>
  406b67:	48 2b 05 0a 78 00 00 	sub    0x780a(%rip),%rax        # 40e378 <__ar_pos>
  406b6e:	c3                   	ret    
  406b6f:	90                   	nop

0000000000406b70 <ar_alloc>:
  406b70:	48 8b 0d 01 78 00 00 	mov    0x7801(%rip),%rcx        # 40e378 <__ar_pos>
  406b77:	48 8b 05 ea 77 00 00 	mov    0x77ea(%rip),%rax        # 40e368 <__ar_addr>
  406b7e:	48 01 c8             	add    %rcx,%rax
  406b81:	48 01 cf             	add    %rcx,%rdi
  406b84:	48 89 3d ed 77 00 00 	mov    %rdi,0x77ed(%rip)        # 40e378 <__ar_pos>
  406b8b:	c3                   	ret    
  406b8c:	0f 1f 40 00          	nopl   0x0(%rax)

0000000000406b90 <ar_strdup>:
  406b90:	53                   	push   %rbx
  406b91:	48 89 fb             	mov    %rdi,%rbx
  406b94:	e8 77 b6 ff ff       	call   402210 <strlen@plt>
  406b99:	48 8b 0d d8 77 00 00 	mov    0x77d8(%rip),%rcx        # 40e378 <__ar_pos>
  406ba0:	48 8b 3d c1 77 00 00 	mov    0x77c1(%rip),%rdi        # 40e368 <__ar_addr>
  406ba7:	48 01 cf             	add    %rcx,%rdi
  406baa:	48 01 c1             	add    %rax,%rcx
  406bad:	48 83 c1 01          	add    $0x1,%rcx
  406bb1:	48 89 0d c0 77 00 00 	mov    %rcx,0x77c0(%rip)        # 40e378 <__ar_pos>
  406bb8:	c6 04 38 00          	movb   $0x0,(%rax,%rdi,1)
  406bbc:	48 89 de             	mov    %rbx,%rsi
  406bbf:	48 89 c2             	mov    %rax,%rdx
  406bc2:	5b                   	pop    %rbx
  406bc3:	e9 28 b9 ff ff       	jmp    4024f0 <memcpy@plt>
  406bc8:	0f 1f 84 00 00 00 00 	nopl   0x0(%rax,%rax,1)
  406bcf:	00 

0000000000406bd0 <ar_strndup>:
  406bd0:	53                   	push   %rbx
  406bd1:	48 89 fb             	mov    %rdi,%rbx
  406bd4:	e8 17 b6 ff ff       	call   4021f0 <strnlen@plt>
  406bd9:	48 8b 0d 98 77 00 00 	mov    0x7798(%rip),%rcx        # 40e378 <__ar_pos>
  406be0:	48 8b 3d 81 77 00 00 	mov    0x7781(%rip),%rdi        # 40e368 <__ar_addr>
  406be7:	48 01 cf             	add    %rcx,%rdi
  406bea:	48 01 c1             	add    %rax,%rcx
  406bed:	48 83 c1 01          	add    $0x1,%rcx
  406bf1:	48 89 0d 80 77 00 00 	mov    %rcx,0x7780(%rip)        # 40e378 <__ar_pos>
  406bf8:	c6 04 38 00          	movb   $0x0,(%rax,%rdi,1)
  406bfc:	48 89 de             	mov    %rbx,%rsi
  406bff:	48 89 c2             	mov    %rax,%rdx
  406c02:	5b                   	pop    %rbx
  406c03:	e9 e8 b8 ff ff       	jmp    4024f0 <memcpy@plt>
  406c08:	0f 1f 84 00 00 00 00 	nopl   0x0(%rax,%rax,1)
  406c0f:	00 

0000000000406c10 <shell_exec>:
  406c10:	55                   	push   %rbp
  406c11:	41 57                	push   %r15
  406c13:	41 56                	push   %r14
  406c15:	41 55                	push   %r13
  406c17:	41 54                	push   %r12
  406c19:	53                   	push   %rbx
  406c1a:	50                   	push   %rax
  406c1b:	49 89 cf             	mov    %rcx,%r15
  406c1e:	48 89 d3             	mov    %rdx,%rbx
  406c21:	49 89 f5             	mov    %rsi,%r13
  406c24:	49 89 fc             	mov    %rdi,%r12
  406c27:	49 89 f6             	mov    %rsi,%r14
  406c2a:	48 85 f6             	test   %rsi,%rsi
  406c2d:	74 5c                	je     406c8b <shell_exec+0x7b>
  406c2f:	48 8d 35 4a 2b 00 00 	lea    0x2b4a(%rip),%rsi        # 409780 <short_opt+0x80>
  406c36:	4c 89 e7             	mov    %r12,%rdi
  406c39:	e8 82 b8 ff ff       	call   4024c0 <popen@plt>
  406c3e:	48 85 c0             	test   %rax,%rax
  406c41:	74 7e                	je     406cc1 <shell_exec+0xb1>
  406c43:	48 89 c5             	mov    %rax,%rbp
  406c46:	4c 89 f7             	mov    %r14,%rdi
  406c49:	31 f6                	xor    %esi,%esi
  406c4b:	48 89 da             	mov    %rbx,%rdx
  406c4e:	e8 fd b3 ff ff       	call   402050 <memset@plt>
  406c53:	be 01 00 00 00       	mov    $0x1,%esi
  406c58:	4c 89 f7             	mov    %r14,%rdi
  406c5b:	48 89 da             	mov    %rbx,%rdx
  406c5e:	48 89 e9             	mov    %rbp,%rcx
  406c61:	e8 1a b7 ff ff       	call   402380 <fread@plt>
  406c66:	48 89 c3             	mov    %rax,%rbx
  406c69:	48 89 ef             	mov    %rbp,%rdi
  406c6c:	e8 cf b5 ff ff       	call   402240 <pclose@plt>
  406c71:	4d 85 ff             	test   %r15,%r15
  406c74:	74 03                	je     406c79 <shell_exec+0x69>
  406c76:	49 89 1f             	mov    %rbx,(%r15)
  406c79:	4c 89 f0             	mov    %r14,%rax
  406c7c:	48 83 c4 08          	add    $0x8,%rsp
  406c80:	5b                   	pop    %rbx
  406c81:	41 5c                	pop    %r12
  406c83:	41 5d                	pop    %r13
  406c85:	41 5e                	pop    %r14
  406c87:	41 5f                	pop    %r15
  406c89:	5d                   	pop    %rbp
  406c8a:	c3                   	ret    
  406c8b:	48 89 df             	mov    %rbx,%rdi
  406c8e:	e8 cd b4 ff ff       	call   402160 <malloc@plt>
  406c93:	49 89 c6             	mov    %rax,%r14
  406c96:	48 85 c0             	test   %rax,%rax
  406c99:	75 94                	jne    406c2f <shell_exec+0x1f>
  406c9b:	e8 f0 b6 ff ff       	call   402390 <__errno_location@plt>
  406ca0:	8b 18                	mov    (%rax),%ebx
  406ca2:	89 df                	mov    %ebx,%edi
  406ca4:	e8 17 b6 ff ff       	call   4022c0 <strerror@plt>
  406ca9:	48 8d 3d 03 39 00 00 	lea    0x3903(%rip),%rdi        # 40a5b3 <short_opt+0x173>
  406cb0:	45 31 f6             	xor    %r14d,%r14d
  406cb3:	89 de                	mov    %ebx,%esi
  406cb5:	48 89 c2             	mov    %rax,%rdx
  406cb8:	31 c0                	xor    %eax,%eax
  406cba:	e8 f1 12 00 00       	call   407fb0 <__pr_error>
  406cbf:	eb 29                	jmp    406cea <shell_exec+0xda>
  406cc1:	e8 ca b6 ff ff       	call   402390 <__errno_location@plt>
  406cc6:	8b 18                	mov    (%rax),%ebx
  406cc8:	89 df                	mov    %ebx,%edi
  406cca:	e8 f1 b5 ff ff       	call   4022c0 <strerror@plt>
  406ccf:	48 8d 3d f5 38 00 00 	lea    0x38f5(%rip),%rdi        # 40a5cb <short_opt+0x18b>
  406cd6:	4c 89 e6             	mov    %r12,%rsi
  406cd9:	89 da                	mov    %ebx,%edx
  406cdb:	48 89 c1             	mov    %rax,%rcx
  406cde:	31 c0                	xor    %eax,%eax
  406ce0:	e8 cb 12 00 00       	call   407fb0 <__pr_error>
  406ce5:	4d 85 ed             	test   %r13,%r13
  406ce8:	75 08                	jne    406cf2 <shell_exec+0xe2>
  406cea:	4c 89 f7             	mov    %r14,%rdi
  406ced:	e8 0e b5 ff ff       	call   402200 <free@plt>
  406cf2:	45 31 f6             	xor    %r14d,%r14d
  406cf5:	eb 82                	jmp    406c79 <shell_exec+0x69>
  406cf7:	66 0f 1f 84 00 00 00 	nopw   0x0(%rax,%rax,1)
  406cfe:	00 00 

0000000000406d00 <escapeshellarg>:
  406d00:	41 57                	push   %r15
  406d02:	41 56                	push   %r14
  406d04:	41 54                	push   %r12
  406d06:	53                   	push   %rbx
  406d07:	50                   	push   %rax
  406d08:	49 89 ce             	mov    %rcx,%r14
  406d0b:	49 89 d4             	mov    %rdx,%r12
  406d0e:	49 89 f7             	mov    %rsi,%r15
  406d11:	48 89 fb             	mov    %rdi,%rbx
  406d14:	48 85 d2             	test   %rdx,%rdx
  406d17:	74 14                	je     406d2d <escapeshellarg+0x2d>
  406d19:	48 85 db             	test   %rbx,%rbx
  406d1c:	74 1f                	je     406d3d <escapeshellarg+0x3d>
  406d1e:	c6 03 27             	movb   $0x27,(%rbx)
  406d21:	b8 01 00 00 00       	mov    $0x1,%eax
  406d26:	4d 85 e4             	test   %r12,%r12
  406d29:	75 2f                	jne    406d5a <escapeshellarg+0x5a>
  406d2b:	eb 63                	jmp    406d90 <escapeshellarg+0x90>
  406d2d:	4c 89 ff             	mov    %r15,%rdi
  406d30:	e8 db b4 ff ff       	call   402210 <strlen@plt>
  406d35:	49 89 c4             	mov    %rax,%r12
  406d38:	48 85 db             	test   %rbx,%rbx
  406d3b:	75 e1                	jne    406d1e <escapeshellarg+0x1e>
  406d3d:	4a 8d 3c a5 01 00 00 	lea    0x1(,%r12,4),%rdi
  406d44:	00 
  406d45:	e8 16 b4 ff ff       	call   402160 <malloc@plt>
  406d4a:	48 89 c3             	mov    %rax,%rbx
  406d4d:	c6 03 27             	movb   $0x27,(%rbx)
  406d50:	b8 01 00 00 00       	mov    $0x1,%eax
  406d55:	4d 85 e4             	test   %r12,%r12
  406d58:	74 36                	je     406d90 <escapeshellarg+0x90>
  406d5a:	31 c9                	xor    %ecx,%ecx
  406d5c:	eb 12                	jmp    406d70 <escapeshellarg+0x70>
  406d5e:	66 90                	xchg   %ax,%ax
  406d60:	88 14 03             	mov    %dl,(%rbx,%rax,1)
  406d63:	48 83 c0 01          	add    $0x1,%rax
  406d67:	48 83 c1 01          	add    $0x1,%rcx
  406d6b:	49 39 cc             	cmp    %rcx,%r12
  406d6e:	74 20                	je     406d90 <escapeshellarg+0x90>
  406d70:	41 0f b6 14 0f       	movzbl (%r15,%rcx,1),%edx
  406d75:	80 fa 27             	cmp    $0x27,%dl
  406d78:	75 e6                	jne    406d60 <escapeshellarg+0x60>
  406d7a:	66 c7 04 03 27 5c    	movw   $0x5c27,(%rbx,%rax,1)
  406d80:	c6 44 03 02 27       	movb   $0x27,0x2(%rbx,%rax,1)
  406d85:	48 83 c0 03          	add    $0x3,%rax
  406d89:	41 0f b6 14 0f       	movzbl (%r15,%rcx,1),%edx
  406d8e:	eb d0                	jmp    406d60 <escapeshellarg+0x60>
  406d90:	66 c7 04 03 27 00    	movw   $0x27,(%rbx,%rax,1)
  406d96:	4d 85 f6             	test   %r14,%r14
  406d99:	74 07                	je     406da2 <escapeshellarg+0xa2>
  406d9b:	48 83 c0 01          	add    $0x1,%rax
  406d9f:	49 89 06             	mov    %rax,(%r14)
  406da2:	48 89 d8             	mov    %rbx,%rax
  406da5:	48 83 c4 08          	add    $0x8,%rsp
  406da9:	5b                   	pop    %rbx
  406daa:	41 5c                	pop    %r12
  406dac:	41 5e                	pop    %r14
  406dae:	41 5f                	pop    %r15
  406db0:	c3                   	ret    
  406db1:	66 2e 0f 1f 84 00 00 	cs nopw 0x0(%rax,%rax,1)
  406db8:	00 00 00 
  406dbb:	0f 1f 44 00 00       	nopl   0x0(%rax,%rax,1)

0000000000406dc0 <trim_len>:
  406dc0:	48 89 f8             	mov    %rdi,%rax
  406dc3:	48 85 f6             	test   %rsi,%rsi
  406dc6:	0f 84 46 00 00 00    	je     406e12 <trim_len+0x52>
  406dcc:	4c 8d 14 30          	lea    (%rax,%rsi,1),%r10
  406dd0:	49 89 f3             	mov    %rsi,%r11
  406dd3:	49 f7 db             	neg    %r11
  406dd6:	49 b9 00 2c 00 00 01 	movabs $0x100002c00,%r9
  406ddd:	00 00 00 
  406de0:	45 31 c0             	xor    %r8d,%r8d
  406de3:	48 89 c1             	mov    %rax,%rcx
  406de6:	66 2e 0f 1f 84 00 00 	cs nopw 0x0(%rax,%rax,1)
  406ded:	00 00 00 
  406df0:	0f b6 39             	movzbl (%rcx),%edi
  406df3:	48 83 ff 20          	cmp    $0x20,%rdi
  406df7:	77 23                	ja     406e1c <trim_len+0x5c>
  406df9:	49 0f a3 f9          	bt     %rdi,%r9
  406dfd:	73 1d                	jae    406e1c <trim_len+0x5c>
  406dff:	48 83 c1 01          	add    $0x1,%rcx
  406e03:	49 ff c3             	inc    %r11
  406e06:	75 e8                	jne    406df0 <trim_len+0x30>
  406e08:	4c 89 d0             	mov    %r10,%rax
  406e0b:	48 85 d2             	test   %rdx,%rdx
  406e0e:	75 65                	jne    406e75 <trim_len+0xb5>
  406e10:	eb 66                	jmp    406e78 <trim_len+0xb8>
  406e12:	45 31 c0             	xor    %r8d,%r8d
  406e15:	48 85 d2             	test   %rdx,%rdx
  406e18:	75 5b                	jne    406e75 <trim_len+0xb5>
  406e1a:	eb 5c                	jmp    406e78 <trim_len+0xb8>
  406e1c:	48 01 f0             	add    %rsi,%rax
  406e1f:	4d 8d 43 01          	lea    0x1(%r11),%r8
  406e23:	41 b2 01             	mov    $0x1,%r10b
  406e26:	31 f6                	xor    %esi,%esi
  406e28:	0f 1f 84 00 00 00 00 	nopl   0x0(%rax,%rax,1)
  406e2f:	00 
  406e30:	0f b6 7c 30 ff       	movzbl -0x1(%rax,%rsi,1),%edi
  406e35:	48 83 ff 20          	cmp    $0x20,%rdi
  406e39:	77 22                	ja     406e5d <trim_len+0x9d>
  406e3b:	49 0f a3 f9          	bt     %rdi,%r9
  406e3f:	73 1c                	jae    406e5d <trim_len+0x9d>
  406e41:	48 8d 7e ff          	lea    -0x1(%rsi),%rdi
  406e45:	45 31 d2             	xor    %r10d,%r10d
  406e48:	49 39 f0             	cmp    %rsi,%r8
  406e4b:	48 89 fe             	mov    %rdi,%rsi
  406e4e:	75 e0                	jne    406e30 <trim_len+0x70>
  406e50:	48 89 c8             	mov    %rcx,%rax
  406e53:	45 31 c0             	xor    %r8d,%r8d
  406e56:	48 85 d2             	test   %rdx,%rdx
  406e59:	75 1a                	jne    406e75 <trim_len+0xb5>
  406e5b:	eb 1b                	jmp    406e78 <trim_len+0xb8>
  406e5d:	49 89 f0             	mov    %rsi,%r8
  406e60:	4d 29 d8             	sub    %r11,%r8
  406e63:	41 f6 c2 01          	test   $0x1,%r10b
  406e67:	75 04                	jne    406e6d <trim_len+0xad>
  406e69:	c6 04 06 00          	movb   $0x0,(%rsi,%rax,1)
  406e6d:	48 89 c8             	mov    %rcx,%rax
  406e70:	48 85 d2             	test   %rdx,%rdx
  406e73:	74 03                	je     406e78 <trim_len+0xb8>
  406e75:	4c 89 02             	mov    %r8,(%rdx)
  406e78:	c3                   	ret    
  406e79:	0f 1f 80 00 00 00 00 	nopl   0x0(%rax)

0000000000406e80 <trim_len_cpy>:
  406e80:	41 57                	push   %r15
  406e82:	41 56                	push   %r14
  406e84:	53                   	push   %rbx
  406e85:	49 89 d6             	mov    %rdx,%r14
  406e88:	49 89 ff             	mov    %rdi,%r15
  406e8b:	49 89 f1             	mov    %rsi,%r9
  406e8e:	49 83 e9 01          	sub    $0x1,%r9
  406e92:	73 07                	jae    406e9b <trim_len_cpy+0x1b>
  406e94:	31 db                	xor    %ebx,%ebx
  406e96:	e9 8b 00 00 00       	jmp    406f26 <trim_len_cpy+0xa6>
  406e9b:	48 89 f3             	mov    %rsi,%rbx
  406e9e:	4d 01 f9             	add    %r15,%r9
  406ea1:	49 b8 00 2c 00 00 01 	movabs $0x100002c00,%r8
  406ea8:	00 00 00 
  406eab:	31 d2                	xor    %edx,%edx
  406ead:	31 c9                	xor    %ecx,%ecx
  406eaf:	90                   	nop
  406eb0:	41 0f b6 34 17       	movzbl (%r15,%rdx,1),%esi
  406eb5:	48 83 fe 20          	cmp    $0x20,%rsi
  406eb9:	77 15                	ja     406ed0 <trim_len_cpy+0x50>
  406ebb:	49 0f a3 f0          	bt     %rsi,%r8
  406ebf:	73 0f                	jae    406ed0 <trim_len_cpy+0x50>
  406ec1:	48 83 c2 01          	add    $0x1,%rdx
  406ec5:	b1 01                	mov    $0x1,%cl
  406ec7:	48 39 d3             	cmp    %rdx,%rbx
  406eca:	75 e4                	jne    406eb0 <trim_len_cpy+0x30>
  406ecc:	31 db                	xor    %ebx,%ebx
  406ece:	eb 51                	jmp    406f21 <trim_len_cpy+0xa1>
  406ed0:	49 8d 34 17          	lea    (%r15,%rdx,1),%rsi
  406ed4:	31 ff                	xor    %edi,%edi
  406ed6:	66 2e 0f 1f 84 00 00 	cs nopw 0x0(%rax,%rax,1)
  406edd:	00 00 00 
  406ee0:	41 0f b6 04 39       	movzbl (%r9,%rdi,1),%eax
  406ee5:	48 83 f8 20          	cmp    $0x20,%rax
  406ee9:	77 20                	ja     406f0b <trim_len_cpy+0x8b>
  406eeb:	49 0f a3 c0          	bt     %rax,%r8
  406eef:	73 1a                	jae    406f0b <trim_len_cpy+0x8b>
  406ef1:	48 8d 04 3b          	lea    (%rbx,%rdi,1),%rax
  406ef5:	48 83 c0 ff          	add    $0xffffffffffffffff,%rax
  406ef9:	48 83 c7 ff          	add    $0xffffffffffffffff,%rdi
  406efd:	48 39 d0             	cmp    %rdx,%rax
  406f00:	75 de                	jne    406ee0 <trim_len_cpy+0x60>
  406f02:	31 db                	xor    %ebx,%ebx
  406f04:	f6 c1 01             	test   $0x1,%cl
  406f07:	75 18                	jne    406f21 <trim_len_cpy+0xa1>
  406f09:	eb 1b                	jmp    406f26 <trim_len_cpy+0xa6>
  406f0b:	48 29 d3             	sub    %rdx,%rbx
  406f0e:	48 01 fb             	add    %rdi,%rbx
  406f11:	f6 c1 01             	test   $0x1,%cl
  406f14:	74 10                	je     406f26 <trim_len_cpy+0xa6>
  406f16:	4c 89 ff             	mov    %r15,%rdi
  406f19:	48 89 da             	mov    %rbx,%rdx
  406f1c:	e8 2f b4 ff ff       	call   402350 <memmove@plt>
  406f21:	41 c6 04 1f 00       	movb   $0x0,(%r15,%rbx,1)
  406f26:	4d 85 f6             	test   %r14,%r14
  406f29:	74 03                	je     406f2e <trim_len_cpy+0xae>
  406f2b:	49 89 1e             	mov    %rbx,(%r14)
  406f2e:	4c 89 f8             	mov    %r15,%rax
  406f31:	5b                   	pop    %rbx
  406f32:	41 5e                	pop    %r14
  406f34:	41 5f                	pop    %r15
  406f36:	c3                   	ret    
  406f37:	66 0f 1f 84 00 00 00 	nopw   0x0(%rax,%rax,1)
  406f3e:	00 00 

0000000000406f40 <trim>:
  406f40:	41 56                	push   %r14
  406f42:	53                   	push   %rbx
  406f43:	50                   	push   %rax
  406f44:	49 89 fe             	mov    %rdi,%r14
  406f47:	e8 c4 b2 ff ff       	call   402210 <strlen@plt>
  406f4c:	48 85 c0             	test   %rax,%rax
  406f4f:	74 47                	je     406f98 <trim+0x58>
  406f51:	48 89 c1             	mov    %rax,%rcx
  406f54:	4d 8d 04 06          	lea    (%r14,%rax,1),%r8
  406f58:	ba 01 00 00 00       	mov    $0x1,%edx
  406f5d:	48 29 c2             	sub    %rax,%rdx
  406f60:	48 be 00 2c 00 00 01 	movabs $0x100002c00,%rsi
  406f67:	00 00 00 
  406f6a:	4c 89 f0             	mov    %r14,%rax
  406f6d:	0f 1f 00             	nopl   (%rax)
  406f70:	0f b6 38             	movzbl (%rax),%edi
  406f73:	48 83 ff 20          	cmp    $0x20,%rdi
  406f77:	77 2a                	ja     406fa3 <trim+0x63>
  406f79:	48 0f a3 fe          	bt     %rdi,%rsi
  406f7d:	73 24                	jae    406fa3 <trim+0x63>
  406f7f:	48 83 c0 01          	add    $0x1,%rax
  406f83:	48 83 c2 01          	add    $0x1,%rdx
  406f87:	48 83 fa 01          	cmp    $0x1,%rdx
  406f8b:	75 e3                	jne    406f70 <trim+0x30>
  406f8d:	4c 89 c0             	mov    %r8,%rax
  406f90:	48 83 c4 08          	add    $0x8,%rsp
  406f94:	5b                   	pop    %rbx
  406f95:	41 5e                	pop    %r14
  406f97:	c3                   	ret    
  406f98:	4c 89 f0             	mov    %r14,%rax
  406f9b:	48 83 c4 08          	add    $0x8,%rsp
  406f9f:	5b                   	pop    %rbx
  406fa0:	41 5e                	pop    %r14
  406fa2:	c3                   	ret    
  406fa3:	49 01 ce             	add    %rcx,%r14
  406fa6:	40 b7 01             	mov    $0x1,%dil
  406fa9:	31 c9                	xor    %ecx,%ecx
  406fab:	0f 1f 44 00 00       	nopl   0x0(%rax,%rax,1)
  406fb0:	41 0f b6 5c 0e ff    	movzbl -0x1(%r14,%rcx,1),%ebx
  406fb6:	48 83 fb 20          	cmp    $0x20,%rbx
  406fba:	77 16                	ja     406fd2 <trim+0x92>
  406fbc:	48 0f a3 de          	bt     %rbx,%rsi
  406fc0:	73 10                	jae    406fd2 <trim+0x92>
  406fc2:	48 8d 59 ff          	lea    -0x1(%rcx),%rbx
  406fc6:	31 ff                	xor    %edi,%edi
  406fc8:	48 39 ca             	cmp    %rcx,%rdx
  406fcb:	48 89 d9             	mov    %rbx,%rcx
  406fce:	75 e0                	jne    406fb0 <trim+0x70>
  406fd0:	eb be                	jmp    406f90 <trim+0x50>
  406fd2:	40 f6 c7 01          	test   $0x1,%dil
  406fd6:	75 b8                	jne    406f90 <trim+0x50>
  406fd8:	42 c6 04 31 00       	movb   $0x0,(%rcx,%r14,1)
  406fdd:	48 83 c4 08          	add    $0x8,%rsp
  406fe1:	5b                   	pop    %rbx
  406fe2:	41 5e                	pop    %r14
  406fe4:	c3                   	ret    
  406fe5:	66 2e 0f 1f 84 00 00 	cs nopw 0x0(%rax,%rax,1)
  406fec:	00 00 00 
  406fef:	90                   	nop

0000000000406ff0 <trim_cpy>:
  406ff0:	41 56                	push   %r14
  406ff2:	53                   	push   %rbx
  406ff3:	50                   	push   %rax
  406ff4:	49 89 fe             	mov    %rdi,%r14
  406ff7:	e8 14 b2 ff ff       	call   402210 <strlen@plt>
  406ffc:	49 89 c1             	mov    %rax,%r9
  406fff:	49 83 e9 01          	sub    $0x1,%r9
  407003:	0f 82 92 00 00 00    	jb     40709b <trim_cpy+0xab>
  407009:	48 89 c3             	mov    %rax,%rbx
  40700c:	4d 01 f1             	add    %r14,%r9
  40700f:	31 f6                	xor    %esi,%esi
  407011:	49 b8 00 2c 00 00 01 	movabs $0x100002c00,%r8
  407018:	00 00 00 
  40701b:	31 c9                	xor    %ecx,%ecx
  40701d:	31 ff                	xor    %edi,%edi
  40701f:	90                   	nop
  407020:	41 0f b6 14 0e       	movzbl (%r14,%rcx,1),%edx
  407025:	48 83 fa 20          	cmp    $0x20,%rdx
  407029:	77 14                	ja     40703f <trim_cpy+0x4f>
  40702b:	49 0f a3 d0          	bt     %rdx,%r8
  40702f:	73 0e                	jae    40703f <trim_cpy+0x4f>
  407031:	48 83 c1 01          	add    $0x1,%rcx
  407035:	40 b7 01             	mov    $0x1,%dil
  407038:	48 39 cb             	cmp    %rcx,%rbx
  40703b:	75 e3                	jne    407020 <trim_cpy+0x30>
  40703d:	eb 57                	jmp    407096 <trim_cpy+0xa6>
  40703f:	49 8d 34 0e          	lea    (%r14,%rcx,1),%rsi
  407043:	31 d2                	xor    %edx,%edx
  407045:	66 2e 0f 1f 84 00 00 	cs nopw 0x0(%rax,%rax,1)
  40704c:	00 00 00 
  40704f:	90                   	nop
  407050:	41 0f b6 04 11       	movzbl (%r9,%rdx,1),%eax
  407055:	48 83 f8 20          	cmp    $0x20,%rax
  407059:	77 21                	ja     40707c <trim_cpy+0x8c>
  40705b:	49 0f a3 c0          	bt     %rax,%r8
  40705f:	73 1b                	jae    40707c <trim_cpy+0x8c>
  407061:	48 8d 04 13          	lea    (%rbx,%rdx,1),%rax
  407065:	48 83 c0 ff          	add    $0xffffffffffffffff,%rax
  407069:	48 83 c2 ff          	add    $0xffffffffffffffff,%rdx
  40706d:	48 39 c8             	cmp    %rcx,%rax
  407070:	75 de                	jne    407050 <trim_cpy+0x60>
  407072:	40 f6 c7 01          	test   $0x1,%dil
  407076:	74 23                	je     40709b <trim_cpy+0xab>
  407078:	31 f6                	xor    %esi,%esi
  40707a:	eb 1a                	jmp    407096 <trim_cpy+0xa6>
  40707c:	40 f6 c7 01          	test   $0x1,%dil
  407080:	74 19                	je     40709b <trim_cpy+0xab>
  407082:	48 29 cb             	sub    %rcx,%rbx
  407085:	48 01 d3             	add    %rdx,%rbx
  407088:	4c 89 f7             	mov    %r14,%rdi
  40708b:	48 89 da             	mov    %rbx,%rdx
  40708e:	e8 bd b2 ff ff       	call   402350 <memmove@plt>
  407093:	48 89 de             	mov    %rbx,%rsi
  407096:	41 c6 04 36 00       	movb   $0x0,(%r14,%rsi,1)
  40709b:	4c 89 f0             	mov    %r14,%rax
  40709e:	48 83 c4 08          	add    $0x8,%rsp
  4070a2:	5b                   	pop    %rbx
  4070a3:	41 5e                	pop    %r14
  4070a5:	c3                   	ret    
  4070a6:	66 2e 0f 1f 84 00 00 	cs nopw 0x0(%rax,%rax,1)
  4070ad:	00 00 00 

00000000004070b0 <trunc_str>:
  4070b0:	41 56                	push   %r14
  4070b2:	53                   	push   %rbx
  4070b3:	50                   	push   %rax
  4070b4:	48 89 f3             	mov    %rsi,%rbx
  4070b7:	49 89 fe             	mov    %rdi,%r14
  4070ba:	e8 31 b1 ff ff       	call   4021f0 <strnlen@plt>
  4070bf:	48 39 d8             	cmp    %rbx,%rax
  4070c2:	72 05                	jb     4070c9 <trunc_str+0x19>
  4070c4:	41 c6 04 1e 00       	movb   $0x0,(%r14,%rbx,1)
  4070c9:	4c 89 f0             	mov    %r14,%rax
  4070cc:	48 83 c4 08          	add    $0x8,%rsp
  4070d0:	5b                   	pop    %rbx
  4070d1:	41 5e                	pop    %r14
  4070d3:	c3                   	ret    
  4070d4:	66 2e 0f 1f 84 00 00 	cs nopw 0x0(%rax,%rax,1)
  4070db:	00 00 00 
  4070de:	66 90                	xchg   %ax,%ax

00000000004070e0 <memzero_explicit>:
  4070e0:	48 89 f2             	mov    %rsi,%rdx
  4070e3:	31 f6                	xor    %esi,%esi
  4070e5:	e9 66 af ff ff       	jmp    402050 <memset@plt>
  4070ea:	66 0f 1f 44 00 00    	nopw   0x0(%rax,%rax,1)

00000000004070f0 <memcmp_explicit>:
  4070f0:	e9 1b b3 ff ff       	jmp    402410 <memcmp@plt>
  4070f5:	66 2e 0f 1f 84 00 00 	cs nopw 0x0(%rax,%rax,1)
  4070fc:	00 00 00 
  4070ff:	90                   	nop

0000000000407100 <tun_alloc>:
  407100:	55                   	push   %rbp
  407101:	41 57                	push   %r15
  407103:	41 56                	push   %r14
  407105:	41 55                	push   %r13
  407107:	41 54                	push   %r12
  407109:	53                   	push   %rbx
  40710a:	48 83 ec 38          	sub    $0x38,%rsp
  40710e:	64 48 8b 04 25 28 00 	mov    %fs:0x28,%rax
  407115:	00 00 
  407117:	48 89 44 24 30       	mov    %rax,0x30(%rsp)
  40711c:	48 85 ff             	test   %rdi,%rdi
  40711f:	0f 84 a3 00 00 00    	je     4071c8 <tun_alloc+0xc8>
  407125:	48 89 fb             	mov    %rdi,%rbx
  407128:	80 3f 00             	cmpb   $0x0,(%rdi)
  40712b:	0f 84 97 00 00 00    	je     4071c8 <tun_alloc+0xc8>
  407131:	41 89 f6             	mov    %esi,%r14d
  407134:	48 8b 3d f5 71 00 00 	mov    0x71f5(%rip),%rdi        # 40e330 <tun_alloc.dtf>
  40713b:	be 02 08 00 00       	mov    $0x802,%esi
  407140:	31 c0                	xor    %eax,%eax
  407142:	e8 c9 b3 ff ff       	call   402510 <open@plt>
  407147:	41 89 c5             	mov    %eax,%r13d
  40714a:	85 c0                	test   %eax,%eax
  40714c:	0f 88 8c 00 00 00    	js     4071de <tun_alloc+0xde>
  407152:	0f 57 c0             	xorps  %xmm0,%xmm0
  407155:	0f 29 44 24 10       	movaps %xmm0,0x10(%rsp)
  40715a:	0f 29 04 24          	movaps %xmm0,(%rsp)
  40715e:	48 c7 44 24 20 00 00 	movq   $0x0,0x20(%rsp)
  407165:	00 00 
  407167:	48 89 e5             	mov    %rsp,%rbp
  40716a:	ba 0f 00 00 00       	mov    $0xf,%edx
  40716f:	48 89 ef             	mov    %rbp,%rdi
  407172:	48 89 de             	mov    %rbx,%rsi
  407175:	e8 c6 b2 ff ff       	call   402440 <strncpy@plt>
  40717a:	48 89 ef             	mov    %rbp,%rdi
  40717d:	e8 6e fe ff ff       	call   406ff0 <trim_cpy>
  407182:	66 44 89 74 24 10    	mov    %r14w,0x10(%rsp)
  407188:	be ca 54 04 40       	mov    $0x400454ca,%esi
  40718d:	44 89 ef             	mov    %r13d,%edi
  407190:	48 89 ea             	mov    %rbp,%rdx
  407193:	31 c0                	xor    %eax,%eax
  407195:	e8 16 af ff ff       	call   4020b0 <ioctl@plt>
  40719a:	85 c0                	test   %eax,%eax
  40719c:	0f 88 ba 00 00 00    	js     40725c <tun_alloc+0x15c>
  4071a2:	64 48 8b 04 25 28 00 	mov    %fs:0x28,%rax
  4071a9:	00 00 
  4071ab:	48 3b 44 24 30       	cmp    0x30(%rsp),%rax
  4071b0:	0f 85 e4 00 00 00    	jne    40729a <tun_alloc+0x19a>
  4071b6:	44 89 e8             	mov    %r13d,%eax
  4071b9:	48 83 c4 38          	add    $0x38,%rsp
  4071bd:	5b                   	pop    %rbx
  4071be:	41 5c                	pop    %r12
  4071c0:	41 5d                	pop    %r13
  4071c2:	41 5e                	pop    %r14
  4071c4:	41 5f                	pop    %r15
  4071c6:	5d                   	pop    %rbp
  4071c7:	c3                   	ret    
  4071c8:	48 8d 3d 29 34 00 00 	lea    0x3429(%rip),%rdi        # 40a5f8 <short_opt+0x1b8>
  4071cf:	31 c0                	xor    %eax,%eax
  4071d1:	e8 da 0d 00 00       	call   407fb0 <__pr_error>
  4071d6:	41 bd ea ff ff ff    	mov    $0xffffffea,%r13d
  4071dc:	eb c4                	jmp    4071a2 <tun_alloc+0xa2>
  4071de:	40 b5 01             	mov    $0x1,%bpl
  4071e1:	e8 aa b1 ff ff       	call   402390 <__errno_location@plt>
  4071e6:	49 89 c7             	mov    %rax,%r15
  4071e9:	45 8b 2f             	mov    (%r15),%r13d
  4071ec:	4c 8b 25 3d 71 00 00 	mov    0x713d(%rip),%r12        # 40e330 <tun_alloc.dtf>
  4071f3:	44 89 ef             	mov    %r13d,%edi
  4071f6:	e8 c5 b0 ff ff       	call   4022c0 <strerror@plt>
  4071fb:	48 8d 3d 17 34 00 00 	lea    0x3417(%rip),%rdi        # 40a619 <short_opt+0x1d9>
  407202:	4c 89 e6             	mov    %r12,%rsi
  407205:	44 89 ea             	mov    %r13d,%edx
  407208:	48 89 c1             	mov    %rax,%rcx
  40720b:	31 c0                	xor    %eax,%eax
  40720d:	e8 9e 0d 00 00       	call   407fb0 <__pr_error>
  407212:	40 f6 c5 01          	test   $0x1,%bpl
  407216:	74 7a                	je     407292 <tun_alloc+0x192>
  407218:	41 83 fd 02          	cmp    $0x2,%r13d
  40721c:	75 74                	jne    407292 <tun_alloc+0x192>
  40721e:	48 8d 35 16 34 00 00 	lea    0x3416(%rip),%rsi        # 40a63b <short_opt+0x1fb>
  407225:	48 89 35 04 71 00 00 	mov    %rsi,0x7104(%rip)        # 40e330 <tun_alloc.dtf>
  40722c:	31 ed                	xor    %ebp,%ebp
  40722e:	48 8d 3d 0f 34 00 00 	lea    0x340f(%rip),%rdi        # 40a644 <short_opt+0x204>
  407235:	31 c0                	xor    %eax,%eax
  407237:	e8 74 13 00 00       	call   4085b0 <__pr_notice>
  40723c:	48 8b 3d ed 70 00 00 	mov    0x70ed(%rip),%rdi        # 40e330 <tun_alloc.dtf>
  407243:	be 02 08 00 00       	mov    $0x802,%esi
  407248:	31 c0                	xor    %eax,%eax
  40724a:	e8 c1 b2 ff ff       	call   402510 <open@plt>
  40724f:	41 89 c5             	mov    %eax,%r13d
  407252:	85 c0                	test   %eax,%eax
  407254:	0f 89 f8 fe ff ff    	jns    407152 <tun_alloc+0x52>
  40725a:	eb 8d                	jmp    4071e9 <tun_alloc+0xe9>
  40725c:	44 89 ef             	mov    %r13d,%edi
  40725f:	e8 3c ae ff ff       	call   4020a0 <close@plt>
  407264:	e8 27 b1 ff ff       	call   402390 <__errno_location@plt>
  407269:	8b 18                	mov    (%rax),%ebx
  40726b:	89 df                	mov    %ebx,%edi
  40726d:	e8 4e b0 ff ff       	call   4022c0 <strerror@plt>
  407272:	48 8d 3d de 33 00 00 	lea    0x33de(%rip),%rdi        # 40a657 <short_opt+0x217>
  407279:	44 89 ee             	mov    %r13d,%esi
  40727c:	89 da                	mov    %ebx,%edx
  40727e:	48 89 c1             	mov    %rax,%rcx
  407281:	31 c0                	xor    %eax,%eax
  407283:	e8 28 0d 00 00       	call   407fb0 <__pr_error>
  407288:	f7 db                	neg    %ebx
  40728a:	41 89 dd             	mov    %ebx,%r13d
  40728d:	e9 10 ff ff ff       	jmp    4071a2 <tun_alloc+0xa2>
  407292:	41 f7 dd             	neg    %r13d
  407295:	e9 08 ff ff ff       	jmp    4071a2 <tun_alloc+0xa2>
  40729a:	e8 01 b1 ff ff       	call   4023a0 <__stack_chk_fail@plt>
  40729f:	90                   	nop

00000000004072a0 <fd_set_nonblock>:
  4072a0:	55                   	push   %rbp
  4072a1:	41 56                	push   %r14
  4072a3:	53                   	push   %rbx
  4072a4:	89 fb                	mov    %edi,%ebx
  4072a6:	be 03 00 00 00       	mov    $0x3,%esi
  4072ab:	31 d2                	xor    %edx,%edx
  4072ad:	31 c0                	xor    %eax,%eax
  4072af:	e8 4c b2 ff ff       	call   402500 <fcntl@plt>
  4072b4:	85 c0                	test   %eax,%eax
  4072b6:	78 22                	js     4072da <fd_set_nonblock+0x3a>
  4072b8:	0d 00 08 00 00       	or     $0x800,%eax
  4072bd:	89 df                	mov    %ebx,%edi
  4072bf:	be 04 00 00 00       	mov    $0x4,%esi
  4072c4:	89 c2                	mov    %eax,%edx
  4072c6:	31 c0                	xor    %eax,%eax
  4072c8:	e8 33 b2 ff ff       	call   402500 <fcntl@plt>
  4072cd:	89 c5                	mov    %eax,%ebp
  4072cf:	85 c0                	test   %eax,%eax
  4072d1:	78 2e                	js     407301 <fd_set_nonblock+0x61>
  4072d3:	89 e8                	mov    %ebp,%eax
  4072d5:	5b                   	pop    %rbx
  4072d6:	41 5e                	pop    %r14
  4072d8:	5d                   	pop    %rbp
  4072d9:	c3                   	ret    
  4072da:	e8 b1 b0 ff ff       	call   402390 <__errno_location@plt>
  4072df:	8b 28                	mov    (%rax),%ebp
  4072e1:	89 ef                	mov    %ebp,%edi
  4072e3:	e8 d8 af ff ff       	call   4022c0 <strerror@plt>
  4072e8:	48 8d 3d 92 33 00 00 	lea    0x3392(%rip),%rdi        # 40a681 <short_opt+0x241>
  4072ef:	89 de                	mov    %ebx,%esi
  4072f1:	89 ea                	mov    %ebp,%edx
  4072f3:	48 89 c1             	mov    %rax,%rcx
  4072f6:	31 c0                	xor    %eax,%eax
  4072f8:	e8 b3 0c 00 00       	call   407fb0 <__pr_error>
  4072fd:	f7 dd                	neg    %ebp
  4072ff:	eb d2                	jmp    4072d3 <fd_set_nonblock+0x33>
  407301:	e8 8a b0 ff ff       	call   402390 <__errno_location@plt>
  407306:	44 8b 30             	mov    (%rax),%r14d
  407309:	44 89 f7             	mov    %r14d,%edi
  40730c:	e8 af af ff ff       	call   4022c0 <strerror@plt>
  407311:	48 8d 3d 8e 33 00 00 	lea    0x338e(%rip),%rdi        # 40a6a6 <short_opt+0x266>
  407318:	89 de                	mov    %ebx,%esi
  40731a:	89 ea                	mov    %ebp,%edx
  40731c:	44 89 f1             	mov    %r14d,%ecx
  40731f:	49 89 c0             	mov    %rax,%r8
  407322:	31 c0                	xor    %eax,%eax
  407324:	e8 87 0c 00 00       	call   407fb0 <__pr_error>
  407329:	41 f7 de             	neg    %r14d
  40732c:	44 89 f5             	mov    %r14d,%ebp
  40732f:	eb a2                	jmp    4072d3 <fd_set_nonblock+0x33>
  407331:	66 2e 0f 1f 84 00 00 	cs nopw 0x0(%rax,%rax,1)
  407338:	00 00 00 
  40733b:	0f 1f 44 00 00       	nopl   0x0(%rax,%rax,1)

0000000000407340 <teavpn_iface_up>:
  407340:	be 01 00 00 00       	mov    $0x1,%esi
  407345:	eb 09                	jmp    407350 <teavpn_iface_toggle>
  407347:	66 0f 1f 84 00 00 00 	nopw   0x0(%rax,%rax,1)
  40734e:	00 00 

0000000000407350 <teavpn_iface_toggle>:
  407350:	55                   	push   %rbp
  407351:	41 57                	push   %r15
  407353:	41 56                	push   %r14
  407355:	41 55                	push   %r13
  407357:	41 54                	push   %r12
  407359:	53                   	push   %rbx
  40735a:	48 81 ec 08 05 00 00 	sub    $0x508,%rsp
  407361:	41 89 f5             	mov    %esi,%r13d
  407364:	49 89 fe             	mov    %rdi,%r14
  407367:	64 48 8b 04 25 28 00 	mov    %fs:0x28,%rax
  40736e:	00 00 
  407370:	48 89 84 24 00 05 00 	mov    %rax,0x500(%rsp)
  407377:	00 
  407378:	48 8d 77 20          	lea    0x20(%rdi),%rsi
  40737c:	48 8d bc 24 e0 04 00 	lea    0x4e0(%rsp),%rdi
  407383:	00 
  407384:	ba 18 00 00 00       	mov    $0x18,%edx
  407389:	e8 b2 b0 ff ff       	call   402440 <strncpy@plt>
  40738e:	c6 84 24 f8 04 00 00 	movb   $0x0,0x4f8(%rsp)
  407395:	00 
  407396:	49 8d 76 30          	lea    0x30(%r14),%rsi
  40739a:	48 8d 9c 24 c0 04 00 	lea    0x4c0(%rsp),%rbx
  4073a1:	00 
  4073a2:	ba 18 00 00 00       	mov    $0x18,%edx
  4073a7:	48 89 df             	mov    %rbx,%rdi
  4073aa:	e8 91 b0 ff ff       	call   402440 <strncpy@plt>
  4073af:	c6 84 24 d8 04 00 00 	movb   $0x0,0x4d8(%rsp)
  4073b6:	00 
  4073b7:	48 8d 54 24 18       	lea    0x18(%rsp),%rdx
  4073bc:	bf 02 00 00 00       	mov    $0x2,%edi
  4073c1:	48 89 de             	mov    %rbx,%rsi
  4073c4:	e8 c7 ac ff ff       	call   402090 <inet_pton@plt>
  4073c9:	85 c0                	test   %eax,%eax
  4073cb:	0f 84 45 07 00 00    	je     407b16 <teavpn_iface_toggle+0x7c6>
  4073d1:	8b 44 24 18          	mov    0x18(%rsp),%eax
  4073d5:	0f bd d8             	bsr    %eax,%ebx
  4073d8:	83 f3 e0             	xor    $0xffffffe0,%ebx
  4073db:	83 c3 21             	add    $0x21,%ebx
  4073de:	85 c0                	test   %eax,%eax
  4073e0:	0f 44 d8             	cmove  %eax,%ebx
  4073e3:	48 8d b4 24 e0 04 00 	lea    0x4e0(%rsp),%rsi
  4073ea:	00 
  4073eb:	48 8d 54 24 1c       	lea    0x1c(%rsp),%rdx
  4073f0:	bf 02 00 00 00       	mov    $0x2,%edi
  4073f5:	e8 96 ac ff ff       	call   402090 <inet_pton@plt>
  4073fa:	85 c0                	test   %eax,%eax
  4073fc:	0f 84 45 07 00 00    	je     407b47 <teavpn_iface_toggle+0x7f7>
  407402:	48 8d bc 24 e0 04 00 	lea    0x4e0(%rsp),%rdi
  407409:	00 
  40740a:	be 18 00 00 00       	mov    $0x18,%esi
  40740f:	e8 dc ad ff ff       	call   4021f0 <strnlen@plt>
  407414:	48 8d 3c 04          	lea    (%rsp,%rax,1),%rdi
  407418:	48 81 c7 e0 04 00 00 	add    $0x4e0,%rdi
  40741f:	48 8d 15 f1 32 00 00 	lea    0x32f1(%rip),%rdx        # 40a717 <short_opt+0x2d7>
  407426:	be 18 00 00 00       	mov    $0x18,%esi
  40742b:	89 d9                	mov    %ebx,%ecx
  40742d:	31 c0                	xor    %eax,%eax
  40742f:	e8 3c ac ff ff       	call   402070 <snprintf@plt>
  407434:	8b 44 24 1c          	mov    0x1c(%rsp),%eax
  407438:	8b 4c 24 18          	mov    0x18(%rsp),%ecx
  40743c:	89 ca                	mov    %ecx,%edx
  40743e:	21 c2                	and    %eax,%edx
  407440:	89 54 24 14          	mov    %edx,0x14(%rsp)
  407444:	f7 d1                	not    %ecx
  407446:	09 c1                	or     %eax,%ecx
  407448:	89 4c 24 10          	mov    %ecx,0x10(%rsp)
  40744c:	48 8d 74 24 14       	lea    0x14(%rsp),%rsi
  407451:	48 8d 94 24 a0 04 00 	lea    0x4a0(%rsp),%rdx
  407458:	00 
  407459:	bf 02 00 00 00       	mov    $0x2,%edi
  40745e:	b9 18 00 00 00       	mov    $0x18,%ecx
  407463:	e8 78 b0 ff ff       	call   4024e0 <inet_ntop@plt>
  407468:	48 85 c0             	test   %rax,%rax
  40746b:	0f 84 16 07 00 00    	je     407b87 <teavpn_iface_toggle+0x837>
  407471:	48 8d bc 24 a0 04 00 	lea    0x4a0(%rsp),%rdi
  407478:	00 
  407479:	be 18 00 00 00       	mov    $0x18,%esi
  40747e:	e8 6d ad ff ff       	call   4021f0 <strnlen@plt>
  407483:	48 8d 3c 04          	lea    (%rsp,%rax,1),%rdi
  407487:	48 81 c7 a0 04 00 00 	add    $0x4a0,%rdi
  40748e:	48 8d 15 ad 32 00 00 	lea    0x32ad(%rip),%rdx        # 40a742 <short_opt+0x302>
  407495:	be 18 00 00 00       	mov    $0x18,%esi
  40749a:	89 d9                	mov    %ebx,%ecx
  40749c:	31 c0                	xor    %eax,%eax
  40749e:	e8 cd ab ff ff       	call   402070 <snprintf@plt>
  4074a3:	48 8d 74 24 10       	lea    0x10(%rsp),%rsi
  4074a8:	48 8d 94 24 80 04 00 	lea    0x480(%rsp),%rdx
  4074af:	00 
  4074b0:	bf 02 00 00 00       	mov    $0x2,%edi
  4074b5:	b9 18 00 00 00       	mov    $0x18,%ecx
  4074ba:	e8 21 b0 ff ff       	call   4024e0 <inet_ntop@plt>
  4074bf:	48 85 c0             	test   %rax,%rax
  4074c2:	0f 84 e8 05 00 00    	je     407ab0 <teavpn_iface_toggle+0x760>
  4074c8:	48 8d 9c 24 e0 04 00 	lea    0x4e0(%rsp),%rbx
  4074cf:	00 
  4074d0:	48 89 df             	mov    %rbx,%rdi
  4074d3:	e8 38 ad ff ff       	call   402210 <strlen@plt>
  4074d8:	48 8d bc 24 20 04 00 	lea    0x420(%rsp),%rdi
  4074df:	00 
  4074e0:	48 89 de             	mov    %rbx,%rsi
  4074e3:	48 89 c2             	mov    %rax,%rdx
  4074e6:	31 c9                	xor    %ecx,%ecx
  4074e8:	e8 13 f8 ff ff       	call   406d00 <escapeshellarg>
  4074ed:	48 8d 9c 24 a0 04 00 	lea    0x4a0(%rsp),%rbx
  4074f4:	00 
  4074f5:	48 89 df             	mov    %rbx,%rdi
  4074f8:	e8 13 ad ff ff       	call   402210 <strlen@plt>
  4074fd:	48 8d bc 24 e0 03 00 	lea    0x3e0(%rsp),%rdi
  407504:	00 
  407505:	48 89 de             	mov    %rbx,%rsi
  407508:	48 89 c2             	mov    %rax,%rdx
  40750b:	31 c9                	xor    %ecx,%ecx
  40750d:	e8 ee f7 ff ff       	call   406d00 <escapeshellarg>
  407512:	48 8d 9c 24 80 04 00 	lea    0x480(%rsp),%rbx
  407519:	00 
  40751a:	48 89 df             	mov    %rbx,%rdi
  40751d:	e8 ee ac ff ff       	call   402210 <strlen@plt>
  407522:	4c 8d a4 24 a0 03 00 	lea    0x3a0(%rsp),%r12
  407529:	00 
  40752a:	4c 89 e7             	mov    %r12,%rdi
  40752d:	48 89 de             	mov    %rbx,%rsi
  407530:	48 89 c2             	mov    %rax,%rdx
  407533:	31 c9                	xor    %ecx,%ecx
  407535:	e8 c6 f7 ff ff       	call   406d00 <escapeshellarg>
  40753a:	4c 89 f7             	mov    %r14,%rdi
  40753d:	e8 ce ac ff ff       	call   402210 <strlen@plt>
  407542:	48 8d bc 24 60 04 00 	lea    0x460(%rsp),%rdi
  407549:	00 
  40754a:	4c 89 f6             	mov    %r14,%rsi
  40754d:	48 89 c2             	mov    %rax,%rdx
  407550:	31 c9                	xor    %ecx,%ecx
  407552:	e8 a9 f7 ff ff       	call   406d00 <escapeshellarg>
  407557:	e8 34 ae ff ff       	call   402390 <__errno_location@plt>
  40755c:	48 89 c5             	mov    %rax,%rbp
  40755f:	c7 00 00 00 00 00    	movl   $0x0,(%rax)
  407565:	4c 8d 3d 05 33 00 00 	lea    0x3305(%rip),%r15        # 40a871 <short_opt+0x431>
  40756c:	4c 89 ff             	mov    %r15,%rdi
  40756f:	be 05 00 00 00       	mov    $0x5,%esi
  407574:	e8 e7 ae ff ff       	call   402460 <access@plt>
  407579:	89 c3                	mov    %eax,%ebx
  40757b:	8b 7d 00             	mov    0x0(%rbp),%edi
  40757e:	e8 3d ad ff ff       	call   4022c0 <strerror@plt>
  407583:	48 8d 3d 29 33 00 00 	lea    0x3329(%rip),%rdi        # 40a8b3 <short_opt+0x473>
  40758a:	4c 89 fe             	mov    %r15,%rsi
  40758d:	48 89 c2             	mov    %rax,%rdx
  407590:	31 c0                	xor    %eax,%eax
  407592:	e8 19 10 00 00       	call   4085b0 <__pr_notice>
  407597:	85 db                	test   %ebx,%ebx
  407599:	0f 84 99 01 00 00    	je     407738 <teavpn_iface_toggle+0x3e8>
  40759f:	c7 45 00 00 00 00 00 	movl   $0x0,0x0(%rbp)
  4075a6:	4c 8d 3d d6 32 00 00 	lea    0x32d6(%rip),%r15        # 40a883 <short_opt+0x443>
  4075ad:	4c 89 ff             	mov    %r15,%rdi
  4075b0:	be 05 00 00 00       	mov    $0x5,%esi
  4075b5:	e8 a6 ae ff ff       	call   402460 <access@plt>
  4075ba:	89 c3                	mov    %eax,%ebx
  4075bc:	8b 7d 00             	mov    0x0(%rbp),%edi
  4075bf:	e8 fc ac ff ff       	call   4022c0 <strerror@plt>
  4075c4:	48 8d 3d e8 32 00 00 	lea    0x32e8(%rip),%rdi        # 40a8b3 <short_opt+0x473>
  4075cb:	4c 89 fe             	mov    %r15,%rsi
  4075ce:	48 89 c2             	mov    %rax,%rdx
  4075d1:	31 c0                	xor    %eax,%eax
  4075d3:	e8 d8 0f 00 00       	call   4085b0 <__pr_notice>
  4075d8:	85 db                	test   %ebx,%ebx
  4075da:	0f 84 58 01 00 00    	je     407738 <teavpn_iface_toggle+0x3e8>
  4075e0:	c7 45 00 00 00 00 00 	movl   $0x0,0x0(%rbp)
  4075e7:	4c 8d 3d b9 32 00 00 	lea    0x32b9(%rip),%r15        # 40a8a7 <short_opt+0x467>
  4075ee:	4c 89 ff             	mov    %r15,%rdi
  4075f1:	be 05 00 00 00       	mov    $0x5,%esi
  4075f6:	e8 65 ae ff ff       	call   402460 <access@plt>
  4075fb:	89 c3                	mov    %eax,%ebx
  4075fd:	8b 7d 00             	mov    0x0(%rbp),%edi
  407600:	e8 bb ac ff ff       	call   4022c0 <strerror@plt>
  407605:	48 8d 3d a7 32 00 00 	lea    0x32a7(%rip),%rdi        # 40a8b3 <short_opt+0x473>
  40760c:	4c 89 fe             	mov    %r15,%rsi
  40760f:	48 89 c2             	mov    %rax,%rdx
  407612:	31 c0                	xor    %eax,%eax
  407614:	e8 97 0f 00 00       	call   4085b0 <__pr_notice>
  407619:	85 db                	test   %ebx,%ebx
  40761b:	0f 84 17 01 00 00    	je     407738 <teavpn_iface_toggle+0x3e8>
  407621:	c7 45 00 00 00 00 00 	movl   $0x0,0x0(%rbp)
  407628:	4c 8d 3d 2b 32 00 00 	lea    0x322b(%rip),%r15        # 40a85a <short_opt+0x41a>
  40762f:	4c 89 ff             	mov    %r15,%rdi
  407632:	be 05 00 00 00       	mov    $0x5,%esi
  407637:	e8 24 ae ff ff       	call   402460 <access@plt>
  40763c:	89 c3                	mov    %eax,%ebx
  40763e:	8b 7d 00             	mov    0x0(%rbp),%edi
  407641:	e8 7a ac ff ff       	call   4022c0 <strerror@plt>
  407646:	48 8d 3d 66 32 00 00 	lea    0x3266(%rip),%rdi        # 40a8b3 <short_opt+0x473>
  40764d:	4c 89 fe             	mov    %r15,%rsi
  407650:	48 89 c2             	mov    %rax,%rdx
  407653:	31 c0                	xor    %eax,%eax
  407655:	e8 56 0f 00 00       	call   4085b0 <__pr_notice>
  40765a:	85 db                	test   %ebx,%ebx
  40765c:	0f 84 d6 00 00 00    	je     407738 <teavpn_iface_toggle+0x3e8>
  407662:	c7 45 00 00 00 00 00 	movl   $0x0,0x0(%rbp)
  407669:	4c 8d 3d f7 31 00 00 	lea    0x31f7(%rip),%r15        # 40a867 <short_opt+0x427>
  407670:	4c 89 ff             	mov    %r15,%rdi
  407673:	be 05 00 00 00       	mov    $0x5,%esi
  407678:	e8 e3 ad ff ff       	call   402460 <access@plt>
  40767d:	89 c3                	mov    %eax,%ebx
  40767f:	8b 7d 00             	mov    0x0(%rbp),%edi
  407682:	e8 39 ac ff ff       	call   4022c0 <strerror@plt>
  407687:	48 8d 3d 25 32 00 00 	lea    0x3225(%rip),%rdi        # 40a8b3 <short_opt+0x473>
  40768e:	4c 89 fe             	mov    %r15,%rsi
  407691:	48 89 c2             	mov    %rax,%rdx
  407694:	31 c0                	xor    %eax,%eax
  407696:	e8 15 0f 00 00       	call   4085b0 <__pr_notice>
  40769b:	85 db                	test   %ebx,%ebx
  40769d:	0f 84 95 00 00 00    	je     407738 <teavpn_iface_toggle+0x3e8>
  4076a3:	c7 45 00 00 00 00 00 	movl   $0x0,0x0(%rbp)
  4076aa:	4c 8d 3d c8 31 00 00 	lea    0x31c8(%rip),%r15        # 40a879 <short_opt+0x439>
  4076b1:	4c 89 ff             	mov    %r15,%rdi
  4076b4:	be 05 00 00 00       	mov    $0x5,%esi
  4076b9:	e8 a2 ad ff ff       	call   402460 <access@plt>
  4076be:	89 c3                	mov    %eax,%ebx
  4076c0:	8b 7d 00             	mov    0x0(%rbp),%edi
  4076c3:	e8 f8 ab ff ff       	call   4022c0 <strerror@plt>
  4076c8:	48 8d 3d e4 31 00 00 	lea    0x31e4(%rip),%rdi        # 40a8b3 <short_opt+0x473>
  4076cf:	4c 89 fe             	mov    %r15,%rsi
  4076d2:	48 89 c2             	mov    %rax,%rdx
  4076d5:	31 c0                	xor    %eax,%eax
  4076d7:	e8 d4 0e 00 00       	call   4085b0 <__pr_notice>
  4076dc:	85 db                	test   %ebx,%ebx
  4076de:	74 58                	je     407738 <teavpn_iface_toggle+0x3e8>
  4076e0:	c7 45 00 00 00 00 00 	movl   $0x0,0x0(%rbp)
  4076e7:	4c 8d 3d 9e 31 00 00 	lea    0x319e(%rip),%r15        # 40a88c <short_opt+0x44c>
  4076ee:	4c 89 ff             	mov    %r15,%rdi
  4076f1:	be 05 00 00 00       	mov    $0x5,%esi
  4076f6:	e8 65 ad ff ff       	call   402460 <access@plt>
  4076fb:	89 c3                	mov    %eax,%ebx
  4076fd:	8b 7d 00             	mov    0x0(%rbp),%edi
  407700:	e8 bb ab ff ff       	call   4022c0 <strerror@plt>
  407705:	48 8d 3d a7 31 00 00 	lea    0x31a7(%rip),%rdi        # 40a8b3 <short_opt+0x473>
  40770c:	4c 89 fe             	mov    %r15,%rsi
  40770f:	48 89 c2             	mov    %rax,%rdx
  407712:	31 c0                	xor    %eax,%eax
  407714:	e8 97 0e 00 00       	call   4085b0 <__pr_notice>
  407719:	85 db                	test   %ebx,%ebx
  40771b:	74 1b                	je     407738 <teavpn_iface_toggle+0x3e8>
  40771d:	48 8d 3d 9f 31 00 00 	lea    0x319f(%rip),%rdi        # 40a8c3 <short_opt+0x483>
  407724:	c7 44 24 0c 00 00 00 	movl   $0x0,0xc(%rsp)
  40772b:	00 
  40772c:	31 c0                	xor    %eax,%eax
  40772e:	e8 7d 08 00 00       	call   407fb0 <__pr_error>
  407733:	e9 b1 03 00 00       	jmp    407ae9 <teavpn_iface_toggle+0x799>
  407738:	48 8d 05 6e 19 00 00 	lea    0x196e(%rip),%rax        # 4090ad <_IO_stdin_used+0xad>
  40773f:	4c 8d 05 41 30 00 00 	lea    0x3041(%rip),%r8        # 40a787 <short_opt+0x347>
  407746:	45 84 ed             	test   %r13b,%r13b
  407749:	4c 0f 45 c0          	cmovne %rax,%r8
  40774d:	45 0f b7 4e 50       	movzwl 0x50(%r14),%r9d
  407752:	48 8d 15 14 30 00 00 	lea    0x3014(%rip),%rdx        # 40a76d <short_opt+0x32d>
  407759:	c7 44 24 0c 00 00 00 	movl   $0x0,0xc(%rsp)
  407760:	00 
  407761:	48 8d 9c 24 a0 02 00 	lea    0x2a0(%rsp),%rbx
  407768:	00 
  407769:	48 8d 8c 24 60 04 00 	lea    0x460(%rsp),%rcx
  407770:	00 
  407771:	be 00 01 00 00       	mov    $0x100,%esi
  407776:	48 89 df             	mov    %rbx,%rdi
  407779:	31 c0                	xor    %eax,%eax
  40777b:	e8 f0 a8 ff ff       	call   402070 <snprintf@plt>
  407780:	48 8d 15 05 30 00 00 	lea    0x3005(%rip),%rdx        # 40a78c <short_opt+0x34c>
  407787:	48 8d ac 24 a0 00 00 	lea    0xa0(%rsp),%rbp
  40778e:	00 
  40778f:	be 00 02 00 00       	mov    $0x200,%esi
  407794:	48 89 ef             	mov    %rbp,%rdi
  407797:	4c 89 f9             	mov    %r15,%rcx
  40779a:	49 89 d8             	mov    %rbx,%r8
  40779d:	31 c0                	xor    %eax,%eax
  40779f:	e8 cc a8 ff ff       	call   402070 <snprintf@plt>
  4077a4:	48 8d 3d e7 2f 00 00 	lea    0x2fe7(%rip),%rdi        # 40a792 <short_opt+0x352>
  4077ab:	48 89 ee             	mov    %rbp,%rsi
  4077ae:	31 c0                	xor    %eax,%eax
  4077b0:	e8 fb 0d 00 00       	call   4085b0 <__pr_notice>
  4077b5:	48 89 ef             	mov    %rbp,%rdi
  4077b8:	e8 d3 a9 ff ff       	call   402190 <system@plt>
  4077bd:	85 c0                	test   %eax,%eax
  4077bf:	0f 85 24 03 00 00    	jne    407ae9 <teavpn_iface_toggle+0x799>
  4077c5:	48 8d 05 f3 2f 00 00 	lea    0x2ff3(%rip),%rax        # 40a7bf <short_opt+0x37f>
  4077cc:	4c 89 e1             	mov    %r12,%rcx
  4077cf:	4c 8d 25 ed 2f 00 00 	lea    0x2fed(%rip),%r12        # 40a7c3 <short_opt+0x383>
  4077d6:	45 84 ed             	test   %r13b,%r13b
  4077d9:	4c 0f 45 e0          	cmovne %rax,%r12
  4077dd:	48 89 0c 24          	mov    %rcx,(%rsp)
  4077e1:	48 8d 15 b8 2f 00 00 	lea    0x2fb8(%rip),%rdx        # 40a7a0 <short_opt+0x360>
  4077e8:	c7 44 24 0c 00 00 00 	movl   $0x0,0xc(%rsp)
  4077ef:	00 
  4077f0:	48 8d 9c 24 a0 02 00 	lea    0x2a0(%rsp),%rbx
  4077f7:	00 
  4077f8:	4c 8d 84 24 60 04 00 	lea    0x460(%rsp),%r8
  4077ff:	00 
  407800:	4c 8d 8c 24 20 04 00 	lea    0x420(%rsp),%r9
  407807:	00 
  407808:	be 00 01 00 00       	mov    $0x100,%esi
  40780d:	48 89 df             	mov    %rbx,%rdi
  407810:	4c 89 e1             	mov    %r12,%rcx
  407813:	31 c0                	xor    %eax,%eax
  407815:	e8 56 a8 ff ff       	call   402070 <snprintf@plt>
  40781a:	48 8d 15 6b 2f 00 00 	lea    0x2f6b(%rip),%rdx        # 40a78c <short_opt+0x34c>
  407821:	48 8d ac 24 a0 00 00 	lea    0xa0(%rsp),%rbp
  407828:	00 
  407829:	be 00 02 00 00       	mov    $0x200,%esi
  40782e:	48 89 ef             	mov    %rbp,%rdi
  407831:	4c 89 f9             	mov    %r15,%rcx
  407834:	49 89 d8             	mov    %rbx,%r8
  407837:	31 c0                	xor    %eax,%eax
  407839:	e8 32 a8 ff ff       	call   402070 <snprintf@plt>
  40783e:	48 8d 3d 4d 2f 00 00 	lea    0x2f4d(%rip),%rdi        # 40a792 <short_opt+0x352>
  407845:	48 89 ee             	mov    %rbp,%rsi
  407848:	31 c0                	xor    %eax,%eax
  40784a:	e8 61 0d 00 00       	call   4085b0 <__pr_notice>
  40784f:	48 89 ef             	mov    %rbp,%rdi
  407852:	e8 39 a9 ff ff       	call   402190 <system@plt>
  407857:	85 c0                	test   %eax,%eax
  407859:	0f 85 8a 02 00 00    	jne    407ae9 <teavpn_iface_toggle+0x799>
  40785f:	41 80 7e 10 00       	cmpb   $0x0,0x10(%r14)
  407864:	0f 84 45 03 00 00    	je     407baf <teavpn_iface_toggle+0x85f>
  40786a:	48 8d 15 8f 2f 00 00 	lea    0x2f8f(%rip),%rdx        # 40a800 <short_opt+0x3c0>
  407871:	48 8d 5c 24 20       	lea    0x20(%rsp),%rbx
  407876:	be 80 00 00 00       	mov    $0x80,%esi
  40787b:	48 89 df             	mov    %rbx,%rdi
  40787e:	4c 89 f9             	mov    %r15,%rcx
  407881:	31 c0                	xor    %eax,%eax
  407883:	e8 e8 a7 ff ff       	call   402070 <snprintf@plt>
  407888:	48 8d ac 24 a0 02 00 	lea    0x2a0(%rsp),%rbp
  40788f:	00 
  407890:	ba ff 00 00 00       	mov    $0xff,%edx
  407895:	48 89 df             	mov    %rbx,%rdi
  407898:	48 89 ee             	mov    %rbp,%rsi
  40789b:	31 c9                	xor    %ecx,%ecx
  40789d:	e8 6e f3 ff ff       	call   406c10 <shell_exec>
  4078a2:	c6 84 24 9f 03 00 00 	movb   $0x0,0x39f(%rsp)
  4078a9:	00 
  4078aa:	48 8d 35 19 2f 00 00 	lea    0x2f19(%rip),%rsi        # 40a7ca <short_opt+0x38a>
  4078b1:	48 89 ef             	mov    %rbp,%rdi
  4078b4:	e8 27 aa ff ff       	call   4022e0 <strstr@plt>
  4078b9:	48 85 c0             	test   %rax,%rax
  4078bc:	0f 84 f8 02 00 00    	je     407bba <teavpn_iface_toggle+0x86a>
  4078c2:	48 89 c3             	mov    %rax,%rbx
  4078c5:	49 8d 6e 10          	lea    0x10(%r14),%rbp
  4078c9:	48 83 c3 0c          	add    $0xc,%rbx
  4078cd:	48 b9 01 04 00 00 01 	movabs $0x100000401,%rcx
  4078d4:	00 00 00 
  4078d7:	48 89 d8             	mov    %rbx,%rax
  4078da:	e9 05 00 00 00       	jmp    4078e4 <teavpn_iface_toggle+0x594>
  4078df:	90                   	nop
  4078e0:	48 83 c0 01          	add    $0x1,%rax
  4078e4:	0f b6 10             	movzbl (%rax),%edx
  4078e7:	48 83 fa 20          	cmp    $0x20,%rdx
  4078eb:	77 f3                	ja     4078e0 <teavpn_iface_toggle+0x590>
  4078ed:	48 0f a3 d1          	bt     %rdx,%rcx
  4078f1:	73 ed                	jae    4078e0 <teavpn_iface_toggle+0x590>
  4078f3:	b1 01                	mov    $0x1,%cl
  4078f5:	89 4c 24 0c          	mov    %ecx,0xc(%rsp)
  4078f9:	c6 00 00             	movb   $0x0,(%rax)
  4078fc:	48 89 df             	mov    %rbx,%rdi
  4078ff:	e8 0c a9 ff ff       	call   402210 <strlen@plt>
  407904:	4c 8d ac 24 20 04 00 	lea    0x420(%rsp),%r13
  40790b:	00 
  40790c:	4c 89 ef             	mov    %r13,%rdi
  40790f:	48 89 de             	mov    %rbx,%rsi
  407912:	48 89 c2             	mov    %rax,%rdx
  407915:	31 c9                	xor    %ecx,%ecx
  407917:	e8 e4 f3 ff ff       	call   406d00 <escapeshellarg>
  40791c:	48 89 ef             	mov    %rbp,%rdi
  40791f:	e8 ec a8 ff ff       	call   402210 <strlen@plt>
  407924:	48 8d 9c 24 e0 03 00 	lea    0x3e0(%rsp),%rbx
  40792b:	00 
  40792c:	48 89 df             	mov    %rbx,%rdi
  40792f:	48 89 ee             	mov    %rbp,%rsi
  407932:	48 89 c2             	mov    %rax,%rdx
  407935:	31 c9                	xor    %ecx,%ecx
  407937:	e8 c4 f3 ff ff       	call   406d00 <escapeshellarg>
  40793c:	48 8d 15 cb 2e 00 00 	lea    0x2ecb(%rip),%rdx        # 40a80e <short_opt+0x3ce>
  407943:	48 8d ac 24 a0 02 00 	lea    0x2a0(%rsp),%rbp
  40794a:	00 
  40794b:	be 00 01 00 00       	mov    $0x100,%esi
  407950:	48 89 ef             	mov    %rbp,%rdi
  407953:	4c 89 e1             	mov    %r12,%rcx
  407956:	49 89 d8             	mov    %rbx,%r8
  407959:	4d 89 e9             	mov    %r13,%r9
  40795c:	31 c0                	xor    %eax,%eax
  40795e:	e8 0d a7 ff ff       	call   402070 <snprintf@plt>
  407963:	48 8d 15 22 2e 00 00 	lea    0x2e22(%rip),%rdx        # 40a78c <short_opt+0x34c>
  40796a:	48 8d 9c 24 a0 00 00 	lea    0xa0(%rsp),%rbx
  407971:	00 
  407972:	be 00 02 00 00       	mov    $0x200,%esi
  407977:	48 89 df             	mov    %rbx,%rdi
  40797a:	4c 89 f9             	mov    %r15,%rcx
  40797d:	49 89 e8             	mov    %rbp,%r8
  407980:	31 c0                	xor    %eax,%eax
  407982:	e8 e9 a6 ff ff       	call   402070 <snprintf@plt>
  407987:	48 8d 3d 04 2e 00 00 	lea    0x2e04(%rip),%rdi        # 40a792 <short_opt+0x352>
  40798e:	48 89 de             	mov    %rbx,%rsi
  407991:	31 c0                	xor    %eax,%eax
  407993:	e8 18 0c 00 00       	call   4085b0 <__pr_notice>
  407998:	48 89 df             	mov    %rbx,%rdi
  40799b:	e8 f0 a7 ff ff       	call   402190 <system@plt>
  4079a0:	85 c0                	test   %eax,%eax
  4079a2:	0f 85 fe 00 00 00    	jne    407aa6 <teavpn_iface_toggle+0x756>
  4079a8:	41 80 7e 40 00       	cmpb   $0x0,0x40(%r14)
  4079ad:	0f 84 36 01 00 00    	je     407ae9 <teavpn_iface_toggle+0x799>
  4079b3:	49 83 c6 40          	add    $0x40,%r14
  4079b7:	4c 89 f7             	mov    %r14,%rdi
  4079ba:	e8 51 a8 ff ff       	call   402210 <strlen@plt>
  4079bf:	48 8d 9c 24 20 04 00 	lea    0x420(%rsp),%rbx
  4079c6:	00 
  4079c7:	48 89 df             	mov    %rbx,%rdi
  4079ca:	4c 89 f6             	mov    %r14,%rsi
  4079cd:	48 89 c2             	mov    %rax,%rdx
  4079d0:	31 c9                	xor    %ecx,%ecx
  4079d2:	e8 29 f3 ff ff       	call   406d00 <escapeshellarg>
  4079d7:	48 8d 15 46 2e 00 00 	lea    0x2e46(%rip),%rdx        # 40a824 <short_opt+0x3e4>
  4079de:	48 8d ac 24 a0 02 00 	lea    0x2a0(%rsp),%rbp
  4079e5:	00 
  4079e6:	be 00 01 00 00       	mov    $0x100,%esi
  4079eb:	48 89 ef             	mov    %rbp,%rdi
  4079ee:	4c 89 e1             	mov    %r12,%rcx
  4079f1:	49 89 d8             	mov    %rbx,%r8
  4079f4:	31 c0                	xor    %eax,%eax
  4079f6:	e8 75 a6 ff ff       	call   402070 <snprintf@plt>
  4079fb:	48 8d 15 8a 2d 00 00 	lea    0x2d8a(%rip),%rdx        # 40a78c <short_opt+0x34c>
  407a02:	48 8d 9c 24 a0 00 00 	lea    0xa0(%rsp),%rbx
  407a09:	00 
  407a0a:	be 00 02 00 00       	mov    $0x200,%esi
  407a0f:	48 89 df             	mov    %rbx,%rdi
  407a12:	4c 89 f9             	mov    %r15,%rcx
  407a15:	49 89 e8             	mov    %rbp,%r8
  407a18:	31 c0                	xor    %eax,%eax
  407a1a:	e8 51 a6 ff ff       	call   402070 <snprintf@plt>
  407a1f:	48 8d 3d 6c 2d 00 00 	lea    0x2d6c(%rip),%rdi        # 40a792 <short_opt+0x352>
  407a26:	48 89 de             	mov    %rbx,%rsi
  407a29:	31 c0                	xor    %eax,%eax
  407a2b:	e8 80 0b 00 00       	call   4085b0 <__pr_notice>
  407a30:	48 89 df             	mov    %rbx,%rdi
  407a33:	e8 58 a7 ff ff       	call   402190 <system@plt>
  407a38:	85 c0                	test   %eax,%eax
  407a3a:	75 6a                	jne    407aa6 <teavpn_iface_toggle+0x756>
  407a3c:	48 8d 15 fb 2d 00 00 	lea    0x2dfb(%rip),%rdx        # 40a83e <short_opt+0x3fe>
  407a43:	48 8d 9c 24 a0 02 00 	lea    0x2a0(%rsp),%rbx
  407a4a:	00 
  407a4b:	4c 8d 84 24 20 04 00 	lea    0x420(%rsp),%r8
  407a52:	00 
  407a53:	be 00 01 00 00       	mov    $0x100,%esi
  407a58:	48 89 df             	mov    %rbx,%rdi
  407a5b:	4c 89 e1             	mov    %r12,%rcx
  407a5e:	31 c0                	xor    %eax,%eax
  407a60:	e8 0b a6 ff ff       	call   402070 <snprintf@plt>
  407a65:	48 8d 15 20 2d 00 00 	lea    0x2d20(%rip),%rdx        # 40a78c <short_opt+0x34c>
  407a6c:	48 8d ac 24 a0 00 00 	lea    0xa0(%rsp),%rbp
  407a73:	00 
  407a74:	be 00 02 00 00       	mov    $0x200,%esi
  407a79:	48 89 ef             	mov    %rbp,%rdi
  407a7c:	4c 89 f9             	mov    %r15,%rcx
  407a7f:	49 89 d8             	mov    %rbx,%r8
  407a82:	31 c0                	xor    %eax,%eax
  407a84:	e8 e7 a5 ff ff       	call   402070 <snprintf@plt>
  407a89:	48 8d 3d 02 2d 00 00 	lea    0x2d02(%rip),%rdi        # 40a792 <short_opt+0x352>
  407a90:	48 89 ee             	mov    %rbp,%rsi
  407a93:	31 c0                	xor    %eax,%eax
  407a95:	e8 16 0b 00 00       	call   4085b0 <__pr_notice>
  407a9a:	48 89 ef             	mov    %rbp,%rdi
  407a9d:	e8 ee a6 ff ff       	call   402190 <system@plt>
  407aa2:	85 c0                	test   %eax,%eax
  407aa4:	74 43                	je     407ae9 <teavpn_iface_toggle+0x799>
  407aa6:	c7 44 24 0c 00 00 00 	movl   $0x0,0xc(%rsp)
  407aad:	00 
  407aae:	eb 39                	jmp    407ae9 <teavpn_iface_toggle+0x799>
  407ab0:	e8 db a8 ff ff       	call   402390 <__errno_location@plt>
  407ab5:	8b 00                	mov    (%rax),%eax
  407ab7:	85 c0                	test   %eax,%eax
  407ab9:	bb 16 00 00 00       	mov    $0x16,%ebx
  407abe:	0f 45 d8             	cmovne %eax,%ebx
  407ac1:	8b 6c 24 10          	mov    0x10(%rsp),%ebp
  407ac5:	89 df                	mov    %ebx,%edi
  407ac7:	e8 f4 a7 ff ff       	call   4022c0 <strerror@plt>
  407acc:	48 8d 3d 73 2c 00 00 	lea    0x2c73(%rip),%rdi        # 40a746 <short_opt+0x306>
  407ad3:	c7 44 24 0c 00 00 00 	movl   $0x0,0xc(%rsp)
  407ada:	00 
  407adb:	89 ee                	mov    %ebp,%esi
  407add:	89 da                	mov    %ebx,%edx
  407adf:	48 89 c1             	mov    %rax,%rcx
  407ae2:	31 c0                	xor    %eax,%eax
  407ae4:	e8 c7 04 00 00       	call   407fb0 <__pr_error>
  407ae9:	64 48 8b 04 25 28 00 	mov    %fs:0x28,%rax
  407af0:	00 00 
  407af2:	48 3b 84 24 00 05 00 	cmp    0x500(%rsp),%rax
  407af9:	00 
  407afa:	0f 85 d0 00 00 00    	jne    407bd0 <teavpn_iface_toggle+0x880>
  407b00:	8b 44 24 0c          	mov    0xc(%rsp),%eax
  407b04:	48 81 c4 08 05 00 00 	add    $0x508,%rsp
  407b0b:	5b                   	pop    %rbx
  407b0c:	41 5c                	pop    %r12
  407b0e:	41 5d                	pop    %r13
  407b10:	41 5e                	pop    %r14
  407b12:	41 5f                	pop    %r15
  407b14:	5d                   	pop    %rbp
  407b15:	c3                   	ret    
  407b16:	e8 75 a8 ff ff       	call   402390 <__errno_location@plt>
  407b1b:	8b 00                	mov    (%rax),%eax
  407b1d:	85 c0                	test   %eax,%eax
  407b1f:	bb 16 00 00 00       	mov    $0x16,%ebx
  407b24:	0f 45 d8             	cmovne %eax,%ebx
  407b27:	89 df                	mov    %ebx,%edi
  407b29:	e8 92 a7 ff ff       	call   4022c0 <strerror@plt>
  407b2e:	48 8d 3d 97 2b 00 00 	lea    0x2b97(%rip),%rdi        # 40a6cc <short_opt+0x28c>
  407b35:	c7 44 24 0c 00 00 00 	movl   $0x0,0xc(%rsp)
  407b3c:	00 
  407b3d:	48 8d b4 24 c0 04 00 	lea    0x4c0(%rsp),%rsi
  407b44:	00 
  407b45:	eb 2f                	jmp    407b76 <teavpn_iface_toggle+0x826>
  407b47:	e8 44 a8 ff ff       	call   402390 <__errno_location@plt>
  407b4c:	8b 00                	mov    (%rax),%eax
  407b4e:	85 c0                	test   %eax,%eax
  407b50:	bb 16 00 00 00       	mov    $0x16,%ebx
  407b55:	0f 45 d8             	cmovne %eax,%ebx
  407b58:	89 df                	mov    %ebx,%edi
  407b5a:	e8 61 a7 ff ff       	call   4022c0 <strerror@plt>
  407b5f:	48 8d 3d 8d 2b 00 00 	lea    0x2b8d(%rip),%rdi        # 40a6f3 <short_opt+0x2b3>
  407b66:	c7 44 24 0c 00 00 00 	movl   $0x0,0xc(%rsp)
  407b6d:	00 
  407b6e:	48 8d b4 24 e0 04 00 	lea    0x4e0(%rsp),%rsi
  407b75:	00 
  407b76:	89 da                	mov    %ebx,%edx
  407b78:	48 89 c1             	mov    %rax,%rcx
  407b7b:	31 c0                	xor    %eax,%eax
  407b7d:	e8 2e 04 00 00       	call   407fb0 <__pr_error>
  407b82:	e9 62 ff ff ff       	jmp    407ae9 <teavpn_iface_toggle+0x799>
  407b87:	e8 04 a8 ff ff       	call   402390 <__errno_location@plt>
  407b8c:	8b 00                	mov    (%rax),%eax
  407b8e:	85 c0                	test   %eax,%eax
  407b90:	bb 16 00 00 00       	mov    $0x16,%ebx
  407b95:	0f 45 d8             	cmovne %eax,%ebx
  407b98:	8b 6c 24 14          	mov    0x14(%rsp),%ebp
  407b9c:	89 df                	mov    %ebx,%edi
  407b9e:	e8 1d a7 ff ff       	call   4022c0 <strerror@plt>
  407ba3:	48 8d 3d 71 2b 00 00 	lea    0x2b71(%rip),%rdi        # 40a71b <short_opt+0x2db>
  407baa:	e9 24 ff ff ff       	jmp    407ad3 <teavpn_iface_toggle+0x783>
  407baf:	b0 01                	mov    $0x1,%al
  407bb1:	89 44 24 0c          	mov    %eax,0xc(%rsp)
  407bb5:	e9 2f ff ff ff       	jmp    407ae9 <teavpn_iface_toggle+0x799>
  407bba:	48 8d 3d 16 2c 00 00 	lea    0x2c16(%rip),%rdi        # 40a7d7 <short_opt+0x397>
  407bc1:	4c 89 fe             	mov    %r15,%rsi
  407bc4:	31 c0                	xor    %eax,%eax
  407bc6:	e8 e5 03 00 00       	call   407fb0 <__pr_error>
  407bcb:	e9 d6 fe ff ff       	jmp    407aa6 <teavpn_iface_toggle+0x756>
  407bd0:	e8 cb a7 ff ff       	call   4023a0 <__stack_chk_fail@plt>
  407bd5:	66 2e 0f 1f 84 00 00 	cs nopw 0x0(%rax,%rax,1)
  407bdc:	00 00 00 
  407bdf:	90                   	nop

0000000000407be0 <teavpn_iface_down>:
  407be0:	31 f6                	xor    %esi,%esi
  407be2:	e9 69 f7 ff ff       	jmp    407350 <teavpn_iface_toggle>
  407be7:	66 0f 1f 84 00 00 00 	nopw   0x0(%rax,%rax,1)
  407bee:	00 00 

0000000000407bf0 <optimize_cpu_affinity>:
  407bf0:	55                   	push   %rbp
  407bf1:	41 57                	push   %r15
  407bf3:	41 56                	push   %r14
  407bf5:	41 55                	push   %r13
  407bf7:	41 54                	push   %r12
  407bf9:	53                   	push   %rbx
  407bfa:	48 81 ec a8 02 00 00 	sub    $0x2a8,%rsp
  407c01:	49 89 f5             	mov    %rsi,%r13
  407c04:	89 fb                	mov    %edi,%ebx
  407c06:	64 48 8b 04 25 28 00 	mov    %fs:0x28,%rax
  407c0d:	00 00 
  407c0f:	48 89 84 24 a0 02 00 	mov    %rax,0x2a0(%rsp)
  407c16:	00 
  407c17:	48 8d 7c 24 20       	lea    0x20(%rsp),%rdi
  407c1c:	ba 00 02 00 00       	mov    $0x200,%edx
  407c21:	31 f6                	xor    %esi,%esi
  407c23:	e8 28 a4 ff ff       	call   402050 <memset@plt>
  407c28:	c6 44 24 20 5b       	movb   $0x5b,0x20(%rsp)
  407c2d:	0f 57 c0             	xorps  %xmm0,%xmm0
  407c30:	0f 29 84 24 20 02 00 	movaps %xmm0,0x220(%rsp)
  407c37:	00 
  407c38:	0f 29 84 24 30 02 00 	movaps %xmm0,0x230(%rsp)
  407c3f:	00 
  407c40:	0f 29 84 24 40 02 00 	movaps %xmm0,0x240(%rsp)
  407c47:	00 
  407c48:	0f 29 84 24 50 02 00 	movaps %xmm0,0x250(%rsp)
  407c4f:	00 
  407c50:	0f 29 84 24 60 02 00 	movaps %xmm0,0x260(%rsp)
  407c57:	00 
  407c58:	0f 29 84 24 70 02 00 	movaps %xmm0,0x270(%rsp)
  407c5f:	00 
  407c60:	0f 29 84 24 80 02 00 	movaps %xmm0,0x280(%rsp)
  407c67:	00 
  407c68:	0f 29 84 24 90 02 00 	movaps %xmm0,0x290(%rsp)
  407c6f:	00 
  407c70:	48 8d 94 24 20 02 00 	lea    0x220(%rsp),%rdx
  407c77:	00 
  407c78:	be 80 00 00 00       	mov    $0x80,%esi
  407c7d:	31 ff                	xor    %edi,%edi
  407c7f:	e8 8c a6 ff ff       	call   402310 <sched_getaffinity@plt>
  407c84:	85 c0                	test   %eax,%eax
  407c86:	0f 88 bc 01 00 00    	js     407e48 <optimize_cpu_affinity+0x258>
  407c8c:	49 8d 6d 08          	lea    0x8(%r13),%rbp
  407c90:	4c 8d 64 24 21       	lea    0x21(%rsp),%r12
  407c95:	bf 54 00 00 00       	mov    $0x54,%edi
  407c9a:	e8 21 a5 ff ff       	call   4021c0 <sysconf@plt>
  407c9f:	48 89 44 24 08       	mov    %rax,0x8(%rsp)
  407ca4:	41 89 45 00          	mov    %eax,0x0(%r13)
  407ca8:	0f 57 c0             	xorps  %xmm0,%xmm0
  407cab:	0f 11 45 00          	movups %xmm0,0x0(%rbp)
  407caf:	0f 11 45 10          	movups %xmm0,0x10(%rbp)
  407cb3:	0f 11 45 20          	movups %xmm0,0x20(%rbp)
  407cb7:	0f 11 45 30          	movups %xmm0,0x30(%rbp)
  407cbb:	0f 11 45 40          	movups %xmm0,0x40(%rbp)
  407cbf:	0f 11 45 50          	movups %xmm0,0x50(%rbp)
  407cc3:	0f 11 45 60          	movups %xmm0,0x60(%rbp)
  407cc7:	48 89 6c 24 10       	mov    %rbp,0x10(%rsp)
  407ccc:	0f 11 45 70          	movups %xmm0,0x70(%rbp)
  407cd0:	85 db                	test   %ebx,%ebx
  407cd2:	0f 8e b3 00 00 00    	jle    407d8b <optimize_cpu_affinity+0x19b>
  407cd8:	45 31 ff             	xor    %r15d,%r15d
  407cdb:	31 d2                	xor    %edx,%edx
  407cdd:	4c 89 e7             	mov    %r12,%rdi
  407ce0:	89 5c 24 04          	mov    %ebx,0x4(%rsp)
  407ce4:	4c 89 6c 24 18       	mov    %r13,0x18(%rsp)
  407ce9:	0f 1f 80 00 00 00 00 	nopl   0x0(%rax)
  407cf0:	4d 89 fe             	mov    %r15,%r14
  407cf3:	49 c1 ee 06          	shr    $0x6,%r14
  407cf7:	4a 8b 84 f4 20 02 00 	mov    0x220(%rsp,%r14,8),%rax
  407cfe:	00 
  407cff:	41 bc 01 00 00 00    	mov    $0x1,%r12d
  407d05:	44 89 f9             	mov    %r15d,%ecx
  407d08:	49 d3 e4             	shl    %cl,%r12
  407d0b:	4c 0f a3 f8          	bt     %r15,%rax
  407d0f:	73 5f                	jae    407d70 <optimize_cpu_affinity+0x180>
  407d11:	89 d5                	mov    %edx,%ebp
  407d13:	85 d2                	test   %edx,%edx
  407d15:	48 8d 15 f0 2b 00 00 	lea    0x2bf0(%rip),%rdx        # 40a90c <short_opt+0x4cc>
  407d1c:	48 8d 05 3e 31 00 00 	lea    0x313e(%rip),%rax        # 40ae61 <license_text_teavpn2+0x3b1>
  407d23:	48 0f 44 d0          	cmove  %rax,%rdx
  407d27:	49 89 fd             	mov    %rdi,%r13
  407d2a:	48 8d 35 d6 2b 00 00 	lea    0x2bd6(%rip),%rsi        # 40a907 <short_opt+0x4c7>
  407d31:	44 89 f9             	mov    %r15d,%ecx
  407d34:	31 c0                	xor    %eax,%eax
  407d36:	e8 35 a5 ff ff       	call   402270 <sprintf@plt>
  407d3b:	48 63 d8             	movslq %eax,%rbx
  407d3e:	48 8d 05 f3 65 00 00 	lea    0x65f3(%rip),%rax        # 40e338 <__notice_level>
  407d45:	80 38 04             	cmpb   $0x4,(%rax)
  407d48:	72 11                	jb     407d5b <optimize_cpu_affinity+0x16b>
  407d4a:	48 8d 3d be 2b 00 00 	lea    0x2bbe(%rip),%rdi        # 40a90f <short_opt+0x4cf>
  407d51:	44 89 fe             	mov    %r15d,%esi
  407d54:	31 c0                	xor    %eax,%eax
  407d56:	e8 55 08 00 00       	call   4085b0 <__pr_notice>
  407d5b:	4c 89 ef             	mov    %r13,%rdi
  407d5e:	48 01 df             	add    %rbx,%rdi
  407d61:	4c 8b 6c 24 18       	mov    0x18(%rsp),%r13
  407d66:	4f 09 64 f5 08       	or     %r12,0x8(%r13,%r14,8)
  407d6b:	89 ea                	mov    %ebp,%edx
  407d6d:	83 c2 01             	add    $0x1,%edx
  407d70:	49 81 ff fe 03 00 00 	cmp    $0x3fe,%r15
  407d77:	8b 5c 24 04          	mov    0x4(%rsp),%ebx
  407d7b:	77 13                	ja     407d90 <optimize_cpu_affinity+0x1a0>
  407d7d:	49 83 c7 01          	add    $0x1,%r15
  407d81:	39 da                	cmp    %ebx,%edx
  407d83:	0f 8c 67 ff ff ff    	jl     407cf0 <optimize_cpu_affinity+0x100>
  407d89:	eb 05                	jmp    407d90 <optimize_cpu_affinity+0x1a0>
  407d8b:	31 d2                	xor    %edx,%edx
  407d8d:	4c 89 e7             	mov    %r12,%rdi
  407d90:	41 89 d7             	mov    %edx,%r15d
  407d93:	66 c7 07 5d 00       	movw   $0x5d,(%rdi)
  407d98:	31 ed                	xor    %ebp,%ebp
  407d9a:	be 80 00 00 00       	mov    $0x80,%esi
  407d9f:	31 ff                	xor    %edi,%edi
  407da1:	48 8b 54 24 10       	mov    0x10(%rsp),%rdx
  407da6:	e8 85 a7 ff ff       	call   402530 <sched_setaffinity@plt>
  407dab:	85 c0                	test   %eax,%eax
  407dad:	0f 88 ac 00 00 00    	js     407e5f <optimize_cpu_affinity+0x26f>
  407db3:	4c 8d 35 7e 65 00 00 	lea    0x657e(%rip),%r14        # 40e338 <__notice_level>
  407dba:	41 80 3e 04          	cmpb   $0x4,(%r14)
  407dbe:	72 61                	jb     407e21 <optimize_cpu_affinity+0x231>
  407dc0:	48 8d 3d 80 2b 00 00 	lea    0x2b80(%rip),%rdi        # 40a947 <short_opt+0x507>
  407dc7:	31 ed                	xor    %ebp,%ebp
  407dc9:	31 c0                	xor    %eax,%eax
  407dcb:	e8 e0 07 00 00       	call   4085b0 <__pr_notice>
  407dd0:	41 80 3e 04          	cmpb   $0x4,(%r14)
  407dd4:	72 4b                	jb     407e21 <optimize_cpu_affinity+0x231>
  407dd6:	48 8d 3d 87 2b 00 00 	lea    0x2b87(%rip),%rdi        # 40a964 <short_opt+0x524>
  407ddd:	31 ed                	xor    %ebp,%ebp
  407ddf:	48 8b 74 24 08       	mov    0x8(%rsp),%rsi
  407de4:	31 c0                	xor    %eax,%eax
  407de6:	e8 c5 07 00 00       	call   4085b0 <__pr_notice>
  407deb:	41 39 df             	cmp    %ebx,%r15d
  407dee:	75 31                	jne    407e21 <optimize_cpu_affinity+0x231>
  407df0:	41 80 3e 04          	cmpb   $0x4,(%r14)
  407df4:	72 2b                	jb     407e21 <optimize_cpu_affinity+0x231>
  407df6:	48 8d 3d 81 2b 00 00 	lea    0x2b81(%rip),%rdi        # 40a97e <short_opt+0x53e>
  407dfd:	31 ed                	xor    %ebp,%ebp
  407dff:	48 8d 74 24 20       	lea    0x20(%rsp),%rsi
  407e04:	31 c0                	xor    %eax,%eax
  407e06:	e8 a5 07 00 00       	call   4085b0 <__pr_notice>
  407e0b:	41 80 3e 04          	cmpb   $0x4,(%r14)
  407e0f:	72 10                	jb     407e21 <optimize_cpu_affinity+0x231>
  407e11:	48 8d 3d aa 2b 00 00 	lea    0x2baa(%rip),%rdi        # 40a9c2 <short_opt+0x582>
  407e18:	31 ed                	xor    %ebp,%ebp
  407e1a:	31 c0                	xor    %eax,%eax
  407e1c:	e8 8f 07 00 00       	call   4085b0 <__pr_notice>
  407e21:	64 48 8b 04 25 28 00 	mov    %fs:0x28,%rax
  407e28:	00 00 
  407e2a:	48 3b 84 24 a0 02 00 	cmp    0x2a0(%rsp),%rax
  407e31:	00 
  407e32:	75 64                	jne    407e98 <optimize_cpu_affinity+0x2a8>
  407e34:	89 e8                	mov    %ebp,%eax
  407e36:	48 81 c4 a8 02 00 00 	add    $0x2a8,%rsp
  407e3d:	5b                   	pop    %rbx
  407e3e:	41 5c                	pop    %r12
  407e40:	41 5d                	pop    %r13
  407e42:	41 5e                	pop    %r14
  407e44:	41 5f                	pop    %r15
  407e46:	5d                   	pop    %rbp
  407e47:	c3                   	ret    
  407e48:	e8 43 a5 ff ff       	call   402390 <__errno_location@plt>
  407e4d:	8b 18                	mov    (%rax),%ebx
  407e4f:	89 df                	mov    %ebx,%edi
  407e51:	e8 6a a4 ff ff       	call   4022c0 <strerror@plt>
  407e56:	48 8d 3d 89 2a 00 00 	lea    0x2a89(%rip),%rdi        # 40a8e6 <short_opt+0x4a6>
  407e5d:	eb 15                	jmp    407e74 <optimize_cpu_affinity+0x284>
  407e5f:	e8 2c a5 ff ff       	call   402390 <__errno_location@plt>
  407e64:	8b 18                	mov    (%rax),%ebx
  407e66:	89 df                	mov    %ebx,%edi
  407e68:	e8 53 a4 ff ff       	call   4022c0 <strerror@plt>
  407e6d:	48 8d 3d b2 2a 00 00 	lea    0x2ab2(%rip),%rdi        # 40a926 <short_opt+0x4e6>
  407e74:	89 de                	mov    %ebx,%esi
  407e76:	48 89 c2             	mov    %rax,%rdx
  407e79:	31 c0                	xor    %eax,%eax
  407e7b:	e8 30 01 00 00       	call   407fb0 <__pr_error>
  407e80:	bd ff ff ff ff       	mov    $0xffffffff,%ebp
  407e85:	64 48 8b 04 25 28 00 	mov    %fs:0x28,%rax
  407e8c:	00 00 
  407e8e:	48 3b 84 24 a0 02 00 	cmp    0x2a0(%rsp),%rax
  407e95:	00 
  407e96:	74 9c                	je     407e34 <optimize_cpu_affinity+0x244>
  407e98:	e8 03 a5 ff ff       	call   4023a0 <__stack_chk_fail@plt>
  407e9d:	0f 1f 00             	nopl   (%rax)

0000000000407ea0 <optimize_process_priority>:
  407ea0:	55                   	push   %rbp
  407ea1:	41 57                	push   %r15
  407ea3:	41 56                	push   %r14
  407ea5:	41 55                	push   %r13
  407ea7:	41 54                	push   %r12
  407ea9:	53                   	push   %rbx
  407eaa:	50                   	push   %rax
  407eab:	49 89 f6             	mov    %rsi,%r14
  407eae:	41 89 fc             	mov    %edi,%r12d
  407eb1:	4c 8d 2d 80 64 00 00 	lea    0x6480(%rip),%r13        # 40e338 <__notice_level>
  407eb8:	41 80 7d 00 04       	cmpb   $0x4,0x0(%r13)
  407ebd:	72 11                	jb     407ed0 <optimize_process_priority+0x30>
  407ebf:	48 8d 3d 3a 2b 00 00 	lea    0x2b3a(%rip),%rdi        # 40aa00 <short_opt+0x5c0>
  407ec6:	44 89 e6             	mov    %r12d,%esi
  407ec9:	31 c0                	xor    %eax,%eax
  407ecb:	e8 e0 06 00 00       	call   4085b0 <__pr_notice>
  407ed0:	e8 bb a4 ff ff       	call   402390 <__errno_location@plt>
  407ed5:	48 89 c5             	mov    %rax,%rbp
  407ed8:	c7 00 00 00 00 00    	movl   $0x0,(%rax)
  407ede:	44 89 e7             	mov    %r12d,%edi
  407ee1:	e8 4a a3 ff ff       	call   402230 <nice@plt>
  407ee6:	44 8b 7d 00          	mov    0x0(%rbp),%r15d
  407eea:	45 85 ff             	test   %r15d,%r15d
  407eed:	75 5f                	jne    407f4e <optimize_process_priority+0xae>
  407eef:	89 c3                	mov    %eax,%ebx
  407ef1:	41 80 7d 00 04       	cmpb   $0x4,0x0(%r13)
  407ef6:	72 41                	jb     407f39 <optimize_process_priority+0x99>
  407ef8:	48 8d 3d 27 2b 00 00 	lea    0x2b27(%rip),%rdi        # 40aa26 <short_opt+0x5e6>
  407eff:	44 89 e6             	mov    %r12d,%esi
  407f02:	89 da                	mov    %ebx,%edx
  407f04:	31 c0                	xor    %eax,%eax
  407f06:	e8 a5 06 00 00       	call   4085b0 <__pr_notice>
  407f0b:	85 db                	test   %ebx,%ebx
  407f0d:	79 2a                	jns    407f39 <optimize_process_priority+0x99>
  407f0f:	41 80 7d 00 04       	cmpb   $0x4,0x0(%r13)
  407f14:	72 23                	jb     407f39 <optimize_process_priority+0x99>
  407f16:	48 8d 3d 27 2b 00 00 	lea    0x2b27(%rip),%rdi        # 40aa44 <short_opt+0x604>
  407f1d:	31 c0                	xor    %eax,%eax
  407f1f:	e8 8c 06 00 00       	call   4085b0 <__pr_notice>
  407f24:	41 80 7d 00 04       	cmpb   $0x4,0x0(%r13)
  407f29:	72 0e                	jb     407f39 <optimize_process_priority+0x99>
  407f2b:	48 8d 3d 3f 2b 00 00 	lea    0x2b3f(%rip),%rdi        # 40aa71 <short_opt+0x631>
  407f32:	31 c0                	xor    %eax,%eax
  407f34:	e8 77 06 00 00       	call   4085b0 <__pr_notice>
  407f39:	41 89 5e 04          	mov    %ebx,0x4(%r14)
  407f3d:	31 c0                	xor    %eax,%eax
  407f3f:	48 83 c4 08          	add    $0x8,%rsp
  407f43:	5b                   	pop    %rbx
  407f44:	41 5c                	pop    %r12
  407f46:	41 5d                	pop    %r13
  407f48:	41 5e                	pop    %r14
  407f4a:	41 5f                	pop    %r15
  407f4c:	5d                   	pop    %rbp
  407f4d:	c3                   	ret    
  407f4e:	44 89 ff             	mov    %r15d,%edi
  407f51:	e8 6a a3 ff ff       	call   4022c0 <strerror@plt>
  407f56:	48 8d 3d b1 2a 00 00 	lea    0x2ab1(%rip),%rdi        # 40aa0e <short_opt+0x5ce>
  407f5d:	44 89 e6             	mov    %r12d,%esi
  407f60:	44 89 fa             	mov    %r15d,%edx
  407f63:	48 89 c1             	mov    %rax,%rcx
  407f66:	31 c0                	xor    %eax,%eax
  407f68:	e8 43 00 00 00       	call   407fb0 <__pr_error>
  407f6d:	b8 ff ff ff ff       	mov    $0xffffffff,%eax
  407f72:	eb cb                	jmp    407f3f <optimize_process_priority+0x9f>
  407f74:	66 2e 0f 1f 84 00 00 	cs nopw 0x0(%rax,%rax,1)
  407f7b:	00 00 00 
  407f7e:	66 90                	xchg   %ax,%ax

0000000000407f80 <print_license>:
  407f80:	50                   	push   %rax
  407f81:	48 8d 3d 57 19 00 00 	lea    0x1957(%rip),%rdi        # 4098df <short_opt+0x1df>
  407f88:	48 8d 35 21 2b 00 00 	lea    0x2b21(%rip),%rsi        # 40aab0 <license_text_teavpn2>
  407f8f:	31 c0                	xor    %eax,%eax
  407f91:	e8 aa a0 ff ff       	call   402040 <printf@plt>
  407f96:	31 c0                	xor    %eax,%eax
  407f98:	59                   	pop    %rcx
  407f99:	c3                   	ret    
  407f9a:	66 0f 1f 44 00 00    	nopw   0x0(%rax,%rax,1)

0000000000407fa0 <teavpn_print_version>:
  407fa0:	48 8d 3d 1f 2e 00 00 	lea    0x2e1f(%rip),%rdi        # 40adc6 <license_text_teavpn2+0x316>
  407fa7:	e9 44 a1 ff ff       	jmp    4020f0 <puts@plt>
  407fac:	0f 1f 40 00          	nopl   0x0(%rax)

0000000000407fb0 <__pr_error>:
  407fb0:	41 57                	push   %r15
  407fb2:	41 56                	push   %r14
  407fb4:	41 54                	push   %r12
  407fb6:	53                   	push   %rbx
  407fb7:	48 81 ec 08 01 00 00 	sub    $0x108,%rsp
  407fbe:	49 89 ff             	mov    %rdi,%r15
  407fc1:	84 c0                	test   %al,%al
  407fc3:	74 31                	je     407ff6 <__pr_error+0x46>
  407fc5:	0f 29 44 24 30       	movaps %xmm0,0x30(%rsp)
  407fca:	0f 29 4c 24 40       	movaps %xmm1,0x40(%rsp)
  407fcf:	0f 29 54 24 50       	movaps %xmm2,0x50(%rsp)
  407fd4:	0f 29 5c 24 60       	movaps %xmm3,0x60(%rsp)
  407fd9:	0f 29 64 24 70       	movaps %xmm4,0x70(%rsp)
  407fde:	0f 29 ac 24 80 00 00 	movaps %xmm5,0x80(%rsp)
  407fe5:	00 
  407fe6:	0f 29 b4 24 90 00 00 	movaps %xmm6,0x90(%rsp)
  407fed:	00 
  407fee:	0f 29 bc 24 a0 00 00 	movaps %xmm7,0xa0(%rsp)
  407ff5:	00 
  407ff6:	48 89 74 24 08       	mov    %rsi,0x8(%rsp)
  407ffb:	48 89 54 24 10       	mov    %rdx,0x10(%rsp)
  408000:	48 89 4c 24 18       	mov    %rcx,0x18(%rsp)
  408005:	4c 89 44 24 20       	mov    %r8,0x20(%rsp)
  40800a:	4c 89 4c 24 28       	mov    %r9,0x28(%rsp)
  40800f:	64 48 8b 04 25 28 00 	mov    %fs:0x28,%rax
  408016:	00 00 
  408018:	48 89 84 24 00 01 00 	mov    %rax,0x100(%rsp)
  40801f:	00 
  408020:	48 8d 3d 59 63 00 00 	lea    0x6359(%rip),%rdi        # 40e380 <pr_error_mt>
  408027:	e8 74 a2 ff ff       	call   4022a0 <pthread_mutex_trylock@plt>
  40802c:	85 c0                	test   %eax,%eax
  40802e:	0f 85 05 01 00 00    	jne    408139 <__pr_error+0x189>
  408034:	48 89 e0             	mov    %rsp,%rax
  408037:	48 89 84 24 f0 00 00 	mov    %rax,0xf0(%rsp)
  40803e:	00 
  40803f:	48 8d 84 24 30 01 00 	lea    0x130(%rsp),%rax
  408046:	00 
  408047:	48 89 84 24 e8 00 00 	mov    %rax,0xe8(%rsp)
  40804e:	00 
  40804f:	48 b8 08 00 00 00 30 	movabs $0x3000000008,%rax
  408056:	00 00 00 
  408059:	48 89 84 24 e0 00 00 	mov    %rax,0xe0(%rsp)
  408060:	00 
  408061:	48 8d 3d b8 63 00 00 	lea    0x63b8(%rip),%rdi        # 40e420 <get_time_mt>
  408068:	e8 33 a2 ff ff       	call   4022a0 <pthread_mutex_trylock@plt>
  40806d:	85 c0                	test   %eax,%eax
  40806f:	0f 85 e8 00 00 00    	jne    40815d <__pr_error+0x1ad>
  408075:	48 8d 9c 24 b8 00 00 	lea    0xb8(%rsp),%rbx
  40807c:	00 
  40807d:	48 89 df             	mov    %rbx,%rdi
  408080:	e8 bb a4 ff ff       	call   402540 <time@plt>
  408085:	48 89 df             	mov    %rbx,%rdi
  408088:	e8 03 a4 ff ff       	call   402490 <localtime@plt>
  40808d:	48 89 c7             	mov    %rax,%rdi
  408090:	e8 3b a0 ff ff       	call   4020d0 <asctime@plt>
  408095:	49 89 c6             	mov    %rax,%r14
  408098:	be 20 00 00 00       	mov    $0x20,%esi
  40809d:	48 89 c7             	mov    %rax,%rdi
  4080a0:	e8 4b a1 ff ff       	call   4021f0 <strnlen@plt>
  4080a5:	48 89 c3             	mov    %rax,%rbx
  4080a8:	48 8d 50 ff          	lea    -0x1(%rax),%rdx
  4080ac:	4c 8d a4 24 c0 00 00 	lea    0xc0(%rsp),%r12
  4080b3:	00 
  4080b4:	4c 89 e7             	mov    %r12,%rdi
  4080b7:	4c 89 f6             	mov    %r14,%rsi
  4080ba:	e8 31 a4 ff ff       	call   4024f0 <memcpy@plt>
  4080bf:	c6 84 1c bf 00 00 00 	movb   $0x0,0xbf(%rsp,%rbx,1)
  4080c6:	00 
  4080c7:	48 8d 3d 52 63 00 00 	lea    0x6352(%rip),%rdi        # 40e420 <get_time_mt>
  4080ce:	e8 fd a3 ff ff       	call   4024d0 <pthread_mutex_unlock@plt>
  4080d3:	48 8d 3d fe 2c 00 00 	lea    0x2cfe(%rip),%rdi        # 40add8 <license_text_teavpn2+0x328>
  4080da:	4c 89 e6             	mov    %r12,%rsi
  4080dd:	31 c0                	xor    %eax,%eax
  4080df:	e8 5c 9f ff ff       	call   402040 <printf@plt>
  4080e4:	48 8b 1d 05 5f 00 00 	mov    0x5f05(%rip),%rbx        # 40dff0 <stdout@GLIBC_2.2.5>
  4080eb:	48 8b 3b             	mov    (%rbx),%rdi
  4080ee:	48 8d 94 24 e0 00 00 	lea    0xe0(%rsp),%rdx
  4080f5:	00 
  4080f6:	4c 89 fe             	mov    %r15,%rsi
  4080f9:	e8 e2 a0 ff ff       	call   4021e0 <vfprintf@plt>
  4080fe:	48 8b 33             	mov    (%rbx),%rsi
  408101:	bf 0a 00 00 00       	mov    $0xa,%edi
  408106:	e8 15 a2 ff ff       	call   402320 <putc@plt>
  40810b:	48 8d 3d 6e 62 00 00 	lea    0x626e(%rip),%rdi        # 40e380 <pr_error_mt>
  408112:	e8 b9 a3 ff ff       	call   4024d0 <pthread_mutex_unlock@plt>
  408117:	64 48 8b 04 25 28 00 	mov    %fs:0x28,%rax
  40811e:	00 00 
  408120:	48 3b 84 24 00 01 00 	cmp    0x100(%rsp),%rax
  408127:	00 
  408128:	75 79                	jne    4081a3 <__pr_error+0x1f3>
  40812a:	48 81 c4 08 01 00 00 	add    $0x108,%rsp
  408131:	5b                   	pop    %rbx
  408132:	41 5c                	pop    %r12
  408134:	41 5e                	pop    %r14
  408136:	41 5f                	pop    %r15
  408138:	c3                   	ret    
  408139:	bb ef d8 ff ff       	mov    $0xffffd8ef,%ebx
  40813e:	4c 8d 35 3b 62 00 00 	lea    0x623b(%rip),%r14        # 40e380 <pr_error_mt>
  408145:	ff c3                	inc    %ebx
  408147:	74 38                	je     408181 <__pr_error+0x1d1>
  408149:	f3 90                	pause  
  40814b:	4c 89 f7             	mov    %r14,%rdi
  40814e:	e8 4d a1 ff ff       	call   4022a0 <pthread_mutex_trylock@plt>
  408153:	85 c0                	test   %eax,%eax
  408155:	0f 84 d9 fe ff ff    	je     408034 <__pr_error+0x84>
  40815b:	eb e8                	jmp    408145 <__pr_error+0x195>
  40815d:	bb ef d8 ff ff       	mov    $0xffffd8ef,%ebx
  408162:	4c 8d 35 b7 62 00 00 	lea    0x62b7(%rip),%r14        # 40e420 <get_time_mt>
  408169:	ff c3                	inc    %ebx
  40816b:	74 25                	je     408192 <__pr_error+0x1e2>
  40816d:	f3 90                	pause  
  40816f:	4c 89 f7             	mov    %r14,%rdi
  408172:	e8 29 a1 ff ff       	call   4022a0 <pthread_mutex_trylock@plt>
  408177:	85 c0                	test   %eax,%eax
  408179:	0f 84 f6 fe ff ff    	je     408075 <__pr_error+0xc5>
  40817f:	eb e8                	jmp    408169 <__pr_error+0x1b9>
  408181:	48 8d 3d f8 61 00 00 	lea    0x61f8(%rip),%rdi        # 40e380 <pr_error_mt>
  408188:	e8 f3 a2 ff ff       	call   402480 <pthread_mutex_lock@plt>
  40818d:	e9 a2 fe ff ff       	jmp    408034 <__pr_error+0x84>
  408192:	48 8d 3d 87 62 00 00 	lea    0x6287(%rip),%rdi        # 40e420 <get_time_mt>
  408199:	e8 e2 a2 ff ff       	call   402480 <pthread_mutex_lock@plt>
  40819e:	e9 d2 fe ff ff       	jmp    408075 <__pr_error+0xc5>
  4081a3:	e8 f8 a1 ff ff       	call   4023a0 <__stack_chk_fail@plt>
  4081a8:	0f 1f 84 00 00 00 00 	nopl   0x0(%rax,%rax,1)
  4081af:	00 

00000000004081b0 <__pr_emerg>:
  4081b0:	41 57                	push   %r15
  4081b2:	41 56                	push   %r14
  4081b4:	41 54                	push   %r12
  4081b6:	53                   	push   %rbx
  4081b7:	48 81 ec 08 01 00 00 	sub    $0x108,%rsp
  4081be:	49 89 ff             	mov    %rdi,%r15
  4081c1:	84 c0                	test   %al,%al
  4081c3:	74 31                	je     4081f6 <__pr_emerg+0x46>
  4081c5:	0f 29 44 24 30       	movaps %xmm0,0x30(%rsp)
  4081ca:	0f 29 4c 24 40       	movaps %xmm1,0x40(%rsp)
  4081cf:	0f 29 54 24 50       	movaps %xmm2,0x50(%rsp)
  4081d4:	0f 29 5c 24 60       	movaps %xmm3,0x60(%rsp)
  4081d9:	0f 29 64 24 70       	movaps %xmm4,0x70(%rsp)
  4081de:	0f 29 ac 24 80 00 00 	movaps %xmm5,0x80(%rsp)
  4081e5:	00 
  4081e6:	0f 29 b4 24 90 00 00 	movaps %xmm6,0x90(%rsp)
  4081ed:	00 
  4081ee:	0f 29 bc 24 a0 00 00 	movaps %xmm7,0xa0(%rsp)
  4081f5:	00 
  4081f6:	48 89 74 24 08       	mov    %rsi,0x8(%rsp)
  4081fb:	48 89 54 24 10       	mov    %rdx,0x10(%rsp)
  408200:	48 89 4c 24 18       	mov    %rcx,0x18(%rsp)
  408205:	4c 89 44 24 20       	mov    %r8,0x20(%rsp)
  40820a:	4c 89 4c 24 28       	mov    %r9,0x28(%rsp)
  40820f:	64 48 8b 04 25 28 00 	mov    %fs:0x28,%rax
  408216:	00 00 
  408218:	48 89 84 24 00 01 00 	mov    %rax,0x100(%rsp)
  40821f:	00 
  408220:	48 8d 3d 81 61 00 00 	lea    0x6181(%rip),%rdi        # 40e3a8 <pr_emerg_mt>
  408227:	e8 74 a0 ff ff       	call   4022a0 <pthread_mutex_trylock@plt>
  40822c:	85 c0                	test   %eax,%eax
  40822e:	0f 85 05 01 00 00    	jne    408339 <__pr_emerg+0x189>
  408234:	48 89 e0             	mov    %rsp,%rax
  408237:	48 89 84 24 f0 00 00 	mov    %rax,0xf0(%rsp)
  40823e:	00 
  40823f:	48 8d 84 24 30 01 00 	lea    0x130(%rsp),%rax
  408246:	00 
  408247:	48 89 84 24 e8 00 00 	mov    %rax,0xe8(%rsp)
  40824e:	00 
  40824f:	48 b8 08 00 00 00 30 	movabs $0x3000000008,%rax
  408256:	00 00 00 
  408259:	48 89 84 24 e0 00 00 	mov    %rax,0xe0(%rsp)
  408260:	00 
  408261:	48 8d 3d b8 61 00 00 	lea    0x61b8(%rip),%rdi        # 40e420 <get_time_mt>
  408268:	e8 33 a0 ff ff       	call   4022a0 <pthread_mutex_trylock@plt>
  40826d:	85 c0                	test   %eax,%eax
  40826f:	0f 85 e8 00 00 00    	jne    40835d <__pr_emerg+0x1ad>
  408275:	48 8d 9c 24 b8 00 00 	lea    0xb8(%rsp),%rbx
  40827c:	00 
  40827d:	48 89 df             	mov    %rbx,%rdi
  408280:	e8 bb a2 ff ff       	call   402540 <time@plt>
  408285:	48 89 df             	mov    %rbx,%rdi
  408288:	e8 03 a2 ff ff       	call   402490 <localtime@plt>
  40828d:	48 89 c7             	mov    %rax,%rdi
  408290:	e8 3b 9e ff ff       	call   4020d0 <asctime@plt>
  408295:	49 89 c6             	mov    %rax,%r14
  408298:	be 20 00 00 00       	mov    $0x20,%esi
  40829d:	48 89 c7             	mov    %rax,%rdi
  4082a0:	e8 4b 9f ff ff       	call   4021f0 <strnlen@plt>
  4082a5:	48 89 c3             	mov    %rax,%rbx
  4082a8:	48 8d 50 ff          	lea    -0x1(%rax),%rdx
  4082ac:	4c 8d a4 24 c0 00 00 	lea    0xc0(%rsp),%r12
  4082b3:	00 
  4082b4:	4c 89 e7             	mov    %r12,%rdi
  4082b7:	4c 89 f6             	mov    %r14,%rsi
  4082ba:	e8 31 a2 ff ff       	call   4024f0 <memcpy@plt>
  4082bf:	c6 84 1c bf 00 00 00 	movb   $0x0,0xbf(%rsp,%rbx,1)
  4082c6:	00 
  4082c7:	48 8d 3d 52 61 00 00 	lea    0x6152(%rip),%rdi        # 40e420 <get_time_mt>
  4082ce:	e8 fd a1 ff ff       	call   4024d0 <pthread_mutex_unlock@plt>
  4082d3:	48 8d 3d 0b 2b 00 00 	lea    0x2b0b(%rip),%rdi        # 40ade5 <license_text_teavpn2+0x335>
  4082da:	4c 89 e6             	mov    %r12,%rsi
  4082dd:	31 c0                	xor    %eax,%eax
  4082df:	e8 5c 9d ff ff       	call   402040 <printf@plt>
  4082e4:	48 8b 1d 05 5d 00 00 	mov    0x5d05(%rip),%rbx        # 40dff0 <stdout@GLIBC_2.2.5>
  4082eb:	48 8b 3b             	mov    (%rbx),%rdi
  4082ee:	48 8d 94 24 e0 00 00 	lea    0xe0(%rsp),%rdx
  4082f5:	00 
  4082f6:	4c 89 fe             	mov    %r15,%rsi
  4082f9:	e8 e2 9e ff ff       	call   4021e0 <vfprintf@plt>
  4082fe:	48 8b 33             	mov    (%rbx),%rsi
  408301:	bf 0a 00 00 00       	mov    $0xa,%edi
  408306:	e8 15 a0 ff ff       	call   402320 <putc@plt>
  40830b:	48 8d 3d 96 60 00 00 	lea    0x6096(%rip),%rdi        # 40e3a8 <pr_emerg_mt>
  408312:	e8 b9 a1 ff ff       	call   4024d0 <pthread_mutex_unlock@plt>
  408317:	64 48 8b 04 25 28 00 	mov    %fs:0x28,%rax
  40831e:	00 00 
  408320:	48 3b 84 24 00 01 00 	cmp    0x100(%rsp),%rax
  408327:	00 
  408328:	75 79                	jne    4083a3 <__pr_emerg+0x1f3>
  40832a:	48 81 c4 08 01 00 00 	add    $0x108,%rsp
  408331:	5b                   	pop    %rbx
  408332:	41 5c                	pop    %r12
  408334:	41 5e                	pop    %r14
  408336:	41 5f                	pop    %r15
  408338:	c3                   	ret    
  408339:	bb ef d8 ff ff       	mov    $0xffffd8ef,%ebx
  40833e:	4c 8d 35 63 60 00 00 	lea    0x6063(%rip),%r14        # 40e3a8 <pr_emerg_mt>
  408345:	ff c3                	inc    %ebx
  408347:	74 38                	je     408381 <__pr_emerg+0x1d1>
  408349:	f3 90                	pause  
  40834b:	4c 89 f7             	mov    %r14,%rdi
  40834e:	e8 4d 9f ff ff       	call   4022a0 <pthread_mutex_trylock@plt>
  408353:	85 c0                	test   %eax,%eax
  408355:	0f 84 d9 fe ff ff    	je     408234 <__pr_emerg+0x84>
  40835b:	eb e8                	jmp    408345 <__pr_emerg+0x195>
  40835d:	bb ef d8 ff ff       	mov    $0xffffd8ef,%ebx
  408362:	4c 8d 35 b7 60 00 00 	lea    0x60b7(%rip),%r14        # 40e420 <get_time_mt>
  408369:	ff c3                	inc    %ebx
  40836b:	74 25                	je     408392 <__pr_emerg+0x1e2>
  40836d:	f3 90                	pause  
  40836f:	4c 89 f7             	mov    %r14,%rdi
  408372:	e8 29 9f ff ff       	call   4022a0 <pthread_mutex_trylock@plt>
  408377:	85 c0                	test   %eax,%eax
  408379:	0f 84 f6 fe ff ff    	je     408275 <__pr_emerg+0xc5>
  40837f:	eb e8                	jmp    408369 <__pr_emerg+0x1b9>
  408381:	48 8d 3d 20 60 00 00 	lea    0x6020(%rip),%rdi        # 40e3a8 <pr_emerg_mt>
  408388:	e8 f3 a0 ff ff       	call   402480 <pthread_mutex_lock@plt>
  40838d:	e9 a2 fe ff ff       	jmp    408234 <__pr_emerg+0x84>
  408392:	48 8d 3d 87 60 00 00 	lea    0x6087(%rip),%rdi        # 40e420 <get_time_mt>
  408399:	e8 e2 a0 ff ff       	call   402480 <pthread_mutex_lock@plt>
  40839e:	e9 d2 fe ff ff       	jmp    408275 <__pr_emerg+0xc5>
  4083a3:	e8 f8 9f ff ff       	call   4023a0 <__stack_chk_fail@plt>
  4083a8:	0f 1f 84 00 00 00 00 	nopl   0x0(%rax,%rax,1)
  4083af:	00 

00000000004083b0 <__pr_debug>:
  4083b0:	41 57                	push   %r15
  4083b2:	41 56                	push   %r14
  4083b4:	41 54                	push   %r12
  4083b6:	53                   	push   %rbx
  4083b7:	48 81 ec 08 01 00 00 	sub    $0x108,%rsp
  4083be:	49 89 ff             	mov    %rdi,%r15
  4083c1:	84 c0                	test   %al,%al
  4083c3:	74 31                	je     4083f6 <__pr_debug+0x46>
  4083c5:	0f 29 44 24 30       	movaps %xmm0,0x30(%rsp)
  4083ca:	0f 29 4c 24 40       	movaps %xmm1,0x40(%rsp)
  4083cf:	0f 29 54 24 50       	movaps %xmm2,0x50(%rsp)
  4083d4:	0f 29 5c 24 60       	movaps %xmm3,0x60(%rsp)
  4083d9:	0f 29 64 24 70       	movaps %xmm4,0x70(%rsp)
  4083de:	0f 29 ac 24 80 00 00 	movaps %xmm5,0x80(%rsp)
  4083e5:	00 
  4083e6:	0f 29 b4 24 90 00 00 	movaps %xmm6,0x90(%rsp)
  4083ed:	00 
  4083ee:	0f 29 bc 24 a0 00 00 	movaps %xmm7,0xa0(%rsp)
  4083f5:	00 
  4083f6:	48 89 74 24 08       	mov    %rsi,0x8(%rsp)
  4083fb:	48 89 54 24 10       	mov    %rdx,0x10(%rsp)
  408400:	48 89 4c 24 18       	mov    %rcx,0x18(%rsp)
  408405:	4c 89 44 24 20       	mov    %r8,0x20(%rsp)
  40840a:	4c 89 4c 24 28       	mov    %r9,0x28(%rsp)
  40840f:	64 48 8b 04 25 28 00 	mov    %fs:0x28,%rax
  408416:	00 00 
  408418:	48 89 84 24 00 01 00 	mov    %rax,0x100(%rsp)
  40841f:	00 
  408420:	48 8d 3d a9 5f 00 00 	lea    0x5fa9(%rip),%rdi        # 40e3d0 <pr_debug_mt>
  408427:	e8 74 9e ff ff       	call   4022a0 <pthread_mutex_trylock@plt>
  40842c:	85 c0                	test   %eax,%eax
  40842e:	0f 85 05 01 00 00    	jne    408539 <__pr_debug+0x189>
  408434:	48 89 e0             	mov    %rsp,%rax
  408437:	48 89 84 24 f0 00 00 	mov    %rax,0xf0(%rsp)
  40843e:	00 
  40843f:	48 8d 84 24 30 01 00 	lea    0x130(%rsp),%rax
  408446:	00 
  408447:	48 89 84 24 e8 00 00 	mov    %rax,0xe8(%rsp)
  40844e:	00 
  40844f:	48 b8 08 00 00 00 30 	movabs $0x3000000008,%rax
  408456:	00 00 00 
  408459:	48 89 84 24 e0 00 00 	mov    %rax,0xe0(%rsp)
  408460:	00 
  408461:	48 8d 3d b8 5f 00 00 	lea    0x5fb8(%rip),%rdi        # 40e420 <get_time_mt>
  408468:	e8 33 9e ff ff       	call   4022a0 <pthread_mutex_trylock@plt>
  40846d:	85 c0                	test   %eax,%eax
  40846f:	0f 85 e8 00 00 00    	jne    40855d <__pr_debug+0x1ad>
  408475:	48 8d 9c 24 b8 00 00 	lea    0xb8(%rsp),%rbx
  40847c:	00 
  40847d:	48 89 df             	mov    %rbx,%rdi
  408480:	e8 bb a0 ff ff       	call   402540 <time@plt>
  408485:	48 89 df             	mov    %rbx,%rdi
  408488:	e8 03 a0 ff ff       	call   402490 <localtime@plt>
  40848d:	48 89 c7             	mov    %rax,%rdi
  408490:	e8 3b 9c ff ff       	call   4020d0 <asctime@plt>
  408495:	49 89 c6             	mov    %rax,%r14
  408498:	be 20 00 00 00       	mov    $0x20,%esi
  40849d:	48 89 c7             	mov    %rax,%rdi
  4084a0:	e8 4b 9d ff ff       	call   4021f0 <strnlen@plt>
  4084a5:	48 89 c3             	mov    %rax,%rbx
  4084a8:	48 8d 50 ff          	lea    -0x1(%rax),%rdx
  4084ac:	4c 8d a4 24 c0 00 00 	lea    0xc0(%rsp),%r12
  4084b3:	00 
  4084b4:	4c 89 e7             	mov    %r12,%rdi
  4084b7:	4c 89 f6             	mov    %r14,%rsi
  4084ba:	e8 31 a0 ff ff       	call   4024f0 <memcpy@plt>
  4084bf:	c6 84 1c bf 00 00 00 	movb   $0x0,0xbf(%rsp,%rbx,1)
  4084c6:	00 
  4084c7:	48 8d 3d 52 5f 00 00 	lea    0x5f52(%rip),%rdi        # 40e420 <get_time_mt>
  4084ce:	e8 fd 9f ff ff       	call   4024d0 <pthread_mutex_unlock@plt>
  4084d3:	48 8d 3d 1c 29 00 00 	lea    0x291c(%rip),%rdi        # 40adf6 <license_text_teavpn2+0x346>
  4084da:	4c 89 e6             	mov    %r12,%rsi
  4084dd:	31 c0                	xor    %eax,%eax
  4084df:	e8 5c 9b ff ff       	call   402040 <printf@plt>
  4084e4:	48 8b 1d 05 5b 00 00 	mov    0x5b05(%rip),%rbx        # 40dff0 <stdout@GLIBC_2.2.5>
  4084eb:	48 8b 3b             	mov    (%rbx),%rdi
  4084ee:	48 8d 94 24 e0 00 00 	lea    0xe0(%rsp),%rdx
  4084f5:	00 
  4084f6:	4c 89 fe             	mov    %r15,%rsi
  4084f9:	e8 e2 9c ff ff       	call   4021e0 <vfprintf@plt>
  4084fe:	48 8b 33             	mov    (%rbx),%rsi
  408501:	bf 0a 00 00 00       	mov    $0xa,%edi
  408506:	e8 15 9e ff ff       	call   402320 <putc@plt>
  40850b:	48 8d 3d be 5e 00 00 	lea    0x5ebe(%rip),%rdi        # 40e3d0 <pr_debug_mt>
  408512:	e8 b9 9f ff ff       	call   4024d0 <pthread_mutex_unlock@plt>
  408517:	64 48 8b 04 25 28 00 	mov    %fs:0x28,%rax
  40851e:	00 00 
  408520:	48 3b 84 24 00 01 00 	cmp    0x100(%rsp),%rax
  408527:	00 
  408528:	75 79                	jne    4085a3 <__pr_debug+0x1f3>
  40852a:	48 81 c4 08 01 00 00 	add    $0x108,%rsp
  408531:	5b                   	pop    %rbx
  408532:	41 5c                	pop    %r12
  408534:	41 5e                	pop    %r14
  408536:	41 5f                	pop    %r15
  408538:	c3                   	ret    
  408539:	bb ef d8 ff ff       	mov    $0xffffd8ef,%ebx
  40853e:	4c 8d 35 8b 5e 00 00 	lea    0x5e8b(%rip),%r14        # 40e3d0 <pr_debug_mt>
  408545:	ff c3                	inc    %ebx
  408547:	74 38                	je     408581 <__pr_debug+0x1d1>
  408549:	f3 90                	pause  
  40854b:	4c 89 f7             	mov    %r14,%rdi
  40854e:	e8 4d 9d ff ff       	call   4022a0 <pthread_mutex_trylock@plt>
  408553:	85 c0                	test   %eax,%eax
  408555:	0f 84 d9 fe ff ff    	je     408434 <__pr_debug+0x84>
  40855b:	eb e8                	jmp    408545 <__pr_debug+0x195>
  40855d:	bb ef d8 ff ff       	mov    $0xffffd8ef,%ebx
  408562:	4c 8d 35 b7 5e 00 00 	lea    0x5eb7(%rip),%r14        # 40e420 <get_time_mt>
  408569:	ff c3                	inc    %ebx
  40856b:	74 25                	je     408592 <__pr_debug+0x1e2>
  40856d:	f3 90                	pause  
  40856f:	4c 89 f7             	mov    %r14,%rdi
  408572:	e8 29 9d ff ff       	call   4022a0 <pthread_mutex_trylock@plt>
  408577:	85 c0                	test   %eax,%eax
  408579:	0f 84 f6 fe ff ff    	je     408475 <__pr_debug+0xc5>
  40857f:	eb e8                	jmp    408569 <__pr_debug+0x1b9>
  408581:	48 8d 3d 48 5e 00 00 	lea    0x5e48(%rip),%rdi        # 40e3d0 <pr_debug_mt>
  408588:	e8 f3 9e ff ff       	call   402480 <pthread_mutex_lock@plt>
  40858d:	e9 a2 fe ff ff       	jmp    408434 <__pr_debug+0x84>
  408592:	48 8d 3d 87 5e 00 00 	lea    0x5e87(%rip),%rdi        # 40e420 <get_time_mt>
  408599:	e8 e2 9e ff ff       	call   402480 <pthread_mutex_lock@plt>
  40859e:	e9 d2 fe ff ff       	jmp    408475 <__pr_debug+0xc5>
  4085a3:	e8 f8 9d ff ff       	call   4023a0 <__stack_chk_fail@plt>
  4085a8:	0f 1f 84 00 00 00 00 	nopl   0x0(%rax,%rax,1)
  4085af:	00 

00000000004085b0 <__pr_notice>:
  4085b0:	41 57                	push   %r15
  4085b2:	41 56                	push   %r14
  4085b4:	41 54                	push   %r12
  4085b6:	53                   	push   %rbx
  4085b7:	48 81 ec 08 01 00 00 	sub    $0x108,%rsp
  4085be:	49 89 ff             	mov    %rdi,%r15
  4085c1:	84 c0                	test   %al,%al
  4085c3:	74 31                	je     4085f6 <__pr_notice+0x46>
  4085c5:	0f 29 44 24 30       	movaps %xmm0,0x30(%rsp)
  4085ca:	0f 29 4c 24 40       	movaps %xmm1,0x40(%rsp)
  4085cf:	0f 29 54 24 50       	movaps %xmm2,0x50(%rsp)
  4085d4:	0f 29 5c 24 60       	movaps %xmm3,0x60(%rsp)
  4085d9:	0f 29 64 24 70       	movaps %xmm4,0x70(%rsp)
  4085de:	0f 29 ac 24 80 00 00 	movaps %xmm5,0x80(%rsp)
  4085e5:	00 
  4085e6:	0f 29 b4 24 90 00 00 	movaps %xmm6,0x90(%rsp)
  4085ed:	00 
  4085ee:	0f 29 bc 24 a0 00 00 	movaps %xmm7,0xa0(%rsp)
  4085f5:	00 
  4085f6:	48 89 74 24 08       	mov    %rsi,0x8(%rsp)
  4085fb:	48 89 54 24 10       	mov    %rdx,0x10(%rsp)
  408600:	48 89 4c 24 18       	mov    %rcx,0x18(%rsp)
  408605:	4c 89 44 24 20       	mov    %r8,0x20(%rsp)
  40860a:	4c 89 4c 24 28       	mov    %r9,0x28(%rsp)
  40860f:	64 48 8b 04 25 28 00 	mov    %fs:0x28,%rax
  408616:	00 00 
  408618:	48 89 84 24 00 01 00 	mov    %rax,0x100(%rsp)
  40861f:	00 
  408620:	48 8d 3d d1 5d 00 00 	lea    0x5dd1(%rip),%rdi        # 40e3f8 <pr_notice_mt>
  408627:	e8 74 9c ff ff       	call   4022a0 <pthread_mutex_trylock@plt>
  40862c:	85 c0                	test   %eax,%eax
  40862e:	0f 85 05 01 00 00    	jne    408739 <__pr_notice+0x189>
  408634:	48 89 e0             	mov    %rsp,%rax
  408637:	48 89 84 24 f0 00 00 	mov    %rax,0xf0(%rsp)
  40863e:	00 
  40863f:	48 8d 84 24 30 01 00 	lea    0x130(%rsp),%rax
  408646:	00 
  408647:	48 89 84 24 e8 00 00 	mov    %rax,0xe8(%rsp)
  40864e:	00 
  40864f:	48 b8 08 00 00 00 30 	movabs $0x3000000008,%rax
  408656:	00 00 00 
  408659:	48 89 84 24 e0 00 00 	mov    %rax,0xe0(%rsp)
  408660:	00 
  408661:	48 8d 3d b8 5d 00 00 	lea    0x5db8(%rip),%rdi        # 40e420 <get_time_mt>
  408668:	e8 33 9c ff ff       	call   4022a0 <pthread_mutex_trylock@plt>
  40866d:	85 c0                	test   %eax,%eax
  40866f:	0f 85 e8 00 00 00    	jne    40875d <__pr_notice+0x1ad>
  408675:	48 8d 9c 24 b8 00 00 	lea    0xb8(%rsp),%rbx
  40867c:	00 
  40867d:	48 89 df             	mov    %rbx,%rdi
  408680:	e8 bb 9e ff ff       	call   402540 <time@plt>
  408685:	48 89 df             	mov    %rbx,%rdi
  408688:	e8 03 9e ff ff       	call   402490 <localtime@plt>
  40868d:	48 89 c7             	mov    %rax,%rdi
  408690:	e8 3b 9a ff ff       	call   4020d0 <asctime@plt>
  408695:	49 89 c6             	mov    %rax,%r14
  408698:	be 20 00 00 00       	mov    $0x20,%esi
  40869d:	48 89 c7             	mov    %rax,%rdi
  4086a0:	e8 4b 9b ff ff       	call   4021f0 <strnlen@plt>
  4086a5:	48 89 c3             	mov    %rax,%rbx
  4086a8:	48 8d 50 ff          	lea    -0x1(%rax),%rdx
  4086ac:	4c 8d a4 24 c0 00 00 	lea    0xc0(%rsp),%r12
  4086b3:	00 
  4086b4:	4c 89 e7             	mov    %r12,%rdi
  4086b7:	4c 89 f6             	mov    %r14,%rsi
  4086ba:	e8 31 9e ff ff       	call   4024f0 <memcpy@plt>
  4086bf:	c6 84 1c bf 00 00 00 	movb   $0x0,0xbf(%rsp,%rbx,1)
  4086c6:	00 
  4086c7:	48 8d 3d 52 5d 00 00 	lea    0x5d52(%rip),%rdi        # 40e420 <get_time_mt>
  4086ce:	e8 fd 9d ff ff       	call   4024d0 <pthread_mutex_unlock@plt>
  4086d3:	48 8d 3d 29 27 00 00 	lea    0x2729(%rip),%rdi        # 40ae03 <license_text_teavpn2+0x353>
  4086da:	4c 89 e6             	mov    %r12,%rsi
  4086dd:	31 c0                	xor    %eax,%eax
  4086df:	e8 5c 99 ff ff       	call   402040 <printf@plt>
  4086e4:	48 8b 1d 05 59 00 00 	mov    0x5905(%rip),%rbx        # 40dff0 <stdout@GLIBC_2.2.5>
  4086eb:	48 8b 3b             	mov    (%rbx),%rdi
  4086ee:	48 8d 94 24 e0 00 00 	lea    0xe0(%rsp),%rdx
  4086f5:	00 
  4086f6:	4c 89 fe             	mov    %r15,%rsi
  4086f9:	e8 e2 9a ff ff       	call   4021e0 <vfprintf@plt>
  4086fe:	48 8b 33             	mov    (%rbx),%rsi
  408701:	bf 0a 00 00 00       	mov    $0xa,%edi
  408706:	e8 15 9c ff ff       	call   402320 <putc@plt>
  40870b:	48 8d 3d e6 5c 00 00 	lea    0x5ce6(%rip),%rdi        # 40e3f8 <pr_notice_mt>
  408712:	e8 b9 9d ff ff       	call   4024d0 <pthread_mutex_unlock@plt>
  408717:	64 48 8b 04 25 28 00 	mov    %fs:0x28,%rax
  40871e:	00 00 
  408720:	48 3b 84 24 00 01 00 	cmp    0x100(%rsp),%rax
  408727:	00 
  408728:	75 79                	jne    4087a3 <__pr_notice+0x1f3>
  40872a:	48 81 c4 08 01 00 00 	add    $0x108,%rsp
  408731:	5b                   	pop    %rbx
  408732:	41 5c                	pop    %r12
  408734:	41 5e                	pop    %r14
  408736:	41 5f                	pop    %r15
  408738:	c3                   	ret    
  408739:	bb ef d8 ff ff       	mov    $0xffffd8ef,%ebx
  40873e:	4c 8d 35 b3 5c 00 00 	lea    0x5cb3(%rip),%r14        # 40e3f8 <pr_notice_mt>
  408745:	ff c3                	inc    %ebx
  408747:	74 38                	je     408781 <__pr_notice+0x1d1>
  408749:	f3 90                	pause  
  40874b:	4c 89 f7             	mov    %r14,%rdi
  40874e:	e8 4d 9b ff ff       	call   4022a0 <pthread_mutex_trylock@plt>
  408753:	85 c0                	test   %eax,%eax
  408755:	0f 84 d9 fe ff ff    	je     408634 <__pr_notice+0x84>
  40875b:	eb e8                	jmp    408745 <__pr_notice+0x195>
  40875d:	bb ef d8 ff ff       	mov    $0xffffd8ef,%ebx
  408762:	4c 8d 35 b7 5c 00 00 	lea    0x5cb7(%rip),%r14        # 40e420 <get_time_mt>
  408769:	ff c3                	inc    %ebx
  40876b:	74 25                	je     408792 <__pr_notice+0x1e2>
  40876d:	f3 90                	pause  
  40876f:	4c 89 f7             	mov    %r14,%rdi
  408772:	e8 29 9b ff ff       	call   4022a0 <pthread_mutex_trylock@plt>
  408777:	85 c0                	test   %eax,%eax
  408779:	0f 84 f6 fe ff ff    	je     408675 <__pr_notice+0xc5>
  40877f:	eb e8                	jmp    408769 <__pr_notice+0x1b9>
  408781:	48 8d 3d 70 5c 00 00 	lea    0x5c70(%rip),%rdi        # 40e3f8 <pr_notice_mt>
  408788:	e8 f3 9c ff ff       	call   402480 <pthread_mutex_lock@plt>
  40878d:	e9 a2 fe ff ff       	jmp    408634 <__pr_notice+0x84>
  408792:	48 8d 3d 87 5c 00 00 	lea    0x5c87(%rip),%rdi        # 40e420 <get_time_mt>
  408799:	e8 e2 9c ff ff       	call   402480 <pthread_mutex_lock@plt>
  40879e:	e9 d2 fe ff ff       	jmp    408675 <__pr_notice+0xc5>
  4087a3:	e8 f8 9b ff ff       	call   4023a0 <__stack_chk_fail@plt>
  4087a8:	0f 1f 84 00 00 00 00 	nopl   0x0(%rax,%rax,1)
  4087af:	00 

00000000004087b0 <__pr_notice_nm>:
  4087b0:	41 57                	push   %r15
  4087b2:	41 56                	push   %r14
  4087b4:	41 54                	push   %r12
  4087b6:	53                   	push   %rbx
  4087b7:	48 81 ec 08 01 00 00 	sub    $0x108,%rsp
  4087be:	49 89 fe             	mov    %rdi,%r14
  4087c1:	84 c0                	test   %al,%al
  4087c3:	74 31                	je     4087f6 <__pr_notice_nm+0x46>
  4087c5:	0f 29 44 24 30       	movaps %xmm0,0x30(%rsp)
  4087ca:	0f 29 4c 24 40       	movaps %xmm1,0x40(%rsp)
  4087cf:	0f 29 54 24 50       	movaps %xmm2,0x50(%rsp)
  4087d4:	0f 29 5c 24 60       	movaps %xmm3,0x60(%rsp)
  4087d9:	0f 29 64 24 70       	movaps %xmm4,0x70(%rsp)
  4087de:	0f 29 ac 24 80 00 00 	movaps %xmm5,0x80(%rsp)
  4087e5:	00 
  4087e6:	0f 29 b4 24 90 00 00 	movaps %xmm6,0x90(%rsp)
  4087ed:	00 
  4087ee:	0f 29 bc 24 a0 00 00 	movaps %xmm7,0xa0(%rsp)
  4087f5:	00 
  4087f6:	48 89 74 24 08       	mov    %rsi,0x8(%rsp)
  4087fb:	48 89 54 24 10       	mov    %rdx,0x10(%rsp)
  408800:	48 89 4c 24 18       	mov    %rcx,0x18(%rsp)
  408805:	4c 89 44 24 20       	mov    %r8,0x20(%rsp)
  40880a:	4c 89 4c 24 28       	mov    %r9,0x28(%rsp)
  40880f:	64 48 8b 04 25 28 00 	mov    %fs:0x28,%rax
  408816:	00 00 
  408818:	48 89 84 24 00 01 00 	mov    %rax,0x100(%rsp)
  40881f:	00 
  408820:	48 b8 08 00 00 00 30 	movabs $0x3000000008,%rax
  408827:	00 00 00 
  40882a:	48 89 84 24 e0 00 00 	mov    %rax,0xe0(%rsp)
  408831:	00 
  408832:	48 8d 84 24 30 01 00 	lea    0x130(%rsp),%rax
  408839:	00 
  40883a:	48 89 84 24 e8 00 00 	mov    %rax,0xe8(%rsp)
  408841:	00 
  408842:	48 89 e0             	mov    %rsp,%rax
  408845:	48 89 84 24 f0 00 00 	mov    %rax,0xf0(%rsp)
  40884c:	00 
  40884d:	48 8d 9c 24 b8 00 00 	lea    0xb8(%rsp),%rbx
  408854:	00 
  408855:	48 89 df             	mov    %rbx,%rdi
  408858:	e8 e3 9c ff ff       	call   402540 <time@plt>
  40885d:	48 89 df             	mov    %rbx,%rdi
  408860:	e8 2b 9c ff ff       	call   402490 <localtime@plt>
  408865:	48 89 c7             	mov    %rax,%rdi
  408868:	e8 63 98 ff ff       	call   4020d0 <asctime@plt>
  40886d:	49 89 c7             	mov    %rax,%r15
  408870:	be 20 00 00 00       	mov    $0x20,%esi
  408875:	48 89 c7             	mov    %rax,%rdi
  408878:	e8 73 99 ff ff       	call   4021f0 <strnlen@plt>
  40887d:	48 89 c3             	mov    %rax,%rbx
  408880:	48 8d 50 ff          	lea    -0x1(%rax),%rdx
  408884:	4c 8d a4 24 c0 00 00 	lea    0xc0(%rsp),%r12
  40888b:	00 
  40888c:	4c 89 e7             	mov    %r12,%rdi
  40888f:	4c 89 fe             	mov    %r15,%rsi
  408892:	e8 59 9c ff ff       	call   4024f0 <memcpy@plt>
  408897:	c6 84 1c bf 00 00 00 	movb   $0x0,0xbf(%rsp,%rbx,1)
  40889e:	00 
  40889f:	48 8d 3d 5d 25 00 00 	lea    0x255d(%rip),%rdi        # 40ae03 <license_text_teavpn2+0x353>
  4088a6:	4c 89 e6             	mov    %r12,%rsi
  4088a9:	31 c0                	xor    %eax,%eax
  4088ab:	e8 90 97 ff ff       	call   402040 <printf@plt>
  4088b0:	48 8b 1d 39 57 00 00 	mov    0x5739(%rip),%rbx        # 40dff0 <stdout@GLIBC_2.2.5>
  4088b7:	48 8b 3b             	mov    (%rbx),%rdi
  4088ba:	48 8d 94 24 e0 00 00 	lea    0xe0(%rsp),%rdx
  4088c1:	00 
  4088c2:	4c 89 f6             	mov    %r14,%rsi
  4088c5:	e8 16 99 ff ff       	call   4021e0 <vfprintf@plt>
  4088ca:	48 8b 33             	mov    (%rbx),%rsi
  4088cd:	bf 0a 00 00 00       	mov    $0xa,%edi
  4088d2:	e8 49 9a ff ff       	call   402320 <putc@plt>
  4088d7:	64 48 8b 04 25 28 00 	mov    %fs:0x28,%rax
  4088de:	00 00 
  4088e0:	48 3b 84 24 00 01 00 	cmp    0x100(%rsp),%rax
  4088e7:	00 
  4088e8:	75 0f                	jne    4088f9 <__pr_notice_nm+0x149>
  4088ea:	48 81 c4 08 01 00 00 	add    $0x108,%rsp
  4088f1:	5b                   	pop    %rbx
  4088f2:	41 5c                	pop    %r12
  4088f4:	41 5e                	pop    %r14
  4088f6:	41 5f                	pop    %r15
  4088f8:	c3                   	ret    
  4088f9:	e8 a2 9a ff ff       	call   4023a0 <__stack_chk_fail@plt>
  4088fe:	66 90                	xchg   %ax,%ax

0000000000408900 <main>:
  408900:	55                   	push   %rbp
  408901:	41 56                	push   %r14
  408903:	53                   	push   %rbx
  408904:	48 81 ec 10 10 00 00 	sub    $0x1010,%rsp
  40890b:	49 89 f6             	mov    %rsi,%r14
  40890e:	64 48 8b 04 25 28 00 	mov    %fs:0x28,%rax
  408915:	00 00 
  408917:	48 89 84 24 08 10 00 	mov    %rax,0x1008(%rsp)
  40891e:	00 
  40891f:	83 ff 01             	cmp    $0x1,%edi
  408922:	0f 8f bd 00 00 00    	jg     4089e5 <main+0xe5>
  408928:	49 8b 1e             	mov    (%r14),%rbx
  40892b:	48 8d 3d 0a 25 00 00 	lea    0x250a(%rip),%rdi        # 40ae3c <license_text_teavpn2+0x38c>
  408932:	48 89 de             	mov    %rbx,%rsi
  408935:	31 c0                	xor    %eax,%eax
  408937:	e8 04 97 ff ff       	call   402040 <printf@plt>
  40893c:	48 8d 3d 86 25 00 00 	lea    0x2586(%rip),%rdi        # 40aec9 <license_text_teavpn2+0x419>
  408943:	e8 a8 97 ff ff       	call   4020f0 <puts@plt>
  408948:	48 8d 3d 7f 25 00 00 	lea    0x257f(%rip),%rdi        # 40aece <license_text_teavpn2+0x41e>
  40894f:	e8 9c 97 ff ff       	call   4020f0 <puts@plt>
  408954:	48 8d 3d 07 25 00 00 	lea    0x2507(%rip),%rdi        # 40ae62 <license_text_teavpn2+0x3b2>
  40895b:	48 89 de             	mov    %rbx,%rsi
  40895e:	31 c0                	xor    %eax,%eax
  408960:	e8 db 96 ff ff       	call   402040 <printf@plt>
  408965:	48 8d 3d 0b 25 00 00 	lea    0x250b(%rip),%rdi        # 40ae77 <license_text_teavpn2+0x3c7>
  40896c:	48 89 de             	mov    %rbx,%rsi
  40896f:	31 c0                	xor    %eax,%eax
  408971:	e8 ca 96 ff ff       	call   402040 <printf@plt>
  408976:	bf 0a 00 00 00       	mov    $0xa,%edi
  40897b:	e8 a0 97 ff ff       	call   402120 <putchar@plt>
  408980:	48 8d 3d 4f 25 00 00 	lea    0x254f(%rip),%rdi        # 40aed6 <license_text_teavpn2+0x426>
  408987:	e8 64 97 ff ff       	call   4020f0 <puts@plt>
  40898c:	48 8d 3d f9 24 00 00 	lea    0x24f9(%rip),%rdi        # 40ae8c <license_text_teavpn2+0x3dc>
  408993:	48 89 de             	mov    %rbx,%rsi
  408996:	31 c0                	xor    %eax,%eax
  408998:	e8 a3 96 ff ff       	call   402040 <printf@plt>
  40899d:	bf 0a 00 00 00       	mov    $0xa,%edi
  4089a2:	e8 79 97 ff ff       	call   402120 <putchar@plt>
  4089a7:	48 8d 3d 33 25 00 00 	lea    0x2533(%rip),%rdi        # 40aee1 <license_text_teavpn2+0x431>
  4089ae:	e8 3d 97 ff ff       	call   4020f0 <puts@plt>
  4089b3:	48 8d 3d e3 24 00 00 	lea    0x24e3(%rip),%rdi        # 40ae9d <license_text_teavpn2+0x3ed>
  4089ba:	48 89 de             	mov    %rbx,%rsi
  4089bd:	31 c0                	xor    %eax,%eax
  4089bf:	e8 7c 96 ff ff       	call   402040 <printf@plt>
  4089c4:	b8 01 00 00 00       	mov    $0x1,%eax
  4089c9:	64 48 8b 0c 25 28 00 	mov    %fs:0x28,%rcx
  4089d0:	00 00 
  4089d2:	48 3b 8c 24 08 10 00 	cmp    0x1008(%rsp),%rcx
  4089d9:	00 
  4089da:	0f 84 03 01 00 00    	je     408ae3 <main+0x1e3>
  4089e0:	e9 22 01 00 00       	jmp    408b07 <main+0x207>
  4089e5:	89 fd                	mov    %edi,%ebp
  4089e7:	48 89 e3             	mov    %rsp,%rbx
  4089ea:	ba 00 10 00 00       	mov    $0x1000,%edx
  4089ef:	48 89 df             	mov    %rbx,%rdi
  4089f2:	31 f6                	xor    %esi,%esi
  4089f4:	e8 57 96 ff ff       	call   402050 <memset@plt>
  4089f9:	be 00 10 00 00       	mov    $0x1000,%esi
  4089fe:	48 89 df             	mov    %rbx,%rdi
  408a01:	e8 3a e1 ff ff       	call   406b40 <ar_init>
  408a06:	49 8b 5e 08          	mov    0x8(%r14),%rbx
  408a0a:	48 8d 35 f8 23 00 00 	lea    0x23f8(%rip),%rsi        # 40ae09 <license_text_teavpn2+0x359>
  408a11:	ba 06 00 00 00       	mov    $0x6,%edx
  408a16:	48 89 df             	mov    %rbx,%rdi
  408a19:	e8 32 97 ff ff       	call   402150 <strncmp@plt>
  408a1e:	85 c0                	test   %eax,%eax
  408a20:	74 69                	je     408a8b <main+0x18b>
  408a22:	48 8d 35 5c 18 00 00 	lea    0x185c(%rip),%rsi        # 40a285 <short_opt+0xb85>
  408a29:	ba 06 00 00 00       	mov    $0x6,%edx
  408a2e:	48 89 df             	mov    %rbx,%rdi
  408a31:	e8 1a 97 ff ff       	call   402150 <strncmp@plt>
  408a36:	85 c0                	test   %eax,%eax
  408a38:	74 70                	je     408aaa <main+0x1aa>
  408a3a:	be 09 00 00 00       	mov    $0x9,%esi
  408a3f:	48 89 df             	mov    %rbx,%rdi
  408a42:	e8 a9 97 ff ff       	call   4021f0 <strnlen@plt>
  408a47:	48 8d 35 c2 23 00 00 	lea    0x23c2(%rip),%rsi        # 40ae10 <license_text_teavpn2+0x360>
  408a4e:	48 89 df             	mov    %rbx,%rdi
  408a51:	48 89 c2             	mov    %rax,%rdx
  408a54:	e8 f7 96 ff ff       	call   402150 <strncmp@plt>
  408a59:	85 c0                	test   %eax,%eax
  408a5b:	74 6c                	je     408ac9 <main+0x1c9>
  408a5d:	48 8d 35 b6 23 00 00 	lea    0x23b6(%rip),%rsi        # 40ae1a <license_text_teavpn2+0x36a>
  408a64:	ba 09 00 00 00       	mov    $0x9,%edx
  408a69:	48 89 df             	mov    %rbx,%rdi
  408a6c:	e8 df 96 ff ff       	call   402150 <strncmp@plt>
  408a71:	85 c0                	test   %eax,%eax
  408a73:	74 7a                	je     408aef <main+0x1ef>
  408a75:	48 8d 3d a8 23 00 00 	lea    0x23a8(%rip),%rdi        # 40ae24 <license_text_teavpn2+0x374>
  408a7c:	48 89 de             	mov    %rbx,%rsi
  408a7f:	31 c0                	xor    %eax,%eax
  408a81:	e8 ba 95 ff ff       	call   402040 <printf@plt>
  408a86:	e9 9d fe ff ff       	jmp    408928 <main+0x28>
  408a8b:	89 ef                	mov    %ebp,%edi
  408a8d:	4c 89 f6             	mov    %r14,%rsi
  408a90:	e8 6b de ff ff       	call   406900 <teavpn_client_entry>
  408a95:	64 48 8b 0c 25 28 00 	mov    %fs:0x28,%rcx
  408a9c:	00 00 
  408a9e:	48 3b 8c 24 08 10 00 	cmp    0x1008(%rsp),%rcx
  408aa5:	00 
  408aa6:	74 3b                	je     408ae3 <main+0x1e3>
  408aa8:	eb 5d                	jmp    408b07 <main+0x207>
  408aaa:	89 ef                	mov    %ebp,%edi
  408aac:	4c 89 f6             	mov    %r14,%rsi
  408aaf:	e8 8c c2 ff ff       	call   404d40 <teavpn_server_entry>
  408ab4:	64 48 8b 0c 25 28 00 	mov    %fs:0x28,%rcx
  408abb:	00 00 
  408abd:	48 3b 8c 24 08 10 00 	cmp    0x1008(%rsp),%rcx
  408ac4:	00 
  408ac5:	74 1c                	je     408ae3 <main+0x1e3>
  408ac7:	eb 3e                	jmp    408b07 <main+0x207>
  408ac9:	e8 d2 f4 ff ff       	call   407fa0 <teavpn_print_version>
  408ace:	31 c0                	xor    %eax,%eax
  408ad0:	64 48 8b 0c 25 28 00 	mov    %fs:0x28,%rcx
  408ad7:	00 00 
  408ad9:	48 3b 8c 24 08 10 00 	cmp    0x1008(%rsp),%rcx
  408ae0:	00 
  408ae1:	75 24                	jne    408b07 <main+0x207>
  408ae3:	48 81 c4 10 10 00 00 	add    $0x1010,%rsp
  408aea:	5b                   	pop    %rbx
  408aeb:	41 5e                	pop    %r14
  408aed:	5d                   	pop    %rbp
  408aee:	c3                   	ret    
  408aef:	e8 8c f4 ff ff       	call   407f80 <print_license>
  408af4:	64 48 8b 0c 25 28 00 	mov    %fs:0x28,%rcx
  408afb:	00 00 
  408afd:	48 3b 8c 24 08 10 00 	cmp    0x1008(%rsp),%rcx
  408b04:	00 
  408b05:	74 dc                	je     408ae3 <main+0x1e3>
  408b07:	e8 94 98 ff ff       	call   4023a0 <__stack_chk_fail@plt>
  408b0c:	0f 1f 40 00          	nopl   0x0(%rax)

0000000000408b10 <__libc_csu_init>:
  408b10:	f3 0f 1e fa          	endbr64 
  408b14:	41 57                	push   %r15
  408b16:	4c 8d 3d 13 4f 00 00 	lea    0x4f13(%rip),%r15        # 40da30 <__frame_dummy_init_array_entry>
  408b1d:	41 56                	push   %r14
  408b1f:	49 89 d6             	mov    %rdx,%r14
  408b22:	41 55                	push   %r13
  408b24:	49 89 f5             	mov    %rsi,%r13
  408b27:	41 54                	push   %r12
  408b29:	41 89 fc             	mov    %edi,%r12d
  408b2c:	55                   	push   %rbp
  408b2d:	48 8d 2d 04 4f 00 00 	lea    0x4f04(%rip),%rbp        # 40da38 <__do_global_dtors_aux_fini_array_entry>
  408b34:	53                   	push   %rbx
  408b35:	4c 29 fd             	sub    %r15,%rbp
  408b38:	48 83 ec 08          	sub    $0x8,%rsp
  408b3c:	e8 bf 94 ff ff       	call   402000 <_init>
  408b41:	48 c1 fd 03          	sar    $0x3,%rbp
  408b45:	74 1f                	je     408b66 <__libc_csu_init+0x56>
  408b47:	31 db                	xor    %ebx,%ebx
  408b49:	0f 1f 80 00 00 00 00 	nopl   0x0(%rax)
  408b50:	4c 89 f2             	mov    %r14,%rdx
  408b53:	4c 89 ee             	mov    %r13,%rsi
  408b56:	44 89 e7             	mov    %r12d,%edi
  408b59:	41 ff 14 df          	call   *(%r15,%rbx,8)
  408b5d:	48 83 c3 01          	add    $0x1,%rbx
  408b61:	48 39 dd             	cmp    %rbx,%rbp
  408b64:	75 ea                	jne    408b50 <__libc_csu_init+0x40>
  408b66:	48 83 c4 08          	add    $0x8,%rsp
  408b6a:	5b                   	pop    %rbx
  408b6b:	5d                   	pop    %rbp
  408b6c:	41 5c                	pop    %r12
  408b6e:	41 5d                	pop    %r13
  408b70:	41 5e                	pop    %r14
  408b72:	41 5f                	pop    %r15
  408b74:	c3                   	ret    
  408b75:	66 66 2e 0f 1f 84 00 	data16 cs nopw 0x0(%rax,%rax,1)
  408b7c:	00 00 00 00 

0000000000408b80 <__libc_csu_fini>:
  408b80:	f3 0f 1e fa          	endbr64 
  408b84:	c3                   	ret    

Disassembly of section .fini:

0000000000408b88 <_fini>:
  408b88:	f3 0f 1e fa          	endbr64 
  408b8c:	48 83 ec 08          	sub    $0x8,%rsp
  408b90:	48 83 c4 08          	add    $0x8,%rsp
  408b94:	c3                   	ret    
