
teavpn2:     file format elf64-x86-64


Disassembly of section .init:

0000000000001000 <_init>:
    1000:	f3 0f 1e fa          	endbr64 
    1004:	48 83 ec 08          	sub    $0x8,%rsp
    1008:	48 8b 05 c1 5f 00 00 	mov    0x5fc1(%rip),%rax        # 6fd0 <__gmon_start__>
    100f:	48 85 c0             	test   %rax,%rax
    1012:	74 02                	je     1016 <_init+0x16>
    1014:	ff d0                	callq  *%rax
    1016:	48 83 c4 08          	add    $0x8,%rsp
    101a:	c3                   	retq   

Disassembly of section .plt:

0000000000001020 <.plt>:
    1020:	ff 35 a2 5e 00 00    	pushq  0x5ea2(%rip)        # 6ec8 <_GLOBAL_OFFSET_TABLE_+0x8>
    1026:	f2 ff 25 a3 5e 00 00 	bnd jmpq *0x5ea3(%rip)        # 6ed0 <_GLOBAL_OFFSET_TABLE_+0x10>
    102d:	0f 1f 00             	nopl   (%rax)
    1030:	f3 0f 1e fa          	endbr64 
    1034:	68 00 00 00 00       	pushq  $0x0
    1039:	f2 e9 e1 ff ff ff    	bnd jmpq 1020 <.plt>
    103f:	90                   	nop
    1040:	f3 0f 1e fa          	endbr64 
    1044:	68 01 00 00 00       	pushq  $0x1
    1049:	f2 e9 d1 ff ff ff    	bnd jmpq 1020 <.plt>
    104f:	90                   	nop
    1050:	f3 0f 1e fa          	endbr64 
    1054:	68 02 00 00 00       	pushq  $0x2
    1059:	f2 e9 c1 ff ff ff    	bnd jmpq 1020 <.plt>
    105f:	90                   	nop
    1060:	f3 0f 1e fa          	endbr64 
    1064:	68 03 00 00 00       	pushq  $0x3
    1069:	f2 e9 b1 ff ff ff    	bnd jmpq 1020 <.plt>
    106f:	90                   	nop
    1070:	f3 0f 1e fa          	endbr64 
    1074:	68 04 00 00 00       	pushq  $0x4
    1079:	f2 e9 a1 ff ff ff    	bnd jmpq 1020 <.plt>
    107f:	90                   	nop
    1080:	f3 0f 1e fa          	endbr64 
    1084:	68 05 00 00 00       	pushq  $0x5
    1089:	f2 e9 91 ff ff ff    	bnd jmpq 1020 <.plt>
    108f:	90                   	nop
    1090:	f3 0f 1e fa          	endbr64 
    1094:	68 06 00 00 00       	pushq  $0x6
    1099:	f2 e9 81 ff ff ff    	bnd jmpq 1020 <.plt>
    109f:	90                   	nop
    10a0:	f3 0f 1e fa          	endbr64 
    10a4:	68 07 00 00 00       	pushq  $0x7
    10a9:	f2 e9 71 ff ff ff    	bnd jmpq 1020 <.plt>
    10af:	90                   	nop
    10b0:	f3 0f 1e fa          	endbr64 
    10b4:	68 08 00 00 00       	pushq  $0x8
    10b9:	f2 e9 61 ff ff ff    	bnd jmpq 1020 <.plt>
    10bf:	90                   	nop
    10c0:	f3 0f 1e fa          	endbr64 
    10c4:	68 09 00 00 00       	pushq  $0x9
    10c9:	f2 e9 51 ff ff ff    	bnd jmpq 1020 <.plt>
    10cf:	90                   	nop
    10d0:	f3 0f 1e fa          	endbr64 
    10d4:	68 0a 00 00 00       	pushq  $0xa
    10d9:	f2 e9 41 ff ff ff    	bnd jmpq 1020 <.plt>
    10df:	90                   	nop
    10e0:	f3 0f 1e fa          	endbr64 
    10e4:	68 0b 00 00 00       	pushq  $0xb
    10e9:	f2 e9 31 ff ff ff    	bnd jmpq 1020 <.plt>
    10ef:	90                   	nop
    10f0:	f3 0f 1e fa          	endbr64 
    10f4:	68 0c 00 00 00       	pushq  $0xc
    10f9:	f2 e9 21 ff ff ff    	bnd jmpq 1020 <.plt>
    10ff:	90                   	nop
    1100:	f3 0f 1e fa          	endbr64 
    1104:	68 0d 00 00 00       	pushq  $0xd
    1109:	f2 e9 11 ff ff ff    	bnd jmpq 1020 <.plt>
    110f:	90                   	nop
    1110:	f3 0f 1e fa          	endbr64 
    1114:	68 0e 00 00 00       	pushq  $0xe
    1119:	f2 e9 01 ff ff ff    	bnd jmpq 1020 <.plt>
    111f:	90                   	nop
    1120:	f3 0f 1e fa          	endbr64 
    1124:	68 0f 00 00 00       	pushq  $0xf
    1129:	f2 e9 f1 fe ff ff    	bnd jmpq 1020 <.plt>
    112f:	90                   	nop
    1130:	f3 0f 1e fa          	endbr64 
    1134:	68 10 00 00 00       	pushq  $0x10
    1139:	f2 e9 e1 fe ff ff    	bnd jmpq 1020 <.plt>
    113f:	90                   	nop
    1140:	f3 0f 1e fa          	endbr64 
    1144:	68 11 00 00 00       	pushq  $0x11
    1149:	f2 e9 d1 fe ff ff    	bnd jmpq 1020 <.plt>
    114f:	90                   	nop
    1150:	f3 0f 1e fa          	endbr64 
    1154:	68 12 00 00 00       	pushq  $0x12
    1159:	f2 e9 c1 fe ff ff    	bnd jmpq 1020 <.plt>
    115f:	90                   	nop
    1160:	f3 0f 1e fa          	endbr64 
    1164:	68 13 00 00 00       	pushq  $0x13
    1169:	f2 e9 b1 fe ff ff    	bnd jmpq 1020 <.plt>
    116f:	90                   	nop
    1170:	f3 0f 1e fa          	endbr64 
    1174:	68 14 00 00 00       	pushq  $0x14
    1179:	f2 e9 a1 fe ff ff    	bnd jmpq 1020 <.plt>
    117f:	90                   	nop
    1180:	f3 0f 1e fa          	endbr64 
    1184:	68 15 00 00 00       	pushq  $0x15
    1189:	f2 e9 91 fe ff ff    	bnd jmpq 1020 <.plt>
    118f:	90                   	nop
    1190:	f3 0f 1e fa          	endbr64 
    1194:	68 16 00 00 00       	pushq  $0x16
    1199:	f2 e9 81 fe ff ff    	bnd jmpq 1020 <.plt>
    119f:	90                   	nop
    11a0:	f3 0f 1e fa          	endbr64 
    11a4:	68 17 00 00 00       	pushq  $0x17
    11a9:	f2 e9 71 fe ff ff    	bnd jmpq 1020 <.plt>
    11af:	90                   	nop
    11b0:	f3 0f 1e fa          	endbr64 
    11b4:	68 18 00 00 00       	pushq  $0x18
    11b9:	f2 e9 61 fe ff ff    	bnd jmpq 1020 <.plt>
    11bf:	90                   	nop
    11c0:	f3 0f 1e fa          	endbr64 
    11c4:	68 19 00 00 00       	pushq  $0x19
    11c9:	f2 e9 51 fe ff ff    	bnd jmpq 1020 <.plt>
    11cf:	90                   	nop
    11d0:	f3 0f 1e fa          	endbr64 
    11d4:	68 1a 00 00 00       	pushq  $0x1a
    11d9:	f2 e9 41 fe ff ff    	bnd jmpq 1020 <.plt>
    11df:	90                   	nop
    11e0:	f3 0f 1e fa          	endbr64 
    11e4:	68 1b 00 00 00       	pushq  $0x1b
    11e9:	f2 e9 31 fe ff ff    	bnd jmpq 1020 <.plt>
    11ef:	90                   	nop

Disassembly of section .plt.got:

00000000000011f0 <__cxa_finalize@plt>:
    11f0:	f3 0f 1e fa          	endbr64 
    11f4:	f2 ff 25 e5 5d 00 00 	bnd jmpq *0x5de5(%rip)        # 6fe0 <__cxa_finalize@GLIBC_2.2.5>
    11fb:	0f 1f 44 00 00       	nopl   0x0(%rax,%rax,1)

Disassembly of section .plt.sec:

0000000000001200 <free@plt>:
    1200:	f3 0f 1e fa          	endbr64 
    1204:	f2 ff 25 cd 5c 00 00 	bnd jmpq *0x5ccd(%rip)        # 6ed8 <free@GLIBC_2.2.5>
    120b:	0f 1f 44 00 00       	nopl   0x0(%rax,%rax,1)

0000000000001210 <__errno_location@plt>:
    1210:	f3 0f 1e fa          	endbr64 
    1214:	f2 ff 25 c5 5c 00 00 	bnd jmpq *0x5cc5(%rip)        # 6ee0 <__errno_location@GLIBC_2.2.5>
    121b:	0f 1f 44 00 00       	nopl   0x0(%rax,%rax,1)

0000000000001220 <strncpy@plt>:
    1220:	f3 0f 1e fa          	endbr64 
    1224:	f2 ff 25 bd 5c 00 00 	bnd jmpq *0x5cbd(%rip)        # 6ee8 <strncpy@GLIBC_2.2.5>
    122b:	0f 1f 44 00 00       	nopl   0x0(%rax,%rax,1)

0000000000001230 <fcntl@plt>:
    1230:	f3 0f 1e fa          	endbr64 
    1234:	f2 ff 25 b5 5c 00 00 	bnd jmpq *0x5cb5(%rip)        # 6ef0 <fcntl@GLIBC_2.2.5>
    123b:	0f 1f 44 00 00       	nopl   0x0(%rax,%rax,1)

0000000000001240 <fclose@plt>:
    1240:	f3 0f 1e fa          	endbr64 
    1244:	f2 ff 25 ad 5c 00 00 	bnd jmpq *0x5cad(%rip)        # 6ef8 <fclose@GLIBC_2.2.5>
    124b:	0f 1f 44 00 00       	nopl   0x0(%rax,%rax,1)

0000000000001250 <__stack_chk_fail@plt>:
    1250:	f3 0f 1e fa          	endbr64 
    1254:	f2 ff 25 a5 5c 00 00 	bnd jmpq *0x5ca5(%rip)        # 6f00 <__stack_chk_fail@GLIBC_2.4>
    125b:	0f 1f 44 00 00       	nopl   0x0(%rax,%rax,1)

0000000000001260 <getopt_long@plt>:
    1260:	f3 0f 1e fa          	endbr64 
    1264:	f2 ff 25 9d 5c 00 00 	bnd jmpq *0x5c9d(%rip)        # 6f08 <getopt_long@GLIBC_2.2.5>
    126b:	0f 1f 44 00 00       	nopl   0x0(%rax,%rax,1)

0000000000001270 <strchr@plt>:
    1270:	f3 0f 1e fa          	endbr64 
    1274:	f2 ff 25 95 5c 00 00 	bnd jmpq *0x5c95(%rip)        # 6f10 <strchr@GLIBC_2.2.5>
    127b:	0f 1f 44 00 00       	nopl   0x0(%rax,%rax,1)

0000000000001280 <__assert_fail@plt>:
    1280:	f3 0f 1e fa          	endbr64 
    1284:	f2 ff 25 8d 5c 00 00 	bnd jmpq *0x5c8d(%rip)        # 6f18 <__assert_fail@GLIBC_2.2.5>
    128b:	0f 1f 44 00 00       	nopl   0x0(%rax,%rax,1)

0000000000001290 <ioctl@plt>:
    1290:	f3 0f 1e fa          	endbr64 
    1294:	f2 ff 25 85 5c 00 00 	bnd jmpq *0x5c85(%rip)        # 6f20 <ioctl@GLIBC_2.2.5>
    129b:	0f 1f 44 00 00       	nopl   0x0(%rax,%rax,1)

00000000000012a0 <strnlen@plt>:
    12a0:	f3 0f 1e fa          	endbr64 
    12a4:	f2 ff 25 7d 5c 00 00 	bnd jmpq *0x5c7d(%rip)        # 6f28 <strnlen@GLIBC_2.2.5>
    12ab:	0f 1f 44 00 00       	nopl   0x0(%rax,%rax,1)

00000000000012b0 <close@plt>:
    12b0:	f3 0f 1e fa          	endbr64 
    12b4:	f2 ff 25 75 5c 00 00 	bnd jmpq *0x5c75(%rip)        # 6f30 <close@GLIBC_2.2.5>
    12bb:	0f 1f 44 00 00       	nopl   0x0(%rax,%rax,1)

00000000000012c0 <pipe@plt>:
    12c0:	f3 0f 1e fa          	endbr64 
    12c4:	f2 ff 25 6d 5c 00 00 	bnd jmpq *0x5c6d(%rip)        # 6f38 <pipe@GLIBC_2.2.5>
    12cb:	0f 1f 44 00 00       	nopl   0x0(%rax,%rax,1)

00000000000012d0 <memcmp@plt>:
    12d0:	f3 0f 1e fa          	endbr64 
    12d4:	f2 ff 25 65 5c 00 00 	bnd jmpq *0x5c65(%rip)        # 6f40 <memcmp@GLIBC_2.2.5>
    12db:	0f 1f 44 00 00       	nopl   0x0(%rax,%rax,1)

00000000000012e0 <inet_addr@plt>:
    12e0:	f3 0f 1e fa          	endbr64 
    12e4:	f2 ff 25 5d 5c 00 00 	bnd jmpq *0x5c5d(%rip)        # 6f48 <inet_addr@GLIBC_2.2.5>
    12eb:	0f 1f 44 00 00       	nopl   0x0(%rax,%rax,1)

00000000000012f0 <strcmp@plt>:
    12f0:	f3 0f 1e fa          	endbr64 
    12f4:	f2 ff 25 55 5c 00 00 	bnd jmpq *0x5c55(%rip)        # 6f50 <strcmp@GLIBC_2.2.5>
    12fb:	0f 1f 44 00 00       	nopl   0x0(%rax,%rax,1)

0000000000001300 <strtol@plt>:
    1300:	f3 0f 1e fa          	endbr64 
    1304:	f2 ff 25 4d 5c 00 00 	bnd jmpq *0x5c4d(%rip)        # 6f58 <strtol@GLIBC_2.2.5>
    130b:	0f 1f 44 00 00       	nopl   0x0(%rax,%rax,1)

0000000000001310 <pthread_mutex_unlock@plt>:
    1310:	f3 0f 1e fa          	endbr64 
    1314:	f2 ff 25 45 5c 00 00 	bnd jmpq *0x5c45(%rip)        # 6f60 <pthread_mutex_unlock@GLIBC_2.2.5>
    131b:	0f 1f 44 00 00       	nopl   0x0(%rax,%rax,1)

0000000000001320 <malloc@plt>:
    1320:	f3 0f 1e fa          	endbr64 
    1324:	f2 ff 25 3d 5c 00 00 	bnd jmpq *0x5c3d(%rip)        # 6f68 <malloc@GLIBC_2.2.5>
    132b:	0f 1f 44 00 00       	nopl   0x0(%rax,%rax,1)

0000000000001330 <listen@plt>:
    1330:	f3 0f 1e fa          	endbr64 
    1334:	f2 ff 25 35 5c 00 00 	bnd jmpq *0x5c35(%rip)        # 6f70 <listen@GLIBC_2.2.5>
    133b:	0f 1f 44 00 00       	nopl   0x0(%rax,%rax,1)

0000000000001340 <__printf_chk@plt>:
    1340:	f3 0f 1e fa          	endbr64 
    1344:	f2 ff 25 2d 5c 00 00 	bnd jmpq *0x5c2d(%rip)        # 6f78 <__printf_chk@GLIBC_2.3.4>
    134b:	0f 1f 44 00 00       	nopl   0x0(%rax,%rax,1)

0000000000001350 <bind@plt>:
    1350:	f3 0f 1e fa          	endbr64 
    1354:	f2 ff 25 25 5c 00 00 	bnd jmpq *0x5c25(%rip)        # 6f80 <bind@GLIBC_2.2.5>
    135b:	0f 1f 44 00 00       	nopl   0x0(%rax,%rax,1)

0000000000001360 <open@plt>:
    1360:	f3 0f 1e fa          	endbr64 
    1364:	f2 ff 25 1d 5c 00 00 	bnd jmpq *0x5c1d(%rip)        # 6f88 <open@GLIBC_2.2.5>
    136b:	0f 1f 44 00 00       	nopl   0x0(%rax,%rax,1)

0000000000001370 <fopen@plt>:
    1370:	f3 0f 1e fa          	endbr64 
    1374:	f2 ff 25 15 5c 00 00 	bnd jmpq *0x5c15(%rip)        # 6f90 <fopen@GLIBC_2.2.5>
    137b:	0f 1f 44 00 00       	nopl   0x0(%rax,%rax,1)

0000000000001380 <strerror@plt>:
    1380:	f3 0f 1e fa          	endbr64 
    1384:	f2 ff 25 0d 5c 00 00 	bnd jmpq *0x5c0d(%rip)        # 6f98 <strerror@GLIBC_2.2.5>
    138b:	0f 1f 44 00 00       	nopl   0x0(%rax,%rax,1)

0000000000001390 <pthread_mutex_lock@plt>:
    1390:	f3 0f 1e fa          	endbr64 
    1394:	f2 ff 25 05 5c 00 00 	bnd jmpq *0x5c05(%rip)        # 6fa0 <pthread_mutex_lock@GLIBC_2.2.5>
    139b:	0f 1f 44 00 00       	nopl   0x0(%rax,%rax,1)

00000000000013a0 <__ctype_b_loc@plt>:
    13a0:	f3 0f 1e fa          	endbr64 
    13a4:	f2 ff 25 fd 5b 00 00 	bnd jmpq *0x5bfd(%rip)        # 6fa8 <__ctype_b_loc@GLIBC_2.3>
    13ab:	0f 1f 44 00 00       	nopl   0x0(%rax,%rax,1)

00000000000013b0 <socket@plt>:
    13b0:	f3 0f 1e fa          	endbr64 
    13b4:	f2 ff 25 f5 5b 00 00 	bnd jmpq *0x5bf5(%rip)        # 6fb0 <socket@GLIBC_2.2.5>
    13bb:	0f 1f 44 00 00       	nopl   0x0(%rax,%rax,1)

Disassembly of section .text:

00000000000013c0 <_start>:
    13c0:	f3 0f 1e fa          	endbr64 
    13c4:	31 ed                	xor    %ebp,%ebp
    13c6:	49 89 d1             	mov    %rdx,%r9
    13c9:	5e                   	pop    %rsi
    13ca:	48 89 e2             	mov    %rsp,%rdx
    13cd:	48 83 e4 f0          	and    $0xfffffffffffffff0,%rsp
    13d1:	50                   	push   %rax
    13d2:	54                   	push   %rsp
    13d3:	4c 8d 05 a6 2a 00 00 	lea    0x2aa6(%rip),%r8        # 3e80 <__libc_csu_fini>
    13da:	48 8d 0d 2f 2a 00 00 	lea    0x2a2f(%rip),%rcx        # 3e10 <__libc_csu_init>
    13e1:	48 8d 3d 92 28 00 00 	lea    0x2892(%rip),%rdi        # 3c7a <main>
    13e8:	ff 15 d2 5b 00 00    	callq  *0x5bd2(%rip)        # 6fc0 <__libc_start_main@GLIBC_2.2.5>
    13ee:	f4                   	hlt    
    13ef:	90                   	nop

00000000000013f0 <deregister_tm_clones>:
    13f0:	48 8d 3d 89 5c 00 00 	lea    0x5c89(%rip),%rdi        # 7080 <optarg@@GLIBC_2.2.5>
    13f7:	48 8d 05 82 5c 00 00 	lea    0x5c82(%rip),%rax        # 7080 <optarg@@GLIBC_2.2.5>
    13fe:	48 39 f8             	cmp    %rdi,%rax
    1401:	74 15                	je     1418 <deregister_tm_clones+0x28>
    1403:	48 8b 05 ae 5b 00 00 	mov    0x5bae(%rip),%rax        # 6fb8 <_ITM_deregisterTMCloneTable>
    140a:	48 85 c0             	test   %rax,%rax
    140d:	74 09                	je     1418 <deregister_tm_clones+0x28>
    140f:	ff e0                	jmpq   *%rax
    1411:	0f 1f 80 00 00 00 00 	nopl   0x0(%rax)
    1418:	c3                   	retq   
    1419:	0f 1f 80 00 00 00 00 	nopl   0x0(%rax)

0000000000001420 <register_tm_clones>:
    1420:	48 8d 3d 59 5c 00 00 	lea    0x5c59(%rip),%rdi        # 7080 <optarg@@GLIBC_2.2.5>
    1427:	48 8d 35 52 5c 00 00 	lea    0x5c52(%rip),%rsi        # 7080 <optarg@@GLIBC_2.2.5>
    142e:	48 29 fe             	sub    %rdi,%rsi
    1431:	48 89 f0             	mov    %rsi,%rax
    1434:	48 c1 ee 3f          	shr    $0x3f,%rsi
    1438:	48 c1 f8 03          	sar    $0x3,%rax
    143c:	48 01 c6             	add    %rax,%rsi
    143f:	48 d1 fe             	sar    %rsi
    1442:	74 14                	je     1458 <register_tm_clones+0x38>
    1444:	48 8b 05 8d 5b 00 00 	mov    0x5b8d(%rip),%rax        # 6fd8 <_ITM_registerTMCloneTable>
    144b:	48 85 c0             	test   %rax,%rax
    144e:	74 08                	je     1458 <register_tm_clones+0x38>
    1450:	ff e0                	jmpq   *%rax
    1452:	66 0f 1f 44 00 00    	nopw   0x0(%rax,%rax,1)
    1458:	c3                   	retq   
    1459:	0f 1f 80 00 00 00 00 	nopl   0x0(%rax)

0000000000001460 <__do_global_dtors_aux>:
    1460:	f3 0f 1e fa          	endbr64 
    1464:	80 3d 1d 5c 00 00 00 	cmpb   $0x0,0x5c1d(%rip)        # 7088 <completed.8060>
    146b:	75 2b                	jne    1498 <__do_global_dtors_aux+0x38>
    146d:	55                   	push   %rbp
    146e:	48 83 3d 6a 5b 00 00 	cmpq   $0x0,0x5b6a(%rip)        # 6fe0 <__cxa_finalize@GLIBC_2.2.5>
    1475:	00 
    1476:	48 89 e5             	mov    %rsp,%rbp
    1479:	74 0c                	je     1487 <__do_global_dtors_aux+0x27>
    147b:	48 8b 3d 86 5b 00 00 	mov    0x5b86(%rip),%rdi        # 7008 <__dso_handle>
    1482:	e8 69 fd ff ff       	callq  11f0 <__cxa_finalize@plt>
    1487:	e8 64 ff ff ff       	callq  13f0 <deregister_tm_clones>
    148c:	c6 05 f5 5b 00 00 01 	movb   $0x1,0x5bf5(%rip)        # 7088 <completed.8060>
    1493:	5d                   	pop    %rbp
    1494:	c3                   	retq   
    1495:	0f 1f 00             	nopl   (%rax)
    1498:	c3                   	retq   
    1499:	0f 1f 80 00 00 00 00 	nopl   0x0(%rax)

00000000000014a0 <frame_dummy>:
    14a0:	f3 0f 1e fa          	endbr64 
    14a4:	e9 77 ff ff ff       	jmpq   1420 <register_tm_clones>

00000000000014a9 <ini_reader_string>:
    14a9:	f3 0f 1e fa          	endbr64 
    14ad:	4c 8b 1a             	mov    (%rdx),%r11
    14b0:	4c 8b 4a 08          	mov    0x8(%rdx),%r9
    14b4:	4d 85 c9             	test   %r9,%r9
    14b7:	74 49                	je     1502 <ini_reader_string+0x59>
    14b9:	83 fe 01             	cmp    $0x1,%esi
    14bc:	7e 44                	jle    1502 <ini_reader_string+0x59>
    14be:	49 89 fa             	mov    %rdi,%r10
    14c1:	4c 89 d9             	mov    %r11,%rcx
    14c4:	48 83 c1 01          	add    $0x1,%rcx
    14c8:	44 0f b6 41 ff       	movzbl -0x1(%rcx),%r8d
    14cd:	49 83 e9 01          	sub    $0x1,%r9
    14d1:	49 83 c2 01          	add    $0x1,%r10
    14d5:	45 88 42 ff          	mov    %r8b,-0x1(%r10)
    14d9:	41 80 f8 0a          	cmp    $0xa,%r8b
    14dd:	74 14                	je     14f3 <ini_reader_string+0x4a>
    14df:	41 89 f0             	mov    %esi,%r8d
    14e2:	41 29 c8             	sub    %ecx,%r8d
    14e5:	45 01 d8             	add    %r11d,%r8d
    14e8:	41 83 f8 01          	cmp    $0x1,%r8d
    14ec:	7e 05                	jle    14f3 <ini_reader_string+0x4a>
    14ee:	4d 85 c9             	test   %r9,%r9
    14f1:	75 d1                	jne    14c4 <ini_reader_string+0x1b>
    14f3:	41 c6 02 00          	movb   $0x0,(%r10)
    14f7:	48 89 0a             	mov    %rcx,(%rdx)
    14fa:	4c 89 4a 08          	mov    %r9,0x8(%rdx)
    14fe:	48 89 f8             	mov    %rdi,%rax
    1501:	c3                   	retq   
    1502:	b8 00 00 00 00       	mov    $0x0,%eax
    1507:	c3                   	retq   

0000000000001508 <find_chars_or_comment>:
    1508:	41 56                	push   %r14
    150a:	41 55                	push   %r13
    150c:	41 54                	push   %r12
    150e:	55                   	push   %rbp
    150f:	53                   	push   %rbx
    1510:	49 89 fc             	mov    %rdi,%r12
    1513:	49 89 f5             	mov    %rsi,%r13
    1516:	0f b6 1f             	movzbl (%rdi),%ebx
    1519:	bd 00 00 00 00       	mov    $0x0,%ebp
    151e:	4c 8d 35 df 2a 00 00 	lea    0x2adf(%rip),%r14        # 4004 <_IO_stdin_used+0x4>
    1525:	84 db                	test   %bl,%bl
    1527:	75 26                	jne    154f <find_chars_or_comment+0x47>
    1529:	eb 4d                	jmp    1578 <find_chars_or_comment+0x70>
    152b:	e8 70 fe ff ff       	callq  13a0 <__ctype_b_loc@plt>
    1530:	0f b6 db             	movzbl %bl,%ebx
    1533:	48 8b 00             	mov    (%rax),%rax
    1536:	0f b7 2c 58          	movzwl (%rax,%rbx,2),%ebp
    153a:	66 81 e5 00 20       	and    $0x2000,%bp
    153f:	0f b7 ed             	movzwl %bp,%ebp
    1542:	49 83 c4 01          	add    $0x1,%r12
    1546:	41 0f b6 1c 24       	movzbl (%r12),%ebx
    154b:	84 db                	test   %bl,%bl
    154d:	74 29                	je     1578 <find_chars_or_comment+0x70>
    154f:	4d 85 ed             	test   %r13,%r13
    1552:	74 10                	je     1564 <find_chars_or_comment+0x5c>
    1554:	0f be f3             	movsbl %bl,%esi
    1557:	4c 89 ef             	mov    %r13,%rdi
    155a:	e8 11 fd ff ff       	callq  1270 <strchr@plt>
    155f:	48 85 c0             	test   %rax,%rax
    1562:	75 14                	jne    1578 <find_chars_or_comment+0x70>
    1564:	85 ed                	test   %ebp,%ebp
    1566:	74 c3                	je     152b <find_chars_or_comment+0x23>
    1568:	0f be f3             	movsbl %bl,%esi
    156b:	4c 89 f7             	mov    %r14,%rdi
    156e:	e8 fd fc ff ff       	callq  1270 <strchr@plt>
    1573:	48 85 c0             	test   %rax,%rax
    1576:	74 b3                	je     152b <find_chars_or_comment+0x23>
    1578:	4c 89 e0             	mov    %r12,%rax
    157b:	5b                   	pop    %rbx
    157c:	5d                   	pop    %rbp
    157d:	41 5c                	pop    %r12
    157f:	41 5d                	pop    %r13
    1581:	41 5e                	pop    %r14
    1583:	c3                   	retq   

0000000000001584 <lskip>:
    1584:	55                   	push   %rbp
    1585:	53                   	push   %rbx
    1586:	48 83 ec 08          	sub    $0x8,%rsp
    158a:	48 89 fd             	mov    %rdi,%rbp
    158d:	0f b6 1f             	movzbl (%rdi),%ebx
    1590:	84 db                	test   %bl,%bl
    1592:	74 27                	je     15bb <lskip+0x37>
    1594:	e8 07 fe ff ff       	callq  13a0 <__ctype_b_loc@plt>
    1599:	48 8b 10             	mov    (%rax),%rdx
    159c:	48 89 e8             	mov    %rbp,%rax
    159f:	0f b6 db             	movzbl %bl,%ebx
    15a2:	f6 44 5a 01 20       	testb  $0x20,0x1(%rdx,%rbx,2)
    15a7:	74 0b                	je     15b4 <lskip+0x30>
    15a9:	48 83 c0 01          	add    $0x1,%rax
    15ad:	0f b6 18             	movzbl (%rax),%ebx
    15b0:	84 db                	test   %bl,%bl
    15b2:	75 eb                	jne    159f <lskip+0x1b>
    15b4:	48 83 c4 08          	add    $0x8,%rsp
    15b8:	5b                   	pop    %rbx
    15b9:	5d                   	pop    %rbp
    15ba:	c3                   	retq   
    15bb:	48 89 f8             	mov    %rdi,%rax
    15be:	eb f4                	jmp    15b4 <lskip+0x30>

00000000000015c0 <rstrip>:
    15c0:	55                   	push   %rbp
    15c1:	53                   	push   %rbx
    15c2:	48 83 ec 08          	sub    $0x8,%rsp
    15c6:	48 89 fd             	mov    %rdi,%rbp
    15c9:	48 c7 c1 ff ff ff ff 	mov    $0xffffffffffffffff,%rcx
    15d0:	b8 00 00 00 00       	mov    $0x0,%eax
    15d5:	f2 ae                	repnz scas %es:(%rdi),%al
    15d7:	48 f7 d1             	not    %rcx
    15da:	48 8d 5c 0d ff       	lea    -0x1(%rbp,%rcx,1),%rbx
    15df:	48 39 dd             	cmp    %rbx,%rbp
    15e2:	73 1e                	jae    1602 <rstrip+0x42>
    15e4:	e8 b7 fd ff ff       	callq  13a0 <__ctype_b_loc@plt>
    15e9:	48 83 eb 01          	sub    $0x1,%rbx
    15ed:	0f b6 0b             	movzbl (%rbx),%ecx
    15f0:	48 8b 10             	mov    (%rax),%rdx
    15f3:	f6 44 4a 01 20       	testb  $0x20,0x1(%rdx,%rcx,2)
    15f8:	74 08                	je     1602 <rstrip+0x42>
    15fa:	c6 03 00             	movb   $0x0,(%rbx)
    15fd:	48 39 dd             	cmp    %rbx,%rbp
    1600:	75 e7                	jne    15e9 <rstrip+0x29>
    1602:	48 89 e8             	mov    %rbp,%rax
    1605:	48 83 c4 08          	add    $0x8,%rsp
    1609:	5b                   	pop    %rbx
    160a:	5d                   	pop    %rbp
    160b:	c3                   	retq   

000000000000160c <ini_parse_stream>:
    160c:	f3 0f 1e fa          	endbr64 
    1610:	41 57                	push   %r15
    1612:	41 56                	push   %r14
    1614:	41 55                	push   %r13
    1616:	41 54                	push   %r12
    1618:	55                   	push   %rbp
    1619:	53                   	push   %rbx
    161a:	48 81 ec a8 02 00 00 	sub    $0x2a8,%rsp
    1621:	49 89 ff             	mov    %rdi,%r15
    1624:	49 89 f6             	mov    %rsi,%r14
    1627:	48 89 54 24 08       	mov    %rdx,0x8(%rsp)
    162c:	48 89 4c 24 10       	mov    %rcx,0x10(%rsp)
    1631:	64 48 8b 04 25 28 00 	mov    %fs:0x28,%rax
    1638:	00 00 
    163a:	48 89 84 24 98 02 00 	mov    %rax,0x298(%rsp)
    1641:	00 
    1642:	31 c0                	xor    %eax,%eax
    1644:	48 c7 44 24 20 00 00 	movq   $0x0,0x20(%rsp)
    164b:	00 00 
    164d:	48 c7 44 24 28 00 00 	movq   $0x0,0x28(%rsp)
    1654:	00 00 
    1656:	48 c7 44 24 30 00 00 	movq   $0x0,0x30(%rsp)
    165d:	00 00 
    165f:	48 c7 44 24 38 00 00 	movq   $0x0,0x38(%rsp)
    1666:	00 00 
    1668:	48 c7 44 24 40 00 00 	movq   $0x0,0x40(%rsp)
    166f:	00 00 
    1671:	48 c7 44 24 48 00 00 	movq   $0x0,0x48(%rsp)
    1678:	00 00 
    167a:	66 c7 44 24 50 00 00 	movw   $0x0,0x50(%rsp)
    1681:	48 c7 44 24 60 00 00 	movq   $0x0,0x60(%rsp)
    1688:	00 00 
    168a:	48 c7 44 24 68 00 00 	movq   $0x0,0x68(%rsp)
    1691:	00 00 
    1693:	48 c7 44 24 70 00 00 	movq   $0x0,0x70(%rsp)
    169a:	00 00 
    169c:	48 c7 44 24 78 00 00 	movq   $0x0,0x78(%rsp)
    16a3:	00 00 
    16a5:	48 c7 84 24 80 00 00 	movq   $0x0,0x80(%rsp)
    16ac:	00 00 00 00 00 
    16b1:	48 c7 84 24 88 00 00 	movq   $0x0,0x88(%rsp)
    16b8:	00 00 00 00 00 
    16bd:	66 c7 84 24 90 00 00 	movw   $0x0,0x90(%rsp)
    16c4:	00 00 00 
    16c7:	c7 44 24 04 00 00 00 	movl   $0x0,0x4(%rsp)
    16ce:	00 
    16cf:	bd 00 00 00 00       	mov    $0x0,%ebp
    16d4:	4c 8d a4 24 a0 00 00 	lea    0xa0(%rsp),%r12
    16db:	00 
    16dc:	eb 29                	jmp    1707 <ini_parse_stream+0xfb>
    16de:	e8 dd fe ff ff       	callq  15c0 <rstrip>
    16e3:	48 89 c7             	mov    %rax,%rdi
    16e6:	e8 99 fe ff ff       	callq  1584 <lskip>
    16eb:	48 89 c3             	mov    %rax,%rbx
    16ee:	44 0f b6 28          	movzbl (%rax),%r13d
    16f2:	41 0f be f5          	movsbl %r13b,%esi
    16f6:	48 8d 3d 09 29 00 00 	lea    0x2909(%rip),%rdi        # 4006 <_IO_stdin_used+0x6>
    16fd:	e8 6e fb ff ff       	callq  1270 <strchr@plt>
    1702:	48 85 c0             	test   %rax,%rax
    1705:	74 4a                	je     1751 <ini_parse_stream+0x145>
    1707:	4c 89 f2             	mov    %r14,%rdx
    170a:	be f4 01 00 00       	mov    $0x1f4,%esi
    170f:	4c 89 e7             	mov    %r12,%rdi
    1712:	41 ff d7             	callq  *%r15
    1715:	48 85 c0             	test   %rax,%rax
    1718:	0f 84 91 01 00 00    	je     18af <ini_parse_stream+0x2a3>
    171e:	83 c5 01             	add    $0x1,%ebp
    1721:	4c 89 e7             	mov    %r12,%rdi
    1724:	83 fd 01             	cmp    $0x1,%ebp
    1727:	75 b5                	jne    16de <ini_parse_stream+0xd2>
    1729:	80 bc 24 a0 00 00 00 	cmpb   $0xef,0xa0(%rsp)
    1730:	ef 
    1731:	75 ab                	jne    16de <ini_parse_stream+0xd2>
    1733:	80 bc 24 a1 00 00 00 	cmpb   $0xbb,0xa1(%rsp)
    173a:	bb 
    173b:	75 a1                	jne    16de <ini_parse_stream+0xd2>
    173d:	80 bc 24 a2 00 00 00 	cmpb   $0xbf,0xa2(%rsp)
    1744:	bf 
    1745:	75 97                	jne    16de <ini_parse_stream+0xd2>
    1747:	48 8d bc 24 a3 00 00 	lea    0xa3(%rsp),%rdi
    174e:	00 
    174f:	eb 8d                	jmp    16de <ini_parse_stream+0xd2>
    1751:	80 7c 24 60 00       	cmpb   $0x0,0x60(%rsp)
    1756:	0f 95 c2             	setne  %dl
    1759:	4c 39 e3             	cmp    %r12,%rbx
    175c:	0f 97 c0             	seta   %al
    175f:	84 c2                	test   %al,%dl
    1761:	74 05                	je     1768 <ini_parse_stream+0x15c>
    1763:	45 84 ed             	test   %r13b,%r13b
    1766:	75 42                	jne    17aa <ini_parse_stream+0x19e>
    1768:	41 80 fd 5b          	cmp    $0x5b,%r13b
    176c:	74 6a                	je     17d8 <ini_parse_stream+0x1cc>
    176e:	45 84 ed             	test   %r13b,%r13b
    1771:	74 94                	je     1707 <ini_parse_stream+0xfb>
    1773:	48 8d 35 91 28 00 00 	lea    0x2891(%rip),%rsi        # 400b <_IO_stdin_used+0xb>
    177a:	48 89 df             	mov    %rbx,%rdi
    177d:	e8 86 fd ff ff       	callq  1508 <find_chars_or_comment>
    1782:	49 89 c5             	mov    %rax,%r13
    1785:	0f b6 00             	movzbl (%rax),%eax
    1788:	3c 3d                	cmp    $0x3d,%al
    178a:	0f 84 96 00 00 00    	je     1826 <ini_parse_stream+0x21a>
    1790:	3c 3a                	cmp    $0x3a,%al
    1792:	0f 84 8e 00 00 00    	je     1826 <ini_parse_stream+0x21a>
    1798:	8b 44 24 04          	mov    0x4(%rsp),%eax
    179c:	85 c0                	test   %eax,%eax
    179e:	0f 44 c5             	cmove  %ebp,%eax
    17a1:	89 44 24 04          	mov    %eax,0x4(%rsp)
    17a5:	e9 5d ff ff ff       	jmpq   1707 <ini_parse_stream+0xfb>
    17aa:	48 8d 54 24 60       	lea    0x60(%rsp),%rdx
    17af:	48 8d 74 24 20       	lea    0x20(%rsp),%rsi
    17b4:	41 89 e8             	mov    %ebp,%r8d
    17b7:	48 89 d9             	mov    %rbx,%rcx
    17ba:	48 8b 7c 24 10       	mov    0x10(%rsp),%rdi
    17bf:	48 8b 44 24 08       	mov    0x8(%rsp),%rax
    17c4:	ff d0                	callq  *%rax
    17c6:	8b 4c 24 04          	mov    0x4(%rsp),%ecx
    17ca:	09 c8                	or     %ecx,%eax
    17cc:	0f 44 cd             	cmove  %ebp,%ecx
    17cf:	89 4c 24 04          	mov    %ecx,0x4(%rsp)
    17d3:	e9 2f ff ff ff       	jmpq   1707 <ini_parse_stream+0xfb>
    17d8:	48 83 c3 01          	add    $0x1,%rbx
    17dc:	48 8d 35 26 28 00 00 	lea    0x2826(%rip),%rsi        # 4009 <_IO_stdin_used+0x9>
    17e3:	48 89 df             	mov    %rbx,%rdi
    17e6:	e8 1d fd ff ff       	callq  1508 <find_chars_or_comment>
    17eb:	80 38 5d             	cmpb   $0x5d,(%rax)
    17ee:	74 12                	je     1802 <ini_parse_stream+0x1f6>
    17f0:	8b 44 24 04          	mov    0x4(%rsp),%eax
    17f4:	85 c0                	test   %eax,%eax
    17f6:	0f 44 c5             	cmove  %ebp,%eax
    17f9:	89 44 24 04          	mov    %eax,0x4(%rsp)
    17fd:	e9 05 ff ff ff       	jmpq   1707 <ini_parse_stream+0xfb>
    1802:	c6 00 00             	movb   $0x0,(%rax)
    1805:	48 8d 7c 24 20       	lea    0x20(%rsp),%rdi
    180a:	ba 31 00 00 00       	mov    $0x31,%edx
    180f:	48 89 de             	mov    %rbx,%rsi
    1812:	e8 09 fa ff ff       	callq  1220 <strncpy@plt>
    1817:	c6 44 24 51 00       	movb   $0x0,0x51(%rsp)
    181c:	c6 44 24 60 00       	movb   $0x0,0x60(%rsp)
    1821:	e9 e1 fe ff ff       	jmpq   1707 <ini_parse_stream+0xfb>
    1826:	41 c6 45 00 00       	movb   $0x0,0x0(%r13)
    182b:	48 89 df             	mov    %rbx,%rdi
    182e:	e8 8d fd ff ff       	callq  15c0 <rstrip>
    1833:	48 89 44 24 18       	mov    %rax,0x18(%rsp)
    1838:	49 83 c5 01          	add    $0x1,%r13
    183c:	be 00 00 00 00       	mov    $0x0,%esi
    1841:	4c 89 ef             	mov    %r13,%rdi
    1844:	e8 bf fc ff ff       	callq  1508 <find_chars_or_comment>
    1849:	80 38 00             	cmpb   $0x0,(%rax)
    184c:	74 03                	je     1851 <ini_parse_stream+0x245>
    184e:	c6 00 00             	movb   $0x0,(%rax)
    1851:	4c 89 ef             	mov    %r13,%rdi
    1854:	e8 2b fd ff ff       	callq  1584 <lskip>
    1859:	48 89 c3             	mov    %rax,%rbx
    185c:	48 89 c7             	mov    %rax,%rdi
    185f:	e8 5c fd ff ff       	callq  15c0 <rstrip>
    1864:	48 8d 7c 24 60       	lea    0x60(%rsp),%rdi
    1869:	ba 31 00 00 00       	mov    $0x31,%edx
    186e:	4c 8b 6c 24 18       	mov    0x18(%rsp),%r13
    1873:	4c 89 ee             	mov    %r13,%rsi
    1876:	e8 a5 f9 ff ff       	callq  1220 <strncpy@plt>
    187b:	c6 84 24 91 00 00 00 	movb   $0x0,0x91(%rsp)
    1882:	00 
    1883:	48 8d 74 24 20       	lea    0x20(%rsp),%rsi
    1888:	41 89 e8             	mov    %ebp,%r8d
    188b:	48 89 d9             	mov    %rbx,%rcx
    188e:	4c 89 ea             	mov    %r13,%rdx
    1891:	48 8b 7c 24 10       	mov    0x10(%rsp),%rdi
    1896:	48 8b 44 24 08       	mov    0x8(%rsp),%rax
    189b:	ff d0                	callq  *%rax
    189d:	8b 4c 24 04          	mov    0x4(%rsp),%ecx
    18a1:	09 c8                	or     %ecx,%eax
    18a3:	0f 44 cd             	cmove  %ebp,%ecx
    18a6:	89 4c 24 04          	mov    %ecx,0x4(%rsp)
    18aa:	e9 58 fe ff ff       	jmpq   1707 <ini_parse_stream+0xfb>
    18af:	48 8b 84 24 98 02 00 	mov    0x298(%rsp),%rax
    18b6:	00 
    18b7:	64 48 33 04 25 28 00 	xor    %fs:0x28,%rax
    18be:	00 00 
    18c0:	75 16                	jne    18d8 <ini_parse_stream+0x2cc>
    18c2:	8b 44 24 04          	mov    0x4(%rsp),%eax
    18c6:	48 81 c4 a8 02 00 00 	add    $0x2a8,%rsp
    18cd:	5b                   	pop    %rbx
    18ce:	5d                   	pop    %rbp
    18cf:	41 5c                	pop    %r12
    18d1:	41 5d                	pop    %r13
    18d3:	41 5e                	pop    %r14
    18d5:	41 5f                	pop    %r15
    18d7:	c3                   	retq   
    18d8:	e8 73 f9 ff ff       	callq  1250 <__stack_chk_fail@plt>

00000000000018dd <ini_parse_file>:
    18dd:	f3 0f 1e fa          	endbr64 
    18e1:	48 83 ec 08          	sub    $0x8,%rsp
    18e5:	48 89 d1             	mov    %rdx,%rcx
    18e8:	48 89 f2             	mov    %rsi,%rdx
    18eb:	48 89 fe             	mov    %rdi,%rsi
    18ee:	48 8b 3d d3 56 00 00 	mov    0x56d3(%rip),%rdi        # 6fc8 <fgets@GLIBC_2.2.5>
    18f5:	e8 12 fd ff ff       	callq  160c <ini_parse_stream>
    18fa:	48 83 c4 08          	add    $0x8,%rsp
    18fe:	c3                   	retq   

00000000000018ff <ini_parse>:
    18ff:	f3 0f 1e fa          	endbr64 
    1903:	41 54                	push   %r12
    1905:	55                   	push   %rbp
    1906:	53                   	push   %rbx
    1907:	48 89 f5             	mov    %rsi,%rbp
    190a:	49 89 d4             	mov    %rdx,%r12
    190d:	48 8d 35 dd 2e 00 00 	lea    0x2edd(%rip),%rsi        # 47f1 <__PRETTY_FUNCTION__.2052+0x6d1>
    1914:	e8 57 fa ff ff       	callq  1370 <fopen@plt>
    1919:	48 85 c0             	test   %rax,%rax
    191c:	74 22                	je     1940 <ini_parse+0x41>
    191e:	48 89 c3             	mov    %rax,%rbx
    1921:	4c 89 e2             	mov    %r12,%rdx
    1924:	48 89 ee             	mov    %rbp,%rsi
    1927:	48 89 c7             	mov    %rax,%rdi
    192a:	e8 ae ff ff ff       	callq  18dd <ini_parse_file>
    192f:	89 c5                	mov    %eax,%ebp
    1931:	48 89 df             	mov    %rbx,%rdi
    1934:	e8 07 f9 ff ff       	callq  1240 <fclose@plt>
    1939:	89 e8                	mov    %ebp,%eax
    193b:	5b                   	pop    %rbx
    193c:	5d                   	pop    %rbp
    193d:	41 5c                	pop    %r12
    193f:	c3                   	retq   
    1940:	bd ff ff ff ff       	mov    $0xffffffff,%ebp
    1945:	eb f2                	jmp    1939 <ini_parse+0x3a>

0000000000001947 <ini_parse_string>:
    1947:	f3 0f 1e fa          	endbr64 
    194b:	53                   	push   %rbx
    194c:	48 83 ec 20          	sub    $0x20,%rsp
    1950:	bb 28 00 00 00       	mov    $0x28,%ebx
    1955:	64 48 8b 03          	mov    %fs:(%rbx),%rax
    1959:	48 89 44 24 18       	mov    %rax,0x18(%rsp)
    195e:	31 c0                	xor    %eax,%eax
    1960:	48 89 3c 24          	mov    %rdi,(%rsp)
    1964:	48 c7 c1 ff ff ff ff 	mov    $0xffffffffffffffff,%rcx
    196b:	f2 ae                	repnz scas %es:(%rdi),%al
    196d:	48 89 c8             	mov    %rcx,%rax
    1970:	48 f7 d0             	not    %rax
    1973:	48 83 e8 01          	sub    $0x1,%rax
    1977:	48 89 44 24 08       	mov    %rax,0x8(%rsp)
    197c:	48 89 e0             	mov    %rsp,%rax
    197f:	48 89 d1             	mov    %rdx,%rcx
    1982:	48 89 f2             	mov    %rsi,%rdx
    1985:	48 89 c6             	mov    %rax,%rsi
    1988:	48 8d 3d 1a fb ff ff 	lea    -0x4e6(%rip),%rdi        # 14a9 <ini_reader_string>
    198f:	e8 78 fc ff ff       	callq  160c <ini_parse_stream>
    1994:	48 8b 54 24 18       	mov    0x18(%rsp),%rdx
    1999:	64 48 33 13          	xor    %fs:(%rbx),%rdx
    199d:	75 06                	jne    19a5 <ini_parse_string+0x5e>
    199f:	48 83 c4 20          	add    $0x20,%rsp
    19a3:	5b                   	pop    %rbx
    19a4:	c3                   	retq   
    19a5:	e8 a6 f8 ff ff       	callq  1250 <__stack_chk_fail@plt>

00000000000019aa <fd_set_nonblock>:
    19aa:	f3 0f 1e fa          	endbr64 
    19ae:	53                   	push   %rbx
    19af:	89 fb                	mov    %edi,%ebx
    19b1:	ba 00 00 00 00       	mov    $0x0,%edx
    19b6:	be 03 00 00 00       	mov    $0x3,%esi
    19bb:	b8 00 00 00 00       	mov    $0x0,%eax
    19c0:	e8 6b f8 ff ff       	callq  1230 <fcntl@plt>
    19c5:	83 f8 ff             	cmp    $0xffffffff,%eax
    19c8:	ba 00 00 00 00       	mov    $0x0,%edx
    19cd:	0f 44 c2             	cmove  %edx,%eax
    19d0:	80 cc 08             	or     $0x8,%ah
    19d3:	89 c2                	mov    %eax,%edx
    19d5:	be 04 00 00 00       	mov    $0x4,%esi
    19da:	89 df                	mov    %ebx,%edi
    19dc:	b8 00 00 00 00       	mov    $0x0,%eax
    19e1:	e8 4a f8 ff ff       	callq  1230 <fcntl@plt>
    19e6:	5b                   	pop    %rbx
    19e7:	c3                   	retq   

00000000000019e8 <tun_alloc>:
    19e8:	f3 0f 1e fa          	endbr64 
    19ec:	55                   	push   %rbp
    19ed:	53                   	push   %rbx
    19ee:	48 83 ec 38          	sub    $0x38,%rsp
    19f2:	64 48 8b 04 25 28 00 	mov    %fs:0x28,%rax
    19f9:	00 00 
    19fb:	48 89 44 24 28       	mov    %rax,0x28(%rsp)
    1a00:	31 c0                	xor    %eax,%eax
    1a02:	48 85 ff             	test   %rdi,%rdi
    1a05:	0f 84 a2 00 00 00    	je     1aad <tun_alloc+0xc5>
    1a0b:	89 f3                	mov    %esi,%ebx
    1a0d:	80 3f 00             	cmpb   $0x0,(%rdi)
    1a10:	0f 84 97 00 00 00    	je     1aad <tun_alloc+0xc5>
    1a16:	48 89 e0             	mov    %rsp,%rax
    1a19:	48 c7 04 24 00 00 00 	movq   $0x0,(%rsp)
    1a20:	00 
    1a21:	48 c7 44 24 08 00 00 	movq   $0x0,0x8(%rsp)
    1a28:	00 00 
    1a2a:	48 c7 44 24 10 00 00 	movq   $0x0,0x10(%rsp)
    1a31:	00 00 
    1a33:	48 c7 44 24 18 00 00 	movq   $0x0,0x18(%rsp)
    1a3a:	00 00 
    1a3c:	48 c7 44 24 20 00 00 	movq   $0x0,0x20(%rsp)
    1a43:	00 00 
    1a45:	ba 0f 00 00 00       	mov    $0xf,%edx
    1a4a:	48 89 fe             	mov    %rdi,%rsi
    1a4d:	48 89 c7             	mov    %rax,%rdi
    1a50:	e8 cb f7 ff ff       	callq  1220 <strncpy@plt>
    1a55:	66 89 5c 24 10       	mov    %bx,0x10(%rsp)
    1a5a:	be 02 00 00 00       	mov    $0x2,%esi
    1a5f:	48 8d 3d 14 26 00 00 	lea    0x2614(%rip),%rdi        # 407a <_IO_stdin_used+0x7a>
    1a66:	b8 00 00 00 00       	mov    $0x0,%eax
    1a6b:	e8 f0 f8 ff ff       	callq  1360 <open@plt>
    1a70:	89 c3                	mov    %eax,%ebx
    1a72:	85 c0                	test   %eax,%eax
    1a74:	78 54                	js     1aca <tun_alloc+0xe2>
    1a76:	48 89 e2             	mov    %rsp,%rdx
    1a79:	be ca 54 04 40       	mov    $0x400454ca,%esi
    1a7e:	89 c7                	mov    %eax,%edi
    1a80:	b8 00 00 00 00       	mov    $0x0,%eax
    1a85:	e8 06 f8 ff ff       	callq  1290 <ioctl@plt>
    1a8a:	89 c5                	mov    %eax,%ebp
    1a8c:	85 c0                	test   %eax,%eax
    1a8e:	78 61                	js     1af1 <tun_alloc+0x109>
    1a90:	48 8b 44 24 28       	mov    0x28(%rsp),%rax
    1a95:	64 48 33 04 25 28 00 	xor    %fs:0x28,%rax
    1a9c:	00 00 
    1a9e:	0f 85 82 00 00 00    	jne    1b26 <tun_alloc+0x13e>
    1aa4:	89 d8                	mov    %ebx,%eax
    1aa6:	48 83 c4 38          	add    $0x38,%rsp
    1aaa:	5b                   	pop    %rbx
    1aab:	5d                   	pop    %rbp
    1aac:	c3                   	retq   
    1aad:	48 8d 35 5c 25 00 00 	lea    0x255c(%rip),%rsi        # 4010 <_IO_stdin_used+0x10>
    1ab4:	bf 01 00 00 00       	mov    $0x1,%edi
    1ab9:	b8 00 00 00 00       	mov    $0x0,%eax
    1abe:	e8 7d f8 ff ff       	callq  1340 <__printf_chk@plt>
    1ac3:	bb ff ff ff ff       	mov    $0xffffffff,%ebx
    1ac8:	eb c6                	jmp    1a90 <tun_alloc+0xa8>
    1aca:	e8 41 f7 ff ff       	callq  1210 <__errno_location@plt>
    1acf:	8b 38                	mov    (%rax),%edi
    1ad1:	e8 aa f8 ff ff       	callq  1380 <strerror@plt>
    1ad6:	48 89 c2             	mov    %rax,%rdx
    1ad9:	48 8d 35 a7 25 00 00 	lea    0x25a7(%rip),%rsi        # 4087 <_IO_stdin_used+0x87>
    1ae0:	bf 01 00 00 00       	mov    $0x1,%edi
    1ae5:	b8 00 00 00 00       	mov    $0x0,%eax
    1aea:	e8 51 f8 ff ff       	callq  1340 <__printf_chk@plt>
    1aef:	eb 9f                	jmp    1a90 <tun_alloc+0xa8>
    1af1:	e8 1a f7 ff ff       	callq  1210 <__errno_location@plt>
    1af6:	8b 38                	mov    (%rax),%edi
    1af8:	e8 83 f8 ff ff       	callq  1380 <strerror@plt>
    1afd:	48 89 c1             	mov    %rax,%rcx
    1b00:	89 da                	mov    %ebx,%edx
    1b02:	48 8d 35 2f 25 00 00 	lea    0x252f(%rip),%rsi        # 4038 <_IO_stdin_used+0x38>
    1b09:	bf 01 00 00 00       	mov    $0x1,%edi
    1b0e:	b8 00 00 00 00       	mov    $0x0,%eax
    1b13:	e8 28 f8 ff ff       	callq  1340 <__printf_chk@plt>
    1b18:	89 df                	mov    %ebx,%edi
    1b1a:	e8 91 f7 ff ff       	callq  12b0 <close@plt>
    1b1f:	89 eb                	mov    %ebp,%ebx
    1b21:	e9 6a ff ff ff       	jmpq   1a90 <tun_alloc+0xa8>
    1b26:	e8 25 f7 ff ff       	callq  1250 <__stack_chk_fail@plt>

0000000000001b2b <tun_set_queue>:
    1b2b:	f3 0f 1e fa          	endbr64 
    1b2f:	55                   	push   %rbp
    1b30:	53                   	push   %rbx
    1b31:	48 83 ec 38          	sub    $0x38,%rsp
    1b35:	89 fd                	mov    %edi,%ebp
    1b37:	64 48 8b 04 25 28 00 	mov    %fs:0x28,%rax
    1b3e:	00 00 
    1b40:	48 89 44 24 28       	mov    %rax,0x28(%rsp)
    1b45:	31 c0                	xor    %eax,%eax
    1b47:	48 c7 04 24 00 00 00 	movq   $0x0,(%rsp)
    1b4e:	00 
    1b4f:	48 c7 44 24 08 00 00 	movq   $0x0,0x8(%rsp)
    1b56:	00 00 
    1b58:	48 c7 44 24 10 00 00 	movq   $0x0,0x10(%rsp)
    1b5f:	00 00 
    1b61:	48 c7 44 24 18 00 00 	movq   $0x0,0x18(%rsp)
    1b68:	00 00 
    1b6a:	48 c7 44 24 20 00 00 	movq   $0x0,0x20(%rsp)
    1b71:	00 00 
    1b73:	40 80 fe 01          	cmp    $0x1,%sil
    1b77:	19 c0                	sbb    %eax,%eax
    1b79:	66 25 00 02          	and    $0x200,%ax
    1b7d:	66 05 00 02          	add    $0x200,%ax
    1b81:	66 89 44 24 10       	mov    %ax,0x10(%rsp)
    1b86:	48 89 e2             	mov    %rsp,%rdx
    1b89:	be d9 54 04 40       	mov    $0x400454d9,%esi
    1b8e:	b8 00 00 00 00       	mov    $0x0,%eax
    1b93:	e8 f8 f6 ff ff       	callq  1290 <ioctl@plt>
    1b98:	89 c3                	mov    %eax,%ebx
    1b9a:	85 c0                	test   %eax,%eax
    1b9c:	78 19                	js     1bb7 <tun_set_queue+0x8c>
    1b9e:	48 8b 44 24 28       	mov    0x28(%rsp),%rax
    1ba3:	64 48 33 04 25 28 00 	xor    %fs:0x28,%rax
    1baa:	00 00 
    1bac:	75 32                	jne    1be0 <tun_set_queue+0xb5>
    1bae:	89 d8                	mov    %ebx,%eax
    1bb0:	48 83 c4 38          	add    $0x38,%rsp
    1bb4:	5b                   	pop    %rbx
    1bb5:	5d                   	pop    %rbp
    1bb6:	c3                   	retq   
    1bb7:	e8 54 f6 ff ff       	callq  1210 <__errno_location@plt>
    1bbc:	8b 38                	mov    (%rax),%edi
    1bbe:	e8 bd f7 ff ff       	callq  1380 <strerror@plt>
    1bc3:	48 89 c1             	mov    %rax,%rcx
    1bc6:	89 ea                	mov    %ebp,%edx
    1bc8:	48 8d 35 89 24 00 00 	lea    0x2489(%rip),%rsi        # 4058 <_IO_stdin_used+0x58>
    1bcf:	bf 01 00 00 00       	mov    $0x1,%edi
    1bd4:	b8 00 00 00 00       	mov    $0x0,%eax
    1bd9:	e8 62 f7 ff ff       	callq  1340 <__printf_chk@plt>
    1bde:	eb be                	jmp    1b9e <tun_set_queue+0x73>
    1be0:	e8 6b f6 ff ff       	callq  1250 <__stack_chk_fail@plt>

0000000000001be5 <ar_init>:
    1be5:	f3 0f 1e fa          	endbr64 
    1be9:	48 89 3d b0 54 00 00 	mov    %rdi,0x54b0(%rip)        # 70a0 <arena_ptr>
    1bf0:	48 89 35 a1 54 00 00 	mov    %rsi,0x54a1(%rip)        # 7098 <arena_size>
    1bf7:	48 c7 05 8e 54 00 00 	movq   $0x0,0x548e(%rip)        # 7090 <arena_pos>
    1bfe:	00 00 00 00 
    1c02:	c3                   	retq   

0000000000001c03 <ar_alloc>:
    1c03:	f3 0f 1e fa          	endbr64 
    1c07:	48 8b 05 82 54 00 00 	mov    0x5482(%rip),%rax        # 7090 <arena_pos>
    1c0e:	48 89 c2             	mov    %rax,%rdx
    1c11:	48 03 15 88 54 00 00 	add    0x5488(%rip),%rdx        # 70a0 <arena_ptr>
    1c18:	48 01 c7             	add    %rax,%rdi
    1c1b:	48 3b 3d 76 54 00 00 	cmp    0x5476(%rip),%rdi        # 7098 <arena_size>
    1c22:	77 0b                	ja     1c2f <ar_alloc+0x2c>
    1c24:	48 89 3d 65 54 00 00 	mov    %rdi,0x5465(%rip)        # 7090 <arena_pos>
    1c2b:	48 89 d0             	mov    %rdx,%rax
    1c2e:	c3                   	retq   
    1c2f:	48 83 ec 08          	sub    $0x8,%rsp
    1c33:	48 8d 0d e6 24 00 00 	lea    0x24e6(%rip),%rcx        # 4120 <__PRETTY_FUNCTION__.2052>
    1c3a:	ba 25 00 00 00       	mov    $0x25,%edx
    1c3f:	48 8d 35 62 24 00 00 	lea    0x2462(%rip),%rsi        # 40a8 <_IO_stdin_used+0xa8>
    1c46:	48 8d 3d ad 24 00 00 	lea    0x24ad(%rip),%rdi        # 40fa <_IO_stdin_used+0xfa>
    1c4d:	e8 2e f6 ff ff       	callq  1280 <__assert_fail@plt>

0000000000001c52 <ar_strdup>:
    1c52:	f3 0f 1e fa          	endbr64 
    1c56:	48 89 fe             	mov    %rdi,%rsi
    1c59:	48 c7 c1 ff ff ff ff 	mov    $0xffffffffffffffff,%rcx
    1c60:	b8 00 00 00 00       	mov    $0x0,%eax
    1c65:	f2 ae                	repnz scas %es:(%rdi),%al
    1c67:	48 89 c8             	mov    %rcx,%rax
    1c6a:	48 f7 d0             	not    %rax
    1c6d:	48 8b 3d 1c 54 00 00 	mov    0x541c(%rip),%rdi        # 7090 <arena_pos>
    1c74:	48 89 fa             	mov    %rdi,%rdx
    1c77:	48 03 15 22 54 00 00 	add    0x5422(%rip),%rdx        # 70a0 <arena_ptr>
    1c7e:	48 8d 3c 07          	lea    (%rdi,%rax,1),%rdi
    1c82:	48 3b 3d 0f 54 00 00 	cmp    0x540f(%rip),%rdi        # 7098 <arena_size>
    1c89:	77 1a                	ja     1ca5 <ar_strdup+0x53>
    1c8b:	48 8d 48 ff          	lea    -0x1(%rax),%rcx
    1c8f:	48 89 3d fa 53 00 00 	mov    %rdi,0x53fa(%rip)        # 7090 <arena_pos>
    1c96:	48 89 d7             	mov    %rdx,%rdi
    1c99:	fc                   	cld    
    1c9a:	f3 a4                	rep movsb %ds:(%rsi),%es:(%rdi)
    1c9c:	c6 44 02 ff 00       	movb   $0x0,-0x1(%rdx,%rax,1)
    1ca1:	48 89 d0             	mov    %rdx,%rax
    1ca4:	c3                   	retq   
    1ca5:	48 83 ec 08          	sub    $0x8,%rsp
    1ca9:	48 8d 0d 70 24 00 00 	lea    0x2470(%rip),%rcx        # 4120 <__PRETTY_FUNCTION__.2052>
    1cb0:	ba 25 00 00 00       	mov    $0x25,%edx
    1cb5:	48 8d 35 ec 23 00 00 	lea    0x23ec(%rip),%rsi        # 40a8 <_IO_stdin_used+0xa8>
    1cbc:	48 8d 3d 37 24 00 00 	lea    0x2437(%rip),%rdi        # 40fa <_IO_stdin_used+0xfa>
    1cc3:	e8 b8 f5 ff ff       	callq  1280 <__assert_fail@plt>

0000000000001cc8 <ar_strndup>:
    1cc8:	f3 0f 1e fa          	endbr64 
    1ccc:	55                   	push   %rbp
    1ccd:	53                   	push   %rbx
    1cce:	48 83 ec 08          	sub    $0x8,%rsp
    1cd2:	48 89 fd             	mov    %rdi,%rbp
    1cd5:	48 89 f3             	mov    %rsi,%rbx
    1cd8:	e8 c3 f5 ff ff       	callq  12a0 <strnlen@plt>
    1cdd:	48 39 c3             	cmp    %rax,%rbx
    1ce0:	48 0f 47 d8          	cmova  %rax,%rbx
    1ce4:	48 8b 35 a5 53 00 00 	mov    0x53a5(%rip),%rsi        # 7090 <arena_pos>
    1ceb:	48 89 f2             	mov    %rsi,%rdx
    1cee:	48 03 15 ab 53 00 00 	add    0x53ab(%rip),%rdx        # 70a0 <arena_ptr>
    1cf5:	48 8d 74 33 01       	lea    0x1(%rbx,%rsi,1),%rsi
    1cfa:	48 3b 35 97 53 00 00 	cmp    0x5397(%rip),%rsi        # 7098 <arena_size>
    1d01:	77 21                	ja     1d24 <ar_strndup+0x5c>
    1d03:	48 89 d9             	mov    %rbx,%rcx
    1d06:	48 89 35 83 53 00 00 	mov    %rsi,0x5383(%rip)        # 7090 <arena_pos>
    1d0d:	48 89 d7             	mov    %rdx,%rdi
    1d10:	48 89 ee             	mov    %rbp,%rsi
    1d13:	fc                   	cld    
    1d14:	f3 a4                	rep movsb %ds:(%rsi),%es:(%rdi)
    1d16:	c6 04 02 00          	movb   $0x0,(%rdx,%rax,1)
    1d1a:	48 89 d0             	mov    %rdx,%rax
    1d1d:	48 83 c4 08          	add    $0x8,%rsp
    1d21:	5b                   	pop    %rbx
    1d22:	5d                   	pop    %rbp
    1d23:	c3                   	retq   
    1d24:	48 8d 0d f5 23 00 00 	lea    0x23f5(%rip),%rcx        # 4120 <__PRETTY_FUNCTION__.2052>
    1d2b:	ba 25 00 00 00       	mov    $0x25,%edx
    1d30:	48 8d 35 71 23 00 00 	lea    0x2371(%rip),%rsi        # 40a8 <_IO_stdin_used+0xa8>
    1d37:	48 8d 3d bc 23 00 00 	lea    0x23bc(%rip),%rdi        # 40fa <_IO_stdin_used+0xfa>
    1d3e:	e8 3d f5 ff ff       	callq  1280 <__assert_fail@plt>

0000000000001d43 <tsrv_start>:
    1d43:	f3 0f 1e fa          	endbr64 
    1d47:	48 83 ec 58          	sub    $0x58,%rsp
    1d4b:	64 48 8b 04 25 28 00 	mov    %fs:0x28,%rax
    1d52:	00 00 
    1d54:	48 89 44 24 48       	mov    %rax,0x48(%rsp)
    1d59:	31 c0                	xor    %eax,%eax
    1d5b:	48 89 e2             	mov    %rsp,%rdx
    1d5e:	e8 a4 0e 00 00       	callq  2c07 <tsrv_argv_parser>
    1d63:	89 c2                	mov    %eax,%edx
    1d65:	b8 01 00 00 00       	mov    $0x1,%eax
    1d6a:	84 d2                	test   %dl,%dl
    1d6c:	0f 84 53 01 00 00    	je     1ec5 <tsrv_start+0x182>
    1d72:	48 8b 3c 24          	mov    (%rsp),%rdi
    1d76:	48 85 ff             	test   %rdi,%rdi
    1d79:	74 1b                	je     1d96 <tsrv_start+0x53>
    1d7b:	48 89 e6             	mov    %rsp,%rsi
    1d7e:	e8 c7 13 00 00       	callq  314a <tsrv_cfg_load>
    1d83:	89 c2                	mov    %eax,%edx
    1d85:	b8 01 00 00 00       	mov    $0x1,%eax
    1d8a:	f3 0f 1e fa          	endbr64 
    1d8e:	84 d2                	test   %dl,%dl
    1d90:	0f 84 2f 01 00 00    	je     1ec5 <tsrv_start+0x182>
    1d96:	48 8b 14 24          	mov    (%rsp),%rdx
    1d9a:	48 8d 35 92 23 00 00 	lea    0x2392(%rip),%rsi        # 4133 <__PRETTY_FUNCTION__.2052+0x13>
    1da1:	bf 01 00 00 00       	mov    $0x1,%edi
    1da6:	b8 00 00 00 00       	mov    $0x0,%eax
    1dab:	e8 90 f5 ff ff       	callq  1340 <__printf_chk@plt>
    1db0:	48 8b 54 24 08       	mov    0x8(%rsp),%rdx
    1db5:	48 8d 35 8b 23 00 00 	lea    0x238b(%rip),%rsi        # 4147 <__PRETTY_FUNCTION__.2052+0x27>
    1dbc:	bf 01 00 00 00       	mov    $0x1,%edi
    1dc1:	b8 00 00 00 00       	mov    $0x0,%eax
    1dc6:	e8 75 f5 ff ff       	callq  1340 <__printf_chk@plt>
    1dcb:	0f b6 54 24 10       	movzbl 0x10(%rsp),%edx
    1dd0:	48 8d 35 84 23 00 00 	lea    0x2384(%rip),%rsi        # 415b <__PRETTY_FUNCTION__.2052+0x3b>
    1dd7:	bf 01 00 00 00       	mov    $0x1,%edi
    1ddc:	b8 00 00 00 00       	mov    $0x0,%eax
    1de1:	e8 5a f5 ff ff       	callq  1340 <__printf_chk@plt>
    1de6:	48 8b 54 24 18       	mov    0x18(%rsp),%rdx
    1deb:	48 8d 35 7e 23 00 00 	lea    0x237e(%rip),%rsi        # 4170 <__PRETTY_FUNCTION__.2052+0x50>
    1df2:	bf 01 00 00 00       	mov    $0x1,%edi
    1df7:	b8 00 00 00 00       	mov    $0x0,%eax
    1dfc:	e8 3f f5 ff ff       	callq  1340 <__printf_chk@plt>
    1e01:	0f b7 54 24 20       	movzwl 0x20(%rsp),%edx
    1e06:	48 8d 35 7d 23 00 00 	lea    0x237d(%rip),%rsi        # 418a <__PRETTY_FUNCTION__.2052+0x6a>
    1e0d:	bf 01 00 00 00       	mov    $0x1,%edi
    1e12:	b8 00 00 00 00       	mov    $0x0,%eax
    1e17:	e8 24 f5 ff ff       	callq  1340 <__printf_chk@plt>
    1e1c:	0f b7 54 24 22       	movzwl 0x22(%rsp),%edx
    1e21:	48 8d 35 7c 23 00 00 	lea    0x237c(%rip),%rsi        # 41a4 <__PRETTY_FUNCTION__.2052+0x84>
    1e28:	bf 01 00 00 00       	mov    $0x1,%edi
    1e2d:	b8 00 00 00 00       	mov    $0x0,%eax
    1e32:	e8 09 f5 ff ff       	callq  1340 <__printf_chk@plt>
    1e37:	8b 54 24 24          	mov    0x24(%rsp),%edx
    1e3b:	48 8d 35 7b 23 00 00 	lea    0x237b(%rip),%rsi        # 41bd <__PRETTY_FUNCTION__.2052+0x9d>
    1e42:	bf 01 00 00 00       	mov    $0x1,%edi
    1e47:	b8 00 00 00 00       	mov    $0x0,%eax
    1e4c:	e8 ef f4 ff ff       	callq  1340 <__printf_chk@plt>
    1e51:	48 8b 54 24 28       	mov    0x28(%rsp),%rdx
    1e56:	48 8d 35 78 23 00 00 	lea    0x2378(%rip),%rsi        # 41d5 <__PRETTY_FUNCTION__.2052+0xb5>
    1e5d:	bf 01 00 00 00       	mov    $0x1,%edi
    1e62:	b8 00 00 00 00       	mov    $0x0,%eax
    1e67:	e8 d4 f4 ff ff       	callq  1340 <__printf_chk@plt>
    1e6c:	48 8b 54 24 30       	mov    0x30(%rsp),%rdx
    1e71:	48 8d 35 72 23 00 00 	lea    0x2372(%rip),%rsi        # 41ea <__PRETTY_FUNCTION__.2052+0xca>
    1e78:	bf 01 00 00 00       	mov    $0x1,%edi
    1e7d:	b8 00 00 00 00       	mov    $0x0,%eax
    1e82:	e8 b9 f4 ff ff       	callq  1340 <__printf_chk@plt>
    1e87:	48 8b 54 24 38       	mov    0x38(%rsp),%rdx
    1e8c:	48 8d 35 6d 23 00 00 	lea    0x236d(%rip),%rsi        # 4200 <__PRETTY_FUNCTION__.2052+0xe0>
    1e93:	bf 01 00 00 00       	mov    $0x1,%edi
    1e98:	b8 00 00 00 00       	mov    $0x0,%eax
    1e9d:	e8 9e f4 ff ff       	callq  1340 <__printf_chk@plt>
    1ea2:	0f b7 54 24 40       	movzwl 0x40(%rsp),%edx
    1ea7:	48 8d 35 70 23 00 00 	lea    0x2370(%rip),%rsi        # 421e <__PRETTY_FUNCTION__.2052+0xfe>
    1eae:	bf 01 00 00 00       	mov    $0x1,%edi
    1eb3:	b8 00 00 00 00       	mov    $0x0,%eax
    1eb8:	e8 83 f4 ff ff       	callq  1340 <__printf_chk@plt>
    1ebd:	48 89 e7             	mov    %rsp,%rdi
    1ec0:	e8 1a 00 00 00       	callq  1edf <tsrv_run>
    1ec5:	48 8b 4c 24 48       	mov    0x48(%rsp),%rcx
    1eca:	64 48 33 0c 25 28 00 	xor    %fs:0x28,%rcx
    1ed1:	00 00 
    1ed3:	75 05                	jne    1eda <tsrv_start+0x197>
    1ed5:	48 83 c4 58          	add    $0x58,%rsp
    1ed9:	c3                   	retq   
    1eda:	e8 71 f3 ff ff       	callq  1250 <__stack_chk_fail@plt>

0000000000001edf <tsrv_run>:
    1edf:	f3 0f 1e fa          	endbr64 
    1ee3:	41 57                	push   %r15
    1ee5:	41 56                	push   %r14
    1ee7:	41 55                	push   %r13
    1ee9:	41 54                	push   %r12
    1eeb:	55                   	push   %rbp
    1eec:	53                   	push   %rbx
    1eed:	48 83 ec 58          	sub    $0x58,%rsp
    1ef1:	64 48 8b 04 25 28 00 	mov    %fs:0x28,%rax
    1ef8:	00 00 
    1efa:	48 89 44 24 48       	mov    %rax,0x48(%rsp)
    1eff:	31 c0                	xor    %eax,%eax
    1f01:	48 83 7f 08 00       	cmpq   $0x0,0x8(%rdi)
    1f06:	0f 84 9d 00 00 00    	je     1fa9 <tsrv_run+0xca>
    1f0c:	48 89 fb             	mov    %rdi,%rbx
    1f0f:	48 83 7f 28 00       	cmpq   $0x0,0x28(%rdi)
    1f14:	0f 84 ac 00 00 00    	je     1fc6 <tsrv_run+0xe7>
    1f1a:	48 83 7f 30 00       	cmpq   $0x0,0x30(%rdi)
    1f1f:	0f 84 c3 00 00 00    	je     1fe8 <tsrv_run+0x109>
    1f25:	48 83 7f 38 00       	cmpq   $0x0,0x38(%rdi)
    1f2a:	0f 84 d7 00 00 00    	je     2007 <tsrv_run+0x128>
    1f30:	66 83 7f 40 00       	cmpw   $0x0,0x40(%rdi)
    1f35:	0f 84 eb 00 00 00    	je     2026 <tsrv_run+0x147>
    1f3b:	0f b6 4f 10          	movzbl 0x10(%rdi),%ecx
    1f3f:	8d 41 ff             	lea    -0x1(%rcx),%eax
    1f42:	3c 01                	cmp    $0x1,%al
    1f44:	0f 87 fb 00 00 00    	ja     2045 <tsrv_run+0x166>
    1f4a:	48 83 7f 18 00       	cmpq   $0x0,0x18(%rdi)
    1f4f:	0f 84 48 01 00 00    	je     209d <tsrv_run+0x1be>
    1f55:	66 83 7f 20 00       	cmpw   $0x0,0x20(%rdi)
    1f5a:	0f 84 5c 01 00 00    	je     20bc <tsrv_run+0x1dd>
    1f60:	66 83 7f 22 00       	cmpw   $0x0,0x22(%rdi)
    1f65:	0f 84 70 01 00 00    	je     20db <tsrv_run+0x1fc>
    1f6b:	0f b6 57 10          	movzbl 0x10(%rdi),%edx
    1f6f:	80 fa 01             	cmp    $0x1,%dl
    1f72:	0f 84 85 01 00 00    	je     20fd <tsrv_run+0x21e>
    1f78:	80 fa 02             	cmp    $0x2,%dl
    1f7b:	0f 84 d1 08 00 00    	je     2852 <tsrv_run+0x973>
    1f81:	0f b6 d2             	movzbl %dl,%edx
    1f84:	48 8d 35 d4 23 00 00 	lea    0x23d4(%rip),%rsi        # 435f <__PRETTY_FUNCTION__.2052+0x23f>
    1f8b:	bf 01 00 00 00       	mov    $0x1,%edi
    1f90:	b8 00 00 00 00       	mov    $0x0,%eax
    1f95:	e8 a6 f3 ff ff       	callq  1340 <__printf_chk@plt>
    1f9a:	41 bd 01 00 00 00    	mov    $0x1,%r13d
    1fa0:	f3 0f 1e fa          	endbr64 
    1fa4:	e9 ce 00 00 00       	jmpq   2077 <tsrv_run+0x198>
    1fa9:	48 8d 15 8b 22 00 00 	lea    0x228b(%rip),%rdx        # 423b <__PRETTY_FUNCTION__.2052+0x11b>
    1fb0:	48 8d 35 c1 23 00 00 	lea    0x23c1(%rip),%rsi        # 4378 <__PRETTY_FUNCTION__.2052+0x258>
    1fb7:	bf 01 00 00 00       	mov    $0x1,%edi
    1fbc:	e8 7f f3 ff ff       	callq  1340 <__printf_chk@plt>
    1fc1:	e9 ab 00 00 00       	jmpq   2071 <tsrv_run+0x192>
    1fc6:	48 8d 15 6e 22 00 00 	lea    0x226e(%rip),%rdx        # 423b <__PRETTY_FUNCTION__.2052+0x11b>
    1fcd:	48 8d 35 cc 23 00 00 	lea    0x23cc(%rip),%rsi        # 43a0 <__PRETTY_FUNCTION__.2052+0x280>
    1fd4:	bf 01 00 00 00       	mov    $0x1,%edi
    1fd9:	b8 00 00 00 00       	mov    $0x0,%eax
    1fde:	e8 5d f3 ff ff       	callq  1340 <__printf_chk@plt>
    1fe3:	e9 89 00 00 00       	jmpq   2071 <tsrv_run+0x192>
    1fe8:	48 8d 15 4c 22 00 00 	lea    0x224c(%rip),%rdx        # 423b <__PRETTY_FUNCTION__.2052+0x11b>
    1fef:	48 8d 35 d2 23 00 00 	lea    0x23d2(%rip),%rsi        # 43c8 <__PRETTY_FUNCTION__.2052+0x2a8>
    1ff6:	bf 01 00 00 00       	mov    $0x1,%edi
    1ffb:	b8 00 00 00 00       	mov    $0x0,%eax
    2000:	e8 3b f3 ff ff       	callq  1340 <__printf_chk@plt>
    2005:	eb 6a                	jmp    2071 <tsrv_run+0x192>
    2007:	48 8d 15 2d 22 00 00 	lea    0x222d(%rip),%rdx        # 423b <__PRETTY_FUNCTION__.2052+0x11b>
    200e:	48 8d 35 db 23 00 00 	lea    0x23db(%rip),%rsi        # 43f0 <__PRETTY_FUNCTION__.2052+0x2d0>
    2015:	bf 01 00 00 00       	mov    $0x1,%edi
    201a:	b8 00 00 00 00       	mov    $0x0,%eax
    201f:	e8 1c f3 ff ff       	callq  1340 <__printf_chk@plt>
    2024:	eb 4b                	jmp    2071 <tsrv_run+0x192>
    2026:	48 8d 15 0e 22 00 00 	lea    0x220e(%rip),%rdx        # 423b <__PRETTY_FUNCTION__.2052+0x11b>
    202d:	48 8d 35 ec 23 00 00 	lea    0x23ec(%rip),%rsi        # 4420 <__PRETTY_FUNCTION__.2052+0x300>
    2034:	bf 01 00 00 00       	mov    $0x1,%edi
    2039:	b8 00 00 00 00       	mov    $0x0,%eax
    203e:	e8 fd f2 ff ff       	callq  1340 <__printf_chk@plt>
    2043:	eb 2c                	jmp    2071 <tsrv_run+0x192>
    2045:	0f b6 c9             	movzbl %cl,%ecx
    2048:	41 b9 02 00 00 00    	mov    $0x2,%r9d
    204e:	41 b8 01 00 00 00    	mov    $0x1,%r8d
    2054:	48 8d 15 e0 21 00 00 	lea    0x21e0(%rip),%rdx        # 423b <__PRETTY_FUNCTION__.2052+0x11b>
    205b:	48 8d 35 e6 23 00 00 	lea    0x23e6(%rip),%rsi        # 4448 <__PRETTY_FUNCTION__.2052+0x328>
    2062:	bf 01 00 00 00       	mov    $0x1,%edi
    2067:	b8 00 00 00 00       	mov    $0x0,%eax
    206c:	e8 cf f2 ff ff       	callq  1340 <__printf_chk@plt>
    2071:	41 bd 01 00 00 00    	mov    $0x1,%r13d
    2077:	48 8b 44 24 48       	mov    0x48(%rsp),%rax
    207c:	64 48 33 04 25 28 00 	xor    %fs:0x28,%rax
    2083:	00 00 
    2085:	0f 85 03 08 00 00    	jne    288e <tsrv_run+0x9af>
    208b:	44 89 e8             	mov    %r13d,%eax
    208e:	48 83 c4 58          	add    $0x58,%rsp
    2092:	5b                   	pop    %rbx
    2093:	5d                   	pop    %rbp
    2094:	41 5c                	pop    %r12
    2096:	41 5d                	pop    %r13
    2098:	41 5e                	pop    %r14
    209a:	41 5f                	pop    %r15
    209c:	c3                   	retq   
    209d:	48 8d 15 97 21 00 00 	lea    0x2197(%rip),%rdx        # 423b <__PRETTY_FUNCTION__.2052+0x11b>
    20a4:	48 8d 35 ed 23 00 00 	lea    0x23ed(%rip),%rsi        # 4498 <__PRETTY_FUNCTION__.2052+0x378>
    20ab:	bf 01 00 00 00       	mov    $0x1,%edi
    20b0:	b8 00 00 00 00       	mov    $0x0,%eax
    20b5:	e8 86 f2 ff ff       	callq  1340 <__printf_chk@plt>
    20ba:	eb b5                	jmp    2071 <tsrv_run+0x192>
    20bc:	48 8d 15 78 21 00 00 	lea    0x2178(%rip),%rdx        # 423b <__PRETTY_FUNCTION__.2052+0x11b>
    20c3:	48 8d 35 fe 23 00 00 	lea    0x23fe(%rip),%rsi        # 44c8 <__PRETTY_FUNCTION__.2052+0x3a8>
    20ca:	bf 01 00 00 00       	mov    $0x1,%edi
    20cf:	b8 00 00 00 00       	mov    $0x0,%eax
    20d4:	e8 67 f2 ff ff       	callq  1340 <__printf_chk@plt>
    20d9:	eb 96                	jmp    2071 <tsrv_run+0x192>
    20db:	48 8d 15 59 21 00 00 	lea    0x2159(%rip),%rdx        # 423b <__PRETTY_FUNCTION__.2052+0x11b>
    20e2:	48 8d 35 07 24 00 00 	lea    0x2407(%rip),%rsi        # 44f0 <__PRETTY_FUNCTION__.2052+0x3d0>
    20e9:	bf 01 00 00 00       	mov    $0x1,%edi
    20ee:	b8 00 00 00 00       	mov    $0x0,%eax
    20f3:	e8 48 f2 ff ff       	callq  1340 <__printf_chk@plt>
    20f8:	e9 74 ff ff ff       	jmpq   2071 <tsrv_run+0x192>
    20fd:	44 0f b7 73 22       	movzwl 0x22(%rbx),%r14d
    2102:	c7 44 24 20 ff ff ff 	movl   $0xffffffff,0x20(%rsp)
    2109:	ff 
    210a:	c7 44 24 24 ff ff ff 	movl   $0xffffffff,0x24(%rsp)
    2111:	ff 
    2112:	c7 44 24 28 ff ff ff 	movl   $0xffffffff,0x28(%rsp)
    2119:	ff 
    211a:	48 89 5c 24 30       	mov    %rbx,0x30(%rsp)
    211f:	c6 44 24 40 00       	movb   $0x0,0x40(%rsp)
    2124:	41 0f b7 fe          	movzwl %r14w,%edi
    2128:	48 69 ff a0 21 00 00 	imul   $0x21a0,%rdi,%rdi
    212f:	e8 ec f1 ff ff       	callq  1320 <malloc@plt>
    2134:	49 89 c7             	mov    %rax,%r15
    2137:	48 89 44 24 38       	mov    %rax,0x38(%rsp)
    213c:	66 45 85 f6          	test   %r14w,%r14w
    2140:	0f 84 2d 07 00 00    	je     2873 <tsrv_run+0x994>
    2146:	48 8d 50 48          	lea    0x48(%rax),%rdx
    214a:	41 8d 46 ff          	lea    -0x1(%r14),%eax
    214e:	0f b7 c0             	movzwl %ax,%eax
    2151:	48 69 c0 a0 21 00 00 	imul   $0x21a0,%rax,%rax
    2158:	49 8d b4 07 e8 21 00 	lea    0x21e8(%r15,%rax,1),%rsi
    215f:	00 
    2160:	b8 00 00 00 00       	mov    $0x0,%eax
    2165:	c6 42 b8 00          	movb   $0x0,-0x48(%rdx)
    2169:	c6 42 b9 00          	movb   $0x0,-0x47(%rdx)
    216d:	c6 42 ba 00          	movb   $0x0,-0x46(%rdx)
    2171:	c6 42 bb 00          	movb   $0x0,-0x45(%rdx)
    2175:	c7 42 bc ff ff ff ff 	movl   $0xffffffff,-0x44(%rdx)
    217c:	c7 42 c0 ff ff ff ff 	movl   $0xffffffff,-0x40(%rdx)
    2183:	c7 42 f8 00 00 00 00 	movl   $0x0,-0x8(%rdx)
    218a:	c7 42 fc 00 00 00 00 	movl   $0x0,-0x4(%rdx)
    2191:	48 c7 02 00 00 00 00 	movq   $0x0,(%rdx)
    2198:	48 c7 82 f7 00 00 00 	movq   $0x0,0xf7(%rdx)
    219f:	00 00 00 00 
    21a3:	48 8d 7a 08          	lea    0x8(%rdx),%rdi
    21a7:	48 83 e7 f8          	and    $0xfffffffffffffff8,%rdi
    21ab:	48 89 d1             	mov    %rdx,%rcx
    21ae:	48 29 f9             	sub    %rdi,%rcx
    21b1:	81 c1 ff 00 00 00    	add    $0xff,%ecx
    21b7:	c1 e9 03             	shr    $0x3,%ecx
    21ba:	89 c9                	mov    %ecx,%ecx
    21bc:	f3 48 ab             	rep stos %rax,%es:(%rdi)
    21bf:	48 c7 82 ff 00 00 00 	movq   $0x0,0xff(%rdx)
    21c6:	00 00 00 00 
    21ca:	48 c7 82 07 01 00 00 	movq   $0x0,0x107(%rdx)
    21d1:	00 00 00 00 
    21d5:	c7 82 0f 01 00 00 00 	movl   $0x0,0x10f(%rdx)
    21dc:	00 00 00 
    21df:	c6 82 13 01 00 00 00 	movb   $0x0,0x113(%rdx)
    21e6:	48 c7 82 14 01 00 00 	movq   $0x0,0x114(%rdx)
    21ed:	00 00 00 00 
    21f1:	48 c7 82 1c 01 00 00 	movq   $0x0,0x11c(%rdx)
    21f8:	00 00 00 00 
    21fc:	48 c7 82 24 01 00 00 	movq   $0x0,0x124(%rdx)
    2203:	00 00 00 00 
    2207:	48 c7 82 1c 11 00 00 	movq   $0x0,0x111c(%rdx)
    220e:	00 00 00 00 
    2212:	48 8d ba 2c 01 00 00 	lea    0x12c(%rdx),%rdi
    2219:	48 83 e7 f8          	and    $0xfffffffffffffff8,%rdi
    221d:	89 d1                	mov    %edx,%ecx
    221f:	29 f9                	sub    %edi,%ecx
    2221:	8d 89 24 11 00 00    	lea    0x1124(%rcx),%ecx
    2227:	c1 e9 03             	shr    $0x3,%ecx
    222a:	89 c9                	mov    %ecx,%ecx
    222c:	f3 48 ab             	rep stos %rax,%es:(%rdi)
    222f:	48 c7 82 28 11 00 00 	movq   $0x0,0x1128(%rdx)
    2236:	00 00 00 00 
    223a:	48 c7 82 30 11 00 00 	movq   $0x0,0x1130(%rdx)
    2241:	00 00 00 00 
    2245:	c6 82 38 11 00 00 00 	movb   $0x0,0x1138(%rdx)
    224c:	48 c7 82 39 11 00 00 	movq   $0x0,0x1139(%rdx)
    2253:	00 00 00 00 
    2257:	48 c7 82 31 21 00 00 	movq   $0x0,0x2131(%rdx)
    225e:	00 00 00 00 
    2262:	48 8d ba 41 11 00 00 	lea    0x1141(%rdx),%rdi
    2269:	48 83 e7 f8          	and    $0xfffffffffffffff8,%rdi
    226d:	89 d1                	mov    %edx,%ecx
    226f:	29 f9                	sub    %edi,%ecx
    2271:	8d 89 39 21 00 00    	lea    0x2139(%rcx),%ecx
    2277:	c1 e9 03             	shr    $0x3,%ecx
    227a:	89 c9                	mov    %ecx,%ecx
    227c:	f3 48 ab             	rep stos %rax,%es:(%rdi)
    227f:	48 c7 82 40 21 00 00 	movq   $0x0,0x2140(%rdx)
    2286:	00 00 00 00 
    228a:	48 c7 82 48 21 00 00 	movq   $0x0,0x2148(%rdx)
    2291:	00 00 00 00 
    2295:	c6 82 50 21 00 00 00 	movb   $0x0,0x2150(%rdx)
    229c:	48 81 c2 a0 21 00 00 	add    $0x21a0,%rdx
    22a3:	48 39 f2             	cmp    %rsi,%rdx
    22a6:	0f 85 b9 fe ff ff    	jne    2165 <tsrv_run+0x286>
    22ac:	48 8d 35 a5 23 00 00 	lea    0x23a5(%rip),%rsi        # 4658 <__PRETTY_FUNCTION__.2052+0x538>
    22b3:	bf 01 00 00 00       	mov    $0x1,%edi
    22b8:	b8 00 00 00 00       	mov    $0x0,%eax
    22bd:	e8 7e f0 ff ff       	callq  1340 <__printf_chk@plt>
    22c2:	4d 8d 6f 04          	lea    0x4(%r15),%r13
    22c6:	41 bc 00 00 00 00    	mov    $0x0,%r12d
    22cc:	66 44 89 24 24       	mov    %r12w,(%rsp)
    22d1:	44 89 64 24 0c       	mov    %r12d,0xc(%rsp)
    22d6:	44 89 e2             	mov    %r12d,%edx
    22d9:	48 8d 35 38 22 00 00 	lea    0x2238(%rip),%rsi        # 4518 <__PRETTY_FUNCTION__.2052+0x3f8>
    22e0:	bf 01 00 00 00       	mov    $0x1,%edi
    22e5:	b8 00 00 00 00       	mov    $0x0,%eax
    22ea:	e8 51 f0 ff ff       	callq  1340 <__printf_chk@plt>
    22ef:	48 8b 7b 28          	mov    0x28(%rbx),%rdi
    22f3:	be 01 01 00 00       	mov    $0x101,%esi
    22f8:	e8 eb f6 ff ff       	callq  19e8 <tun_alloc>
    22fd:	89 c5                	mov    %eax,%ebp
    22ff:	85 c0                	test   %eax,%eax
    2301:	0f 88 49 01 00 00    	js     2450 <tsrv_run+0x571>
    2307:	89 c7                	mov    %eax,%edi
    2309:	e8 9c f6 ff ff       	callq  19aa <fd_set_nonblock>
    230e:	85 c0                	test   %eax,%eax
    2310:	0f 88 cb 01 00 00    	js     24e1 <tsrv_run+0x602>
    2316:	be 00 00 00 00       	mov    $0x0,%esi
    231b:	89 ef                	mov    %ebp,%edi
    231d:	e8 09 f8 ff ff       	callq  1b2b <tun_set_queue>
    2322:	85 c0                	test   %eax,%eax
    2324:	0f 88 e8 01 00 00    	js     2512 <tsrv_run+0x633>
    232a:	41 89 6d 00          	mov    %ebp,0x0(%r13)
    232e:	41 83 c4 01          	add    $0x1,%r12d
    2332:	49 81 c5 a0 21 00 00 	add    $0x21a0,%r13
    2339:	66 45 39 e6          	cmp    %r12w,%r14w
    233d:	77 8d                	ja     22cc <tsrv_run+0x3ed>
    233f:	48 8b 44 24 30       	mov    0x30(%rsp),%rax
    2344:	48 8b 68 18          	mov    0x18(%rax),%rbp
    2348:	44 0f b7 60 20       	movzwl 0x20(%rax),%r12d
    234d:	44 8b 68 24          	mov    0x24(%rax),%r13d
    2351:	48 85 ed             	test   %rbp,%rbp
    2354:	48 8d 05 d8 1e 00 00 	lea    0x1ed8(%rip),%rax        # 4233 <__PRETTY_FUNCTION__.2052+0x113>
    235b:	48 0f 44 e8          	cmove  %rax,%rbp
    235f:	48 8d 35 4f 1f 00 00 	lea    0x1f4f(%rip),%rsi        # 42b5 <__PRETTY_FUNCTION__.2052+0x195>
    2366:	bf 01 00 00 00       	mov    $0x1,%edi
    236b:	b8 00 00 00 00       	mov    $0x0,%eax
    2370:	e8 cb ef ff ff       	callq  1340 <__printf_chk@plt>
    2375:	ba 00 00 00 00       	mov    $0x0,%edx
    237a:	be 01 08 00 00       	mov    $0x801,%esi
    237f:	bf 02 00 00 00       	mov    $0x2,%edi
    2384:	e8 27 f0 ff ff       	callq  13b0 <socket@plt>
    2389:	89 c3                	mov    %eax,%ebx
    238b:	85 c0                	test   %eax,%eax
    238d:	0f 88 1d 02 00 00    	js     25b0 <tsrv_run+0x6d1>
    2393:	89 da                	mov    %ebx,%edx
    2395:	48 8d 35 ec 21 00 00 	lea    0x21ec(%rip),%rsi        # 4588 <__PRETTY_FUNCTION__.2052+0x468>
    239c:	bf 01 00 00 00       	mov    $0x1,%edi
    23a1:	b8 00 00 00 00       	mov    $0x0,%eax
    23a6:	e8 95 ef ff ff       	callq  1340 <__printf_chk@plt>
    23ab:	4c 8d 7c 24 10       	lea    0x10(%rsp),%r15
    23b0:	48 c7 44 24 10 00 00 	movq   $0x0,0x10(%rsp)
    23b7:	00 00 
    23b9:	48 c7 44 24 18 00 00 	movq   $0x0,0x18(%rsp)
    23c0:	00 00 
    23c2:	66 c7 44 24 10 02 00 	movw   $0x2,0x10(%rsp)
    23c9:	45 0f b7 f4          	movzwl %r12w,%r14d
    23cd:	66 41 c1 c4 08       	rol    $0x8,%r12w
    23d2:	66 44 89 64 24 12    	mov    %r12w,0x12(%rsp)
    23d8:	48 89 ef             	mov    %rbp,%rdi
    23db:	e8 00 ef ff ff       	callq  12e0 <inet_addr@plt>
    23e0:	89 44 24 14          	mov    %eax,0x14(%rsp)
    23e4:	ba 10 00 00 00       	mov    $0x10,%edx
    23e9:	4c 89 fe             	mov    %r15,%rsi
    23ec:	89 df                	mov    %ebx,%edi
    23ee:	e8 5d ef ff ff       	callq  1350 <bind@plt>
    23f3:	85 c0                	test   %eax,%eax
    23f5:	0f 88 df 01 00 00    	js     25da <tsrv_run+0x6fb>
    23fb:	44 89 ee             	mov    %r13d,%esi
    23fe:	89 df                	mov    %ebx,%edi
    2400:	e8 2b ef ff ff       	callq  1330 <listen@plt>
    2405:	85 c0                	test   %eax,%eax
    2407:	0f 88 1c 02 00 00    	js     2629 <tsrv_run+0x74a>
    240d:	44 89 f1             	mov    %r14d,%ecx
    2410:	48 89 ea             	mov    %rbp,%rdx
    2413:	48 8d 35 d5 1e 00 00 	lea    0x1ed5(%rip),%rsi        # 42ef <__PRETTY_FUNCTION__.2052+0x1cf>
    241a:	bf 01 00 00 00       	mov    $0x1,%edi
    241f:	b8 00 00 00 00       	mov    $0x0,%eax
    2424:	e8 17 ef ff ff       	callq  1340 <__printf_chk@plt>
    2429:	89 5c 24 20          	mov    %ebx,0x20(%rsp)
    242d:	48 8d 7c 24 24       	lea    0x24(%rsp),%rdi
    2432:	e8 89 ee ff ff       	callq  12c0 <pipe@plt>
    2437:	83 f8 ff             	cmp    $0xffffffff,%eax
    243a:	0f 84 10 02 00 00    	je     2650 <tsrv_run+0x771>
    2440:	41 bd 01 00 00 00    	mov    $0x1,%r13d
    2446:	41 83 f5 01          	xor    $0x1,%r13d
    244a:	45 0f b6 ed          	movzbl %r13b,%r13d
    244e:	eb 2b                	jmp    247b <tsrv_run+0x59c>
    2450:	8b 54 24 0c          	mov    0xc(%rsp),%edx
    2454:	48 8d 35 dd 20 00 00 	lea    0x20dd(%rip),%rsi        # 4538 <__PRETTY_FUNCTION__.2052+0x418>
    245b:	bf 01 00 00 00       	mov    $0x1,%edi
    2460:	b8 00 00 00 00       	mov    $0x0,%eax
    2465:	e8 d6 ee ff ff       	callq  1340 <__printf_chk@plt>
    246a:	66 83 3c 24 00       	cmpw   $0x0,(%rsp)
    246f:	0f 85 ce 00 00 00    	jne    2543 <tsrv_run+0x664>
    2475:	41 bd 01 00 00 00    	mov    $0x1,%r13d
    247b:	48 8b 44 24 38       	mov    0x38(%rsp),%rax
    2480:	48 89 04 24          	mov    %rax,(%rsp)
    2484:	48 8b 44 24 30       	mov    0x30(%rsp),%rax
    2489:	44 0f b7 70 22       	movzwl 0x22(%rax),%r14d
    248e:	8b 54 24 20          	mov    0x20(%rsp),%edx
    2492:	83 fa ff             	cmp    $0xffffffff,%edx
    2495:	0f 85 e5 01 00 00    	jne    2680 <tsrv_run+0x7a1>
    249b:	8b 54 24 24          	mov    0x24(%rsp),%edx
    249f:	83 fa ff             	cmp    $0xffffffff,%edx
    24a2:	0f 85 2a 02 00 00    	jne    26d2 <tsrv_run+0x7f3>
    24a8:	8b 54 24 28          	mov    0x28(%rsp),%edx
    24ac:	83 fa ff             	cmp    $0xffffffff,%edx
    24af:	0f 85 6f 02 00 00    	jne    2724 <tsrv_run+0x845>
    24b5:	48 8b 04 24          	mov    (%rsp),%rax
    24b9:	48 8d 58 18          	lea    0x18(%rax),%rbx
    24bd:	bd 00 00 00 00       	mov    $0x0,%ebp
    24c2:	4c 8d 3d 17 21 00 00 	lea    0x2117(%rip),%r15        # 45e0 <__PRETTY_FUNCTION__.2052+0x4c0>
    24c9:	66 45 85 f6          	test   %r14w,%r14w
    24cd:	0f 85 14 03 00 00    	jne    27e7 <tsrv_run+0x908>
    24d3:	48 8b 3c 24          	mov    (%rsp),%rdi
    24d7:	e8 24 ed ff ff       	callq  1200 <free@plt>
    24dc:	e9 96 fb ff ff       	jmpq   2077 <tsrv_run+0x198>
    24e1:	e8 2a ed ff ff       	callq  1210 <__errno_location@plt>
    24e6:	8b 38                	mov    (%rax),%edi
    24e8:	e8 93 ee ff ff       	callq  1380 <strerror@plt>
    24ed:	48 89 c2             	mov    %rax,%rdx
    24f0:	48 8d 35 53 1d 00 00 	lea    0x1d53(%rip),%rsi        # 424a <__PRETTY_FUNCTION__.2052+0x12a>
    24f7:	bf 01 00 00 00       	mov    $0x1,%edi
    24fc:	b8 00 00 00 00       	mov    $0x0,%eax
    2501:	e8 3a ee ff ff       	callq  1340 <__printf_chk@plt>
    2506:	89 ef                	mov    %ebp,%edi
    2508:	e8 a3 ed ff ff       	callq  12b0 <close@plt>
    250d:	e9 58 ff ff ff       	jmpq   246a <tsrv_run+0x58b>
    2512:	e8 f9 ec ff ff       	callq  1210 <__errno_location@plt>
    2517:	8b 38                	mov    (%rax),%edi
    2519:	e8 62 ee ff ff       	callq  1380 <strerror@plt>
    251e:	48 89 c2             	mov    %rax,%rdx
    2521:	48 8d 35 3f 1d 00 00 	lea    0x1d3f(%rip),%rsi        # 4267 <__PRETTY_FUNCTION__.2052+0x147>
    2528:	bf 01 00 00 00       	mov    $0x1,%edi
    252d:	b8 00 00 00 00       	mov    $0x0,%eax
    2532:	e8 09 ee ff ff       	callq  1340 <__printf_chk@plt>
    2537:	89 ef                	mov    %ebp,%edi
    2539:	e8 72 ed ff ff       	callq  12b0 <close@plt>
    253e:	e9 27 ff ff ff       	jmpq   246a <tsrv_run+0x58b>
    2543:	48 8d 35 38 1d 00 00 	lea    0x1d38(%rip),%rsi        # 4282 <__PRETTY_FUNCTION__.2052+0x162>
    254a:	bf 01 00 00 00       	mov    $0x1,%edi
    254f:	b8 00 00 00 00       	mov    $0x0,%eax
    2554:	e8 e7 ed ff ff       	callq  1340 <__printf_chk@plt>
    2559:	0f b7 04 24          	movzwl (%rsp),%eax
    255d:	83 e8 01             	sub    $0x1,%eax
    2560:	0f b7 d8             	movzwl %ax,%ebx
    2563:	0f b7 c0             	movzwl %ax,%eax
    2566:	48 69 c0 a0 21 00 00 	imul   $0x21a0,%rax,%rax
    256d:	49 01 c7             	add    %rax,%r15
    2570:	48 8d 2d 28 1d 00 00 	lea    0x1d28(%rip),%rbp        # 429f <__PRETTY_FUNCTION__.2052+0x17f>
    2577:	89 da                	mov    %ebx,%edx
    2579:	48 89 ee             	mov    %rbp,%rsi
    257c:	bf 01 00 00 00       	mov    $0x1,%edi
    2581:	b8 00 00 00 00       	mov    $0x0,%eax
    2586:	e8 b5 ed ff ff       	callq  1340 <__printf_chk@plt>
    258b:	41 8b 7f 04          	mov    0x4(%r15),%edi
    258f:	e8 1c ed ff ff       	callq  12b0 <close@plt>
    2594:	41 c7 47 04 ff ff ff 	movl   $0xffffffff,0x4(%r15)
    259b:	ff 
    259c:	83 eb 01             	sub    $0x1,%ebx
    259f:	49 81 ef a0 21 00 00 	sub    $0x21a0,%r15
    25a6:	83 fb ff             	cmp    $0xffffffff,%ebx
    25a9:	75 cc                	jne    2577 <tsrv_run+0x698>
    25ab:	e9 c5 fe ff ff       	jmpq   2475 <tsrv_run+0x596>
    25b0:	e8 5b ec ff ff       	callq  1210 <__errno_location@plt>
    25b5:	8b 38                	mov    (%rax),%edi
    25b7:	e8 c4 ed ff ff       	callq  1380 <strerror@plt>
    25bc:	48 89 c2             	mov    %rax,%rdx
    25bf:	48 8d 35 a2 1f 00 00 	lea    0x1fa2(%rip),%rsi        # 4568 <__PRETTY_FUNCTION__.2052+0x448>
    25c6:	bf 01 00 00 00       	mov    $0x1,%edi
    25cb:	b8 00 00 00 00       	mov    $0x0,%eax
    25d0:	e8 6b ed ff ff       	callq  1340 <__printf_chk@plt>
    25d5:	e9 53 fe ff ff       	jmpq   242d <tsrv_run+0x54e>
    25da:	e8 31 ec ff ff       	callq  1210 <__errno_location@plt>
    25df:	8b 38                	mov    (%rax),%edi
    25e1:	e8 9a ed ff ff       	callq  1380 <strerror@plt>
    25e6:	48 89 c2             	mov    %rax,%rdx
    25e9:	48 8d 35 dd 1c 00 00 	lea    0x1cdd(%rip),%rsi        # 42cd <__PRETTY_FUNCTION__.2052+0x1ad>
    25f0:	bf 01 00 00 00       	mov    $0x1,%edi
    25f5:	b8 00 00 00 00       	mov    $0x0,%eax
    25fa:	e8 41 ed ff ff       	callq  1340 <__printf_chk@plt>
    25ff:	89 da                	mov    %ebx,%edx
    2601:	48 8d 35 b0 1f 00 00 	lea    0x1fb0(%rip),%rsi        # 45b8 <__PRETTY_FUNCTION__.2052+0x498>
    2608:	bf 01 00 00 00       	mov    $0x1,%edi
    260d:	b8 00 00 00 00       	mov    $0x0,%eax
    2612:	e8 29 ed ff ff       	callq  1340 <__printf_chk@plt>
    2617:	89 df                	mov    %ebx,%edi
    2619:	e8 92 ec ff ff       	callq  12b0 <close@plt>
    261e:	41 bd 01 00 00 00    	mov    $0x1,%r13d
    2624:	e9 52 fe ff ff       	jmpq   247b <tsrv_run+0x59c>
    2629:	e8 e2 eb ff ff       	callq  1210 <__errno_location@plt>
    262e:	8b 38                	mov    (%rax),%edi
    2630:	e8 4b ed ff ff       	callq  1380 <strerror@plt>
    2635:	48 89 c2             	mov    %rax,%rdx
    2638:	48 8d 35 9e 1c 00 00 	lea    0x1c9e(%rip),%rsi        # 42dd <__PRETTY_FUNCTION__.2052+0x1bd>
    263f:	bf 01 00 00 00       	mov    $0x1,%edi
    2644:	b8 00 00 00 00       	mov    $0x0,%eax
    2649:	e8 f2 ec ff ff       	callq  1340 <__printf_chk@plt>
    264e:	eb af                	jmp    25ff <tsrv_run+0x720>
    2650:	e8 bb eb ff ff       	callq  1210 <__errno_location@plt>
    2655:	8b 38                	mov    (%rax),%edi
    2657:	e8 24 ed ff ff       	callq  1380 <strerror@plt>
    265c:	48 89 c2             	mov    %rax,%rdx
    265f:	48 8d 35 a0 1c 00 00 	lea    0x1ca0(%rip),%rsi        # 4306 <__PRETTY_FUNCTION__.2052+0x1e6>
    2666:	bf 01 00 00 00       	mov    $0x1,%edi
    266b:	b8 00 00 00 00       	mov    $0x0,%eax
    2670:	e8 cb ec ff ff       	callq  1340 <__printf_chk@plt>
    2675:	41 bd 00 00 00 00    	mov    $0x0,%r13d
    267b:	e9 c6 fd ff ff       	jmpq   2446 <tsrv_run+0x567>
    2680:	48 8d 35 31 1f 00 00 	lea    0x1f31(%rip),%rsi        # 45b8 <__PRETTY_FUNCTION__.2052+0x498>
    2687:	bf 01 00 00 00       	mov    $0x1,%edi
    268c:	b8 00 00 00 00       	mov    $0x0,%eax
    2691:	e8 aa ec ff ff       	callq  1340 <__printf_chk@plt>
    2696:	8b 7c 24 20          	mov    0x20(%rsp),%edi
    269a:	e8 11 ec ff ff       	callq  12b0 <close@plt>
    269f:	83 f8 ff             	cmp    $0xffffffff,%eax
    26a2:	0f 85 f3 fd ff ff    	jne    249b <tsrv_run+0x5bc>
    26a8:	e8 63 eb ff ff       	callq  1210 <__errno_location@plt>
    26ad:	8b 38                	mov    (%rax),%edi
    26af:	e8 cc ec ff ff       	callq  1380 <strerror@plt>
    26b4:	48 89 c2             	mov    %rax,%rdx
    26b7:	48 8d 35 58 1c 00 00 	lea    0x1c58(%rip),%rsi        # 4316 <__PRETTY_FUNCTION__.2052+0x1f6>
    26be:	bf 01 00 00 00       	mov    $0x1,%edi
    26c3:	b8 00 00 00 00       	mov    $0x0,%eax
    26c8:	e8 73 ec ff ff       	callq  1340 <__printf_chk@plt>
    26cd:	e9 c9 fd ff ff       	jmpq   249b <tsrv_run+0x5bc>
    26d2:	48 8d 35 4e 1c 00 00 	lea    0x1c4e(%rip),%rsi        # 4327 <__PRETTY_FUNCTION__.2052+0x207>
    26d9:	bf 01 00 00 00       	mov    $0x1,%edi
    26de:	b8 00 00 00 00       	mov    $0x0,%eax
    26e3:	e8 58 ec ff ff       	callq  1340 <__printf_chk@plt>
    26e8:	8b 7c 24 24          	mov    0x24(%rsp),%edi
    26ec:	e8 bf eb ff ff       	callq  12b0 <close@plt>
    26f1:	83 f8 ff             	cmp    $0xffffffff,%eax
    26f4:	0f 85 ae fd ff ff    	jne    24a8 <tsrv_run+0x5c9>
    26fa:	e8 11 eb ff ff       	callq  1210 <__errno_location@plt>
    26ff:	8b 38                	mov    (%rax),%edi
    2701:	e8 7a ec ff ff       	callq  1380 <strerror@plt>
    2706:	48 89 c2             	mov    %rax,%rdx
    2709:	48 8d 35 06 1c 00 00 	lea    0x1c06(%rip),%rsi        # 4316 <__PRETTY_FUNCTION__.2052+0x1f6>
    2710:	bf 01 00 00 00       	mov    $0x1,%edi
    2715:	b8 00 00 00 00       	mov    $0x0,%eax
    271a:	e8 21 ec ff ff       	callq  1340 <__printf_chk@plt>
    271f:	e9 84 fd ff ff       	jmpq   24a8 <tsrv_run+0x5c9>
    2724:	48 8d 35 18 1c 00 00 	lea    0x1c18(%rip),%rsi        # 4343 <__PRETTY_FUNCTION__.2052+0x223>
    272b:	bf 01 00 00 00       	mov    $0x1,%edi
    2730:	b8 00 00 00 00       	mov    $0x0,%eax
    2735:	e8 06 ec ff ff       	callq  1340 <__printf_chk@plt>
    273a:	8b 7c 24 28          	mov    0x28(%rsp),%edi
    273e:	e8 6d eb ff ff       	callq  12b0 <close@plt>
    2743:	83 f8 ff             	cmp    $0xffffffff,%eax
    2746:	0f 85 69 fd ff ff    	jne    24b5 <tsrv_run+0x5d6>
    274c:	e8 bf ea ff ff       	callq  1210 <__errno_location@plt>
    2751:	8b 38                	mov    (%rax),%edi
    2753:	e8 28 ec ff ff       	callq  1380 <strerror@plt>
    2758:	48 89 c2             	mov    %rax,%rdx
    275b:	48 8d 35 b4 1b 00 00 	lea    0x1bb4(%rip),%rsi        # 4316 <__PRETTY_FUNCTION__.2052+0x1f6>
    2762:	bf 01 00 00 00       	mov    $0x1,%edi
    2767:	b8 00 00 00 00       	mov    $0x0,%eax
    276c:	e8 cf eb ff ff       	callq  1340 <__printf_chk@plt>
    2771:	e9 3f fd ff ff       	jmpq   24b5 <tsrv_run+0x5d6>
    2776:	48 89 df             	mov    %rbx,%rdi
    2779:	e8 12 ec ff ff       	callq  1390 <pthread_mutex_lock@plt>
    277e:	48 89 df             	mov    %rbx,%rdi
    2781:	e8 8a eb ff ff       	callq  1310 <pthread_mutex_unlock@plt>
    2786:	eb 68                	jmp    27f0 <tsrv_run+0x911>
    2788:	89 ea                	mov    %ebp,%edx
    278a:	4c 89 fe             	mov    %r15,%rsi
    278d:	bf 01 00 00 00       	mov    $0x1,%edi
    2792:	b8 00 00 00 00       	mov    $0x0,%eax
    2797:	e8 a4 eb ff ff       	callq  1340 <__printf_chk@plt>
    279c:	41 8b 7c 24 f0       	mov    -0x10(%r12),%edi
    27a1:	e8 0a eb ff ff       	callq  12b0 <close@plt>
    27a6:	83 f8 ff             	cmp    $0xffffffff,%eax
    27a9:	75 4f                	jne    27fa <tsrv_run+0x91b>
    27ab:	e8 60 ea ff ff       	callq  1210 <__errno_location@plt>
    27b0:	8b 38                	mov    (%rax),%edi
    27b2:	e8 c9 eb ff ff       	callq  1380 <strerror@plt>
    27b7:	48 89 c2             	mov    %rax,%rdx
    27ba:	48 8d 35 55 1b 00 00 	lea    0x1b55(%rip),%rsi        # 4316 <__PRETTY_FUNCTION__.2052+0x1f6>
    27c1:	bf 01 00 00 00       	mov    $0x1,%edi
    27c6:	b8 00 00 00 00       	mov    $0x0,%eax
    27cb:	e8 70 eb ff ff       	callq  1340 <__printf_chk@plt>
    27d0:	eb 28                	jmp    27fa <tsrv_run+0x91b>
    27d2:	48 83 c5 01          	add    $0x1,%rbp
    27d6:	48 81 c3 a0 21 00 00 	add    $0x21a0,%rbx
    27dd:	66 41 39 ee          	cmp    %bp,%r14w
    27e1:	0f 86 ec fc ff ff    	jbe    24d3 <tsrv_run+0x5f4>
    27e7:	49 89 dc             	mov    %rbx,%r12
    27ea:	80 7b e9 00          	cmpb   $0x0,-0x17(%rbx)
    27ee:	75 86                	jne    2776 <tsrv_run+0x897>
    27f0:	41 8b 4c 24 f0       	mov    -0x10(%r12),%ecx
    27f5:	83 f9 ff             	cmp    $0xffffffff,%ecx
    27f8:	75 8e                	jne    2788 <tsrv_run+0x8a9>
    27fa:	41 8b 4c 24 ec       	mov    -0x14(%r12),%ecx
    27ff:	83 f9 ff             	cmp    $0xffffffff,%ecx
    2802:	74 ce                	je     27d2 <tsrv_run+0x8f3>
    2804:	89 ea                	mov    %ebp,%edx
    2806:	48 8d 35 fb 1d 00 00 	lea    0x1dfb(%rip),%rsi        # 4608 <__PRETTY_FUNCTION__.2052+0x4e8>
    280d:	bf 01 00 00 00       	mov    $0x1,%edi
    2812:	b8 00 00 00 00       	mov    $0x0,%eax
    2817:	e8 24 eb ff ff       	callq  1340 <__printf_chk@plt>
    281c:	41 8b 7c 24 ec       	mov    -0x14(%r12),%edi
    2821:	e8 8a ea ff ff       	callq  12b0 <close@plt>
    2826:	83 f8 ff             	cmp    $0xffffffff,%eax
    2829:	75 a7                	jne    27d2 <tsrv_run+0x8f3>
    282b:	e8 e0 e9 ff ff       	callq  1210 <__errno_location@plt>
    2830:	8b 38                	mov    (%rax),%edi
    2832:	e8 49 eb ff ff       	callq  1380 <strerror@plt>
    2837:	48 89 c2             	mov    %rax,%rdx
    283a:	48 8d 35 d5 1a 00 00 	lea    0x1ad5(%rip),%rsi        # 4316 <__PRETTY_FUNCTION__.2052+0x1f6>
    2841:	bf 01 00 00 00       	mov    $0x1,%edi
    2846:	b8 00 00 00 00       	mov    $0x0,%eax
    284b:	e8 f0 ea ff ff       	callq  1340 <__printf_chk@plt>
    2850:	eb 80                	jmp    27d2 <tsrv_run+0x8f3>
    2852:	48 8d 35 d7 1d 00 00 	lea    0x1dd7(%rip),%rsi        # 4630 <__PRETTY_FUNCTION__.2052+0x510>
    2859:	bf 01 00 00 00       	mov    $0x1,%edi
    285e:	b8 00 00 00 00       	mov    $0x0,%eax
    2863:	e8 d8 ea ff ff       	callq  1340 <__printf_chk@plt>
    2868:	41 bd 01 00 00 00    	mov    $0x1,%r13d
    286e:	e9 04 f8 ff ff       	jmpq   2077 <tsrv_run+0x198>
    2873:	48 8d 35 de 1d 00 00 	lea    0x1dde(%rip),%rsi        # 4658 <__PRETTY_FUNCTION__.2052+0x538>
    287a:	bf 01 00 00 00       	mov    $0x1,%edi
    287f:	b8 00 00 00 00       	mov    $0x0,%eax
    2884:	e8 b7 ea ff ff       	callq  1340 <__printf_chk@plt>
    2889:	e9 b1 fa ff ff       	jmpq   233f <tsrv_run+0x460>
    288e:	e8 bd e9 ff ff       	callq  1250 <__stack_chk_fail@plt>

0000000000002893 <parser_handler>:
    2893:	f3 0f 1e fa          	endbr64 
    2897:	41 55                	push   %r13
    2899:	41 54                	push   %r12
    289b:	55                   	push   %rbp
    289c:	53                   	push   %rbx
    289d:	48 83 ec 18          	sub    $0x18,%rsp
    28a1:	48 89 fb             	mov    %rdi,%rbx
    28a4:	48 89 f0             	mov    %rsi,%rax
    28a7:	48 89 cd             	mov    %rcx,%rbp
    28aa:	64 48 8b 34 25 28 00 	mov    %fs:0x28,%rsi
    28b1:	00 00 
    28b3:	48 89 74 24 08       	mov    %rsi,0x8(%rsp)
    28b8:	31 f6                	xor    %esi,%esi
    28ba:	4c 8b 67 08          	mov    0x8(%rdi),%r12
    28be:	b9 06 00 00 00       	mov    $0x6,%ecx
    28c3:	48 8d 3d b7 1d 00 00 	lea    0x1db7(%rip),%rdi        # 4681 <__PRETTY_FUNCTION__.2052+0x561>
    28ca:	48 89 c6             	mov    %rax,%rsi
    28cd:	f3 a6                	repz cmpsb %es:(%rdi),%ds:(%rsi)
    28cf:	0f 97 c1             	seta   %cl
    28d2:	80 d9 00             	sbb    $0x0,%cl
    28d5:	84 c9                	test   %cl,%cl
    28d7:	0f 84 81 00 00 00    	je     295e <parser_handler+0xcb>
    28dd:	b9 07 00 00 00       	mov    $0x7,%ecx
    28e2:	48 8d 3d b8 1d 00 00 	lea    0x1db8(%rip),%rdi        # 46a1 <__PRETTY_FUNCTION__.2052+0x581>
    28e9:	48 89 c6             	mov    %rax,%rsi
    28ec:	f3 a6                	repz cmpsb %es:(%rdi),%ds:(%rsi)
    28ee:	0f 97 c1             	seta   %cl
    28f1:	80 d9 00             	sbb    $0x0,%cl
    28f4:	84 c9                	test   %cl,%cl
    28f6:	0f 84 48 01 00 00    	je     2a44 <parser_handler+0x1b1>
    28fc:	b9 06 00 00 00       	mov    $0x6,%ecx
    2901:	48 8d 3d e8 1d 00 00 	lea    0x1de8(%rip),%rdi        # 46f0 <__PRETTY_FUNCTION__.2052+0x5d0>
    2908:	48 89 c6             	mov    %rax,%rsi
    290b:	f3 a6                	repz cmpsb %es:(%rdi),%ds:(%rsi)
    290d:	0f 97 c1             	seta   %cl
    2910:	80 d9 00             	sbb    $0x0,%cl
    2913:	84 c9                	test   %cl,%cl
    2915:	0f 84 92 02 00 00    	je     2bad <parser_handler+0x31a>
    291b:	44 89 c1             	mov    %r8d,%ecx
    291e:	48 89 c2             	mov    %rax,%rdx
    2921:	48 8d 35 e0 1e 00 00 	lea    0x1ee0(%rip),%rsi        # 4808 <__PRETTY_FUNCTION__.2052+0x6e8>
    2928:	bf 01 00 00 00       	mov    $0x1,%edi
    292d:	b8 00 00 00 00       	mov    $0x0,%eax
    2932:	e8 09 ea ff ff       	callq  1340 <__printf_chk@plt>
    2937:	c6 03 01             	movb   $0x1,(%rbx)
    293a:	b8 00 00 00 00       	mov    $0x0,%eax
    293f:	48 8b 5c 24 08       	mov    0x8(%rsp),%rbx
    2944:	64 48 33 1c 25 28 00 	xor    %fs:0x28,%rbx
    294b:	00 00 
    294d:	0f 85 af 02 00 00    	jne    2c02 <parser_handler+0x36f>
    2953:	48 83 c4 18          	add    $0x18,%rsp
    2957:	5b                   	pop    %rbx
    2958:	5d                   	pop    %rbp
    2959:	41 5c                	pop    %r12
    295b:	41 5d                	pop    %r13
    295d:	c3                   	retq   
    295e:	b9 04 00 00 00       	mov    $0x4,%ecx
    2963:	48 8d 3d 1d 1d 00 00 	lea    0x1d1d(%rip),%rdi        # 4687 <__PRETTY_FUNCTION__.2052+0x567>
    296a:	48 89 d6             	mov    %rdx,%rsi
    296d:	f3 a6                	repz cmpsb %es:(%rdi),%ds:(%rsi)
    296f:	0f 97 c1             	seta   %cl
    2972:	80 d9 00             	sbb    $0x0,%cl
    2975:	84 c9                	test   %cl,%cl
    2977:	74 77                	je     29f0 <parser_handler+0x15d>
    2979:	b9 05 00 00 00       	mov    $0x5,%ecx
    297e:	48 8d 3d 06 1d 00 00 	lea    0x1d06(%rip),%rdi        # 468b <__PRETTY_FUNCTION__.2052+0x56b>
    2985:	48 89 d6             	mov    %rdx,%rsi
    2988:	f3 a6                	repz cmpsb %es:(%rdi),%ds:(%rsi)
    298a:	0f 97 c1             	seta   %cl
    298d:	80 d9 00             	sbb    $0x0,%cl
    2990:	84 c9                	test   %cl,%cl
    2992:	74 78                	je     2a0c <parser_handler+0x179>
    2994:	b9 0d 00 00 00       	mov    $0xd,%ecx
    2999:	48 8d 3d f0 1c 00 00 	lea    0x1cf0(%rip),%rdi        # 4690 <__PRETTY_FUNCTION__.2052+0x570>
    29a0:	48 89 d6             	mov    %rdx,%rsi
    29a3:	f3 a6                	repz cmpsb %es:(%rdi),%ds:(%rsi)
    29a5:	0f 97 c1             	seta   %cl
    29a8:	80 d9 00             	sbb    $0x0,%cl
    29ab:	84 c9                	test   %cl,%cl
    29ad:	74 79                	je     2a28 <parser_handler+0x195>
    29af:	b9 04 00 00 00       	mov    $0x4,%ecx
    29b4:	48 8d 3d e2 1c 00 00 	lea    0x1ce2(%rip),%rdi        # 469d <__PRETTY_FUNCTION__.2052+0x57d>
    29bb:	48 89 d6             	mov    %rdx,%rsi
    29be:	f3 a6                	repz cmpsb %es:(%rdi),%ds:(%rsi)
    29c0:	0f 97 c1             	seta   %cl
    29c3:	80 d9 00             	sbb    $0x0,%cl
    29c6:	84 c9                	test   %cl,%cl
    29c8:	0f 85 fa 01 00 00    	jne    2bc8 <parser_handler+0x335>
    29ce:	ba 0a 00 00 00       	mov    $0xa,%edx
    29d3:	be 00 00 00 00       	mov    $0x0,%esi
    29d8:	48 89 ef             	mov    %rbp,%rdi
    29db:	e8 20 e9 ff ff       	callq  1300 <strtol@plt>
    29e0:	66 41 89 44 24 40    	mov    %ax,0x40(%r12)
    29e6:	b8 01 00 00 00       	mov    $0x1,%eax
    29eb:	e9 4f ff ff ff       	jmpq   293f <parser_handler+0xac>
    29f0:	be ff 00 00 00       	mov    $0xff,%esi
    29f5:	48 89 ef             	mov    %rbp,%rdi
    29f8:	e8 cb f2 ff ff       	callq  1cc8 <ar_strndup>
    29fd:	49 89 44 24 28       	mov    %rax,0x28(%r12)
    2a02:	b8 01 00 00 00       	mov    $0x1,%eax
    2a07:	e9 33 ff ff ff       	jmpq   293f <parser_handler+0xac>
    2a0c:	be 10 00 00 00       	mov    $0x10,%esi
    2a11:	48 89 ef             	mov    %rbp,%rdi
    2a14:	e8 af f2 ff ff       	callq  1cc8 <ar_strndup>
    2a19:	49 89 44 24 30       	mov    %rax,0x30(%r12)
    2a1e:	b8 01 00 00 00       	mov    $0x1,%eax
    2a23:	e9 17 ff ff ff       	jmpq   293f <parser_handler+0xac>
    2a28:	be 10 00 00 00       	mov    $0x10,%esi
    2a2d:	48 89 ef             	mov    %rbp,%rdi
    2a30:	e8 93 f2 ff ff       	callq  1cc8 <ar_strndup>
    2a35:	49 89 44 24 38       	mov    %rax,0x38(%r12)
    2a3a:	b8 01 00 00 00       	mov    $0x1,%eax
    2a3f:	e9 fb fe ff ff       	jmpq   293f <parser_handler+0xac>
    2a44:	b9 0a 00 00 00       	mov    $0xa,%ecx
    2a49:	48 8d 3d 58 1c 00 00 	lea    0x1c58(%rip),%rdi        # 46a8 <__PRETTY_FUNCTION__.2052+0x588>
    2a50:	48 89 d6             	mov    %rdx,%rsi
    2a53:	f3 a6                	repz cmpsb %es:(%rdi),%ds:(%rsi)
    2a55:	0f 97 c1             	seta   %cl
    2a58:	80 d9 00             	sbb    $0x0,%cl
    2a5b:	84 c9                	test   %cl,%cl
    2a5d:	74 7e                	je     2add <parser_handler+0x24a>
    2a5f:	b9 0a 00 00 00       	mov    $0xa,%ecx
    2a64:	48 8d 3d 69 1c 00 00 	lea    0x1c69(%rip),%rdi        # 46d4 <__PRETTY_FUNCTION__.2052+0x5b4>
    2a6b:	48 89 d6             	mov    %rdx,%rsi
    2a6e:	f3 a6                	repz cmpsb %es:(%rdi),%ds:(%rsi)
    2a70:	0f 97 c1             	seta   %cl
    2a73:	80 d9 00             	sbb    $0x0,%cl
    2a76:	84 c9                	test   %cl,%cl
    2a78:	0f 84 f1 00 00 00    	je     2b6f <parser_handler+0x2dc>
    2a7e:	b9 0a 00 00 00       	mov    $0xa,%ecx
    2a83:	48 8d 3d 54 1c 00 00 	lea    0x1c54(%rip),%rdi        # 46de <__PRETTY_FUNCTION__.2052+0x5be>
    2a8a:	48 89 d6             	mov    %rdx,%rsi
    2a8d:	f3 a6                	repz cmpsb %es:(%rdi),%ds:(%rsi)
    2a8f:	0f 97 c1             	seta   %cl
    2a92:	80 d9 00             	sbb    $0x0,%cl
    2a95:	84 c9                	test   %cl,%cl
    2a97:	0f 84 ee 00 00 00    	je     2b8b <parser_handler+0x2f8>
    2a9d:	b9 08 00 00 00       	mov    $0x8,%ecx
    2aa2:	48 8d 3d 3f 1c 00 00 	lea    0x1c3f(%rip),%rdi        # 46e8 <__PRETTY_FUNCTION__.2052+0x5c8>
    2aa9:	48 89 d6             	mov    %rdx,%rsi
    2aac:	f3 a6                	repz cmpsb %es:(%rdi),%ds:(%rsi)
    2aae:	0f 97 c1             	seta   %cl
    2ab1:	80 d9 00             	sbb    $0x0,%cl
    2ab4:	84 c9                	test   %cl,%cl
    2ab6:	0f 85 0c 01 00 00    	jne    2bc8 <parser_handler+0x335>
    2abc:	ba 0a 00 00 00       	mov    $0xa,%edx
    2ac1:	be 00 00 00 00       	mov    $0x0,%esi
    2ac6:	48 89 ef             	mov    %rbp,%rdi
    2ac9:	e8 32 e8 ff ff       	callq  1300 <strtol@plt>
    2ace:	41 89 44 24 24       	mov    %eax,0x24(%r12)
    2ad3:	b8 01 00 00 00       	mov    $0x1,%eax
    2ad8:	e9 62 fe ff ff       	jmpq   293f <parser_handler+0xac>
    2add:	c7 44 24 04 00 00 00 	movl   $0x0,0x4(%rsp)
    2ae4:	00 
    2ae5:	4c 8d 6c 24 04       	lea    0x4(%rsp),%r13
    2aea:	ba 03 00 00 00       	mov    $0x3,%edx
    2aef:	48 89 ee             	mov    %rbp,%rsi
    2af2:	4c 89 ef             	mov    %r13,%rdi
    2af5:	e8 26 e7 ff ff       	callq  1220 <strncpy@plt>
    2afa:	81 4c 24 04 20 20 20 	orl    $0x20202020,0x4(%rsp)
    2b01:	20 
    2b02:	c6 44 24 07 00       	movb   $0x0,0x7(%rsp)
    2b07:	ba 04 00 00 00       	mov    $0x4,%edx
    2b0c:	48 8d 35 9f 1b 00 00 	lea    0x1b9f(%rip),%rsi        # 46b2 <__PRETTY_FUNCTION__.2052+0x592>
    2b13:	4c 89 ef             	mov    %r13,%rdi
    2b16:	e8 b5 e7 ff ff       	callq  12d0 <memcmp@plt>
    2b1b:	85 c0                	test   %eax,%eax
    2b1d:	75 10                	jne    2b2f <parser_handler+0x29c>
    2b1f:	41 c6 44 24 10 01    	movb   $0x1,0x10(%r12)
    2b25:	b8 01 00 00 00       	mov    $0x1,%eax
    2b2a:	e9 10 fe ff ff       	jmpq   293f <parser_handler+0xac>
    2b2f:	48 8d 7c 24 04       	lea    0x4(%rsp),%rdi
    2b34:	ba 04 00 00 00       	mov    $0x4,%edx
    2b39:	48 8d 35 76 1b 00 00 	lea    0x1b76(%rip),%rsi        # 46b6 <__PRETTY_FUNCTION__.2052+0x596>
    2b40:	e8 8b e7 ff ff       	callq  12d0 <memcmp@plt>
    2b45:	85 c0                	test   %eax,%eax
    2b47:	75 08                	jne    2b51 <parser_handler+0x2be>
    2b49:	41 c6 44 24 10 02    	movb   $0x2,0x10(%r12)
    2b4f:	eb d4                	jmp    2b25 <parser_handler+0x292>
    2b51:	48 89 ea             	mov    %rbp,%rdx
    2b54:	48 8d 35 5f 1b 00 00 	lea    0x1b5f(%rip),%rsi        # 46ba <__PRETTY_FUNCTION__.2052+0x59a>
    2b5b:	bf 01 00 00 00       	mov    $0x1,%edi
    2b60:	b8 00 00 00 00       	mov    $0x0,%eax
    2b65:	e8 d6 e7 ff ff       	callq  1340 <__printf_chk@plt>
    2b6a:	e9 c8 fd ff ff       	jmpq   2937 <parser_handler+0xa4>
    2b6f:	be ff 00 00 00       	mov    $0xff,%esi
    2b74:	48 89 ef             	mov    %rbp,%rdi
    2b77:	e8 4c f1 ff ff       	callq  1cc8 <ar_strndup>
    2b7c:	49 89 44 24 18       	mov    %rax,0x18(%r12)
    2b81:	b8 01 00 00 00       	mov    $0x1,%eax
    2b86:	e9 b4 fd ff ff       	jmpq   293f <parser_handler+0xac>
    2b8b:	ba 0a 00 00 00       	mov    $0xa,%edx
    2b90:	be 00 00 00 00       	mov    $0x0,%esi
    2b95:	48 89 ef             	mov    %rbp,%rdi
    2b98:	e8 63 e7 ff ff       	callq  1300 <strtol@plt>
    2b9d:	66 41 89 44 24 20    	mov    %ax,0x20(%r12)
    2ba3:	b8 01 00 00 00       	mov    $0x1,%eax
    2ba8:	e9 92 fd ff ff       	jmpq   293f <parser_handler+0xac>
    2bad:	b9 09 00 00 00       	mov    $0x9,%ecx
    2bb2:	48 8d 3d 3d 1b 00 00 	lea    0x1b3d(%rip),%rdi        # 46f6 <__PRETTY_FUNCTION__.2052+0x5d6>
    2bb9:	48 89 d6             	mov    %rdx,%rsi
    2bbc:	f3 a6                	repz cmpsb %es:(%rdi),%ds:(%rsi)
    2bbe:	0f 97 c1             	seta   %cl
    2bc1:	80 d9 00             	sbb    $0x0,%cl
    2bc4:	84 c9                	test   %cl,%cl
    2bc6:	74 1e                	je     2be6 <parser_handler+0x353>
    2bc8:	48 89 c1             	mov    %rax,%rcx
    2bcb:	48 8d 35 5e 1c 00 00 	lea    0x1c5e(%rip),%rsi        # 4830 <__PRETTY_FUNCTION__.2052+0x710>
    2bd2:	bf 01 00 00 00       	mov    $0x1,%edi
    2bd7:	b8 00 00 00 00       	mov    $0x0,%eax
    2bdc:	e8 5f e7 ff ff       	callq  1340 <__printf_chk@plt>
    2be1:	e9 51 fd ff ff       	jmpq   2937 <parser_handler+0xa4>
    2be6:	be ff 00 00 00       	mov    $0xff,%esi
    2beb:	48 89 ef             	mov    %rbp,%rdi
    2bee:	e8 d5 f0 ff ff       	callq  1cc8 <ar_strndup>
    2bf3:	49 89 44 24 08       	mov    %rax,0x8(%r12)
    2bf8:	b8 01 00 00 00       	mov    $0x1,%eax
    2bfd:	e9 3d fd ff ff       	jmpq   293f <parser_handler+0xac>
    2c02:	e8 49 e6 ff ff       	callq  1250 <__stack_chk_fail@plt>

0000000000002c07 <tsrv_argv_parser>:
    2c07:	f3 0f 1e fa          	endbr64 
    2c0b:	41 57                	push   %r15
    2c0d:	41 56                	push   %r14
    2c0f:	41 55                	push   %r13
    2c11:	41 54                	push   %r12
    2c13:	55                   	push   %rbp
    2c14:	53                   	push   %rbx
    2c15:	48 83 ec 18          	sub    $0x18,%rsp
    2c19:	64 48 8b 04 25 28 00 	mov    %fs:0x28,%rax
    2c20:	00 00 
    2c22:	48 89 44 24 08       	mov    %rax,0x8(%rsp)
    2c27:	31 c0                	xor    %eax,%eax
    2c29:	48 8d 05 e0 43 00 00 	lea    0x43e0(%rip),%rax        # 7010 <def_cfg_file>
    2c30:	48 89 02             	mov    %rax,(%rdx)
    2c33:	48 c7 42 08 00 00 00 	movq   $0x0,0x8(%rdx)
    2c3a:	00 
    2c3b:	c6 42 10 01          	movb   $0x1,0x10(%rdx)
    2c3f:	48 8d 05 0a 44 00 00 	lea    0x440a(%rip),%rax        # 7050 <def_bind_addr>
    2c46:	48 89 42 18          	mov    %rax,0x18(%rdx)
    2c4a:	66 c7 42 20 03 d9    	movw   $0xd903,0x20(%rdx)
    2c50:	66 c7 42 22 0a 00    	movw   $0xa,0x22(%rdx)
    2c56:	c7 42 24 0a 00 00 00 	movl   $0xa,0x24(%rdx)
    2c5d:	48 8d 05 e4 43 00 00 	lea    0x43e4(%rip),%rax        # 7048 <def_dev>
    2c64:	48 89 42 28          	mov    %rax,0x28(%rdx)
    2c68:	48 8d 05 c9 43 00 00 	lea    0x43c9(%rip),%rax        # 7038 <def_ipv4>
    2c6f:	48 89 42 30          	mov    %rax,0x30(%rdx)
    2c73:	48 8d 05 ae 43 00 00 	lea    0x43ae(%rip),%rax        # 7028 <def_ipv4_netmask>
    2c7a:	48 89 42 38          	mov    %rax,0x38(%rdx)
    2c7e:	66 c7 42 40 dc 05    	movw   $0x5dc,0x40(%rdx)
    2c84:	b8 01 00 00 00       	mov    $0x1,%eax
    2c89:	83 ff 01             	cmp    $0x1,%edi
    2c8c:	0f 84 1a 04 00 00    	je     30ac <tsrv_argv_parser+0x4a5>
    2c92:	89 fd                	mov    %edi,%ebp
    2c94:	49 89 f4             	mov    %rsi,%r12
    2c97:	48 89 d3             	mov    %rdx,%rbx
    2c9a:	4c 8d 2d 5f 1f 00 00 	lea    0x1f5f(%rip),%r13        # 4c00 <__PRETTY_FUNCTION__.2052+0xae0>
    2ca1:	c7 04 24 00 00 00 00 	movl   $0x0,(%rsp)
    2ca8:	49 89 e0             	mov    %rsp,%r8
    2cab:	48 8d 0d ae 3c 00 00 	lea    0x3cae(%rip),%rcx        # 6960 <long_opt>
    2cb2:	48 8d 15 57 20 00 00 	lea    0x2057(%rip),%rdx        # 4d10 <short_opt>
    2cb9:	4c 89 e6             	mov    %r12,%rsi
    2cbc:	89 ef                	mov    %ebp,%edi
    2cbe:	e8 9d e5 ff ff       	callq  1260 <getopt_long@plt>
    2cc3:	83 f8 ff             	cmp    $0xffffffff,%eax
    2cc6:	0f 84 6f 04 00 00    	je     313b <tsrv_argv_parser+0x534>
    2ccc:	83 e8 34             	sub    $0x34,%eax
    2ccf:	83 f8 42             	cmp    $0x42,%eax
    2cd2:	0f 87 cc 03 00 00    	ja     30a4 <tsrv_argv_parser+0x49d>
    2cd8:	89 c0                	mov    %eax,%eax
    2cda:	49 63 44 85 00       	movslq 0x0(%r13,%rax,4),%rax
    2cdf:	4c 01 e8             	add    %r13,%rax
    2ce2:	3e ff e0             	notrack jmpq *%rax
    2ce5:	49 8b 0c 24          	mov    (%r12),%rcx
    2ce9:	48 8b 15 b8 43 00 00 	mov    0x43b8(%rip),%rdx        # 70a8 <app_name>
    2cf0:	48 8d 35 08 1a 00 00 	lea    0x1a08(%rip),%rsi        # 46ff <__PRETTY_FUNCTION__.2052+0x5df>
    2cf7:	bf 01 00 00 00       	mov    $0x1,%edi
    2cfc:	b8 00 00 00 00       	mov    $0x0,%eax
    2d01:	e8 3a e6 ff ff       	callq  1340 <__printf_chk@plt>
    2d06:	48 8d 35 a6 1a 00 00 	lea    0x1aa6(%rip),%rsi        # 47b3 <__PRETTY_FUNCTION__.2052+0x693>
    2d0d:	bf 01 00 00 00       	mov    $0x1,%edi
    2d12:	b8 00 00 00 00       	mov    $0x0,%eax
    2d17:	e8 24 e6 ff ff       	callq  1340 <__printf_chk@plt>
    2d1c:	48 8d 35 f4 19 00 00 	lea    0x19f4(%rip),%rsi        # 4717 <__PRETTY_FUNCTION__.2052+0x5f7>
    2d23:	bf 01 00 00 00       	mov    $0x1,%edi
    2d28:	b8 00 00 00 00       	mov    $0x0,%eax
    2d2d:	e8 0e e6 ff ff       	callq  1340 <__printf_chk@plt>
    2d32:	48 8d 35 7a 1a 00 00 	lea    0x1a7a(%rip),%rsi        # 47b3 <__PRETTY_FUNCTION__.2052+0x693>
    2d39:	bf 01 00 00 00       	mov    $0x1,%edi
    2d3e:	b8 00 00 00 00       	mov    $0x0,%eax
    2d43:	e8 f8 e5 ff ff       	callq  1340 <__printf_chk@plt>
    2d48:	48 8d 35 e3 19 00 00 	lea    0x19e3(%rip),%rsi        # 4732 <__PRETTY_FUNCTION__.2052+0x612>
    2d4f:	bf 01 00 00 00       	mov    $0x1,%edi
    2d54:	b8 00 00 00 00       	mov    $0x0,%eax
    2d59:	e8 e2 e5 ff ff       	callq  1340 <__printf_chk@plt>
    2d5e:	48 8d 35 fb 1a 00 00 	lea    0x1afb(%rip),%rsi        # 4860 <__PRETTY_FUNCTION__.2052+0x740>
    2d65:	bf 01 00 00 00       	mov    $0x1,%edi
    2d6a:	b8 00 00 00 00       	mov    $0x0,%eax
    2d6f:	e8 cc e5 ff ff       	callq  1340 <__printf_chk@plt>
    2d74:	48 8d 15 95 42 00 00 	lea    0x4295(%rip),%rdx        # 7010 <def_cfg_file>
    2d7b:	48 8d 35 06 1b 00 00 	lea    0x1b06(%rip),%rsi        # 4888 <__PRETTY_FUNCTION__.2052+0x768>
    2d82:	bf 01 00 00 00       	mov    $0x1,%edi
    2d87:	b8 00 00 00 00       	mov    $0x0,%eax
    2d8c:	e8 af e5 ff ff       	callq  1340 <__printf_chk@plt>
    2d91:	48 8d 35 28 1b 00 00 	lea    0x1b28(%rip),%rsi        # 48c0 <__PRETTY_FUNCTION__.2052+0x7a0>
    2d98:	bf 01 00 00 00       	mov    $0x1,%edi
    2d9d:	b8 00 00 00 00       	mov    $0x0,%eax
    2da2:	e8 99 e5 ff ff       	callq  1340 <__printf_chk@plt>
    2da7:	48 8d 35 42 1b 00 00 	lea    0x1b42(%rip),%rsi        # 48f0 <__PRETTY_FUNCTION__.2052+0x7d0>
    2dae:	bf 01 00 00 00       	mov    $0x1,%edi
    2db3:	b8 00 00 00 00       	mov    $0x0,%eax
    2db8:	e8 83 e5 ff ff       	callq  1340 <__printf_chk@plt>
    2dbd:	48 8d 35 ef 19 00 00 	lea    0x19ef(%rip),%rsi        # 47b3 <__PRETTY_FUNCTION__.2052+0x693>
    2dc4:	bf 01 00 00 00       	mov    $0x1,%edi
    2dc9:	b8 00 00 00 00       	mov    $0x0,%eax
    2dce:	e8 6d e5 ff ff       	callq  1340 <__printf_chk@plt>
    2dd3:	48 8d 35 6c 19 00 00 	lea    0x196c(%rip),%rsi        # 4746 <__PRETTY_FUNCTION__.2052+0x626>
    2dda:	bf 01 00 00 00       	mov    $0x1,%edi
    2ddf:	b8 00 00 00 00       	mov    $0x0,%eax
    2de4:	e8 57 e5 ff ff       	callq  1340 <__printf_chk@plt>
    2de9:	48 8d 35 68 19 00 00 	lea    0x1968(%rip),%rsi        # 4758 <__PRETTY_FUNCTION__.2052+0x638>
    2df0:	bf 01 00 00 00       	mov    $0x1,%edi
    2df5:	b8 00 00 00 00       	mov    $0x0,%eax
    2dfa:	e8 41 e5 ff ff       	callq  1340 <__printf_chk@plt>
    2dff:	48 8d 15 42 42 00 00 	lea    0x4242(%rip),%rdx        # 7048 <def_dev>
    2e06:	48 8d 35 0b 1b 00 00 	lea    0x1b0b(%rip),%rsi        # 4918 <__PRETTY_FUNCTION__.2052+0x7f8>
    2e0d:	bf 01 00 00 00       	mov    $0x1,%edi
    2e12:	b8 00 00 00 00       	mov    $0x0,%eax
    2e17:	e8 24 e5 ff ff       	callq  1340 <__printf_chk@plt>
    2e1c:	ba dc 05 00 00       	mov    $0x5dc,%edx
    2e21:	48 8d 35 38 1b 00 00 	lea    0x1b38(%rip),%rsi        # 4960 <__PRETTY_FUNCTION__.2052+0x840>
    2e28:	bf 01 00 00 00       	mov    $0x1,%edi
    2e2d:	b8 00 00 00 00       	mov    $0x0,%eax
    2e32:	e8 09 e5 ff ff       	callq  1340 <__printf_chk@plt>
    2e37:	48 8d 15 fa 41 00 00 	lea    0x41fa(%rip),%rdx        # 7038 <def_ipv4>
    2e3e:	48 8d 35 4b 1b 00 00 	lea    0x1b4b(%rip),%rsi        # 4990 <__PRETTY_FUNCTION__.2052+0x870>
    2e45:	bf 01 00 00 00       	mov    $0x1,%edi
    2e4a:	b8 00 00 00 00       	mov    $0x0,%eax
    2e4f:	e8 ec e4 ff ff       	callq  1340 <__printf_chk@plt>
    2e54:	48 8d 15 cd 41 00 00 	lea    0x41cd(%rip),%rdx        # 7028 <def_ipv4_netmask>
    2e5b:	48 8d 35 5e 1b 00 00 	lea    0x1b5e(%rip),%rsi        # 49c0 <__PRETTY_FUNCTION__.2052+0x8a0>
    2e62:	bf 01 00 00 00       	mov    $0x1,%edi
    2e67:	b8 00 00 00 00       	mov    $0x0,%eax
    2e6c:	e8 cf e4 ff ff       	callq  1340 <__printf_chk@plt>
    2e71:	48 8d 35 3b 19 00 00 	lea    0x193b(%rip),%rsi        # 47b3 <__PRETTY_FUNCTION__.2052+0x693>
    2e78:	bf 01 00 00 00       	mov    $0x1,%edi
    2e7d:	b8 00 00 00 00       	mov    $0x0,%eax
    2e82:	e8 b9 e4 ff ff       	callq  1340 <__printf_chk@plt>
    2e87:	48 8d 35 e7 18 00 00 	lea    0x18e7(%rip),%rsi        # 4775 <__PRETTY_FUNCTION__.2052+0x655>
    2e8e:	bf 01 00 00 00       	mov    $0x1,%edi
    2e93:	b8 00 00 00 00       	mov    $0x0,%eax
    2e98:	e8 a3 e4 ff ff       	callq  1340 <__printf_chk@plt>
    2e9d:	48 8d 35 5c 1b 00 00 	lea    0x1b5c(%rip),%rsi        # 4a00 <__PRETTY_FUNCTION__.2052+0x8e0>
    2ea4:	bf 01 00 00 00       	mov    $0x1,%edi
    2ea9:	b8 00 00 00 00       	mov    $0x0,%eax
    2eae:	e8 8d e4 ff ff       	callq  1340 <__printf_chk@plt>
    2eb3:	48 8d 35 96 1b 00 00 	lea    0x1b96(%rip),%rsi        # 4a50 <__PRETTY_FUNCTION__.2052+0x930>
    2eba:	bf 01 00 00 00       	mov    $0x1,%edi
    2ebf:	b8 00 00 00 00       	mov    $0x0,%eax
    2ec4:	e8 77 e4 ff ff       	callq  1340 <__printf_chk@plt>
    2ec9:	ba 03 d9 00 00       	mov    $0xd903,%edx
    2ece:	48 8d 35 bb 1b 00 00 	lea    0x1bbb(%rip),%rsi        # 4a90 <__PRETTY_FUNCTION__.2052+0x970>
    2ed5:	bf 01 00 00 00       	mov    $0x1,%edi
    2eda:	b8 00 00 00 00       	mov    $0x0,%eax
    2edf:	e8 5c e4 ff ff       	callq  1340 <__printf_chk@plt>
    2ee4:	ba 0a 00 00 00       	mov    $0xa,%edx
    2ee9:	48 8d 35 d8 1b 00 00 	lea    0x1bd8(%rip),%rsi        # 4ac8 <__PRETTY_FUNCTION__.2052+0x9a8>
    2ef0:	bf 01 00 00 00       	mov    $0x1,%edi
    2ef5:	b8 00 00 00 00       	mov    $0x0,%eax
    2efa:	e8 41 e4 ff ff       	callq  1340 <__printf_chk@plt>
    2eff:	ba 0a 00 00 00       	mov    $0xa,%edx
    2f04:	48 8d 35 f5 1b 00 00 	lea    0x1bf5(%rip),%rsi        # 4b00 <__PRETTY_FUNCTION__.2052+0x9e0>
    2f0b:	bf 01 00 00 00       	mov    $0x1,%edi
    2f10:	b8 00 00 00 00       	mov    $0x0,%eax
    2f15:	e8 26 e4 ff ff       	callq  1340 <__printf_chk@plt>
    2f1a:	48 8d 35 92 18 00 00 	lea    0x1892(%rip),%rsi        # 47b3 <__PRETTY_FUNCTION__.2052+0x693>
    2f21:	bf 01 00 00 00       	mov    $0x1,%edi
    2f26:	b8 00 00 00 00       	mov    $0x0,%eax
    2f2b:	e8 10 e4 ff ff       	callq  1340 <__printf_chk@plt>
    2f30:	48 8d 35 7c 18 00 00 	lea    0x187c(%rip),%rsi        # 47b3 <__PRETTY_FUNCTION__.2052+0x693>
    2f37:	bf 01 00 00 00       	mov    $0x1,%edi
    2f3c:	b8 00 00 00 00       	mov    $0x0,%eax
    2f41:	e8 fa e3 ff ff       	callq  1340 <__printf_chk@plt>
    2f46:	48 8d 35 f3 1b 00 00 	lea    0x1bf3(%rip),%rsi        # 4b40 <__PRETTY_FUNCTION__.2052+0xa20>
    2f4d:	bf 01 00 00 00       	mov    $0x1,%edi
    2f52:	b8 00 00 00 00       	mov    $0x0,%eax
    2f57:	e8 e4 e3 ff ff       	callq  1340 <__printf_chk@plt>
    2f5c:	48 8d 35 1d 1c 00 00 	lea    0x1c1d(%rip),%rsi        # 4b80 <__PRETTY_FUNCTION__.2052+0xa60>
    2f63:	bf 01 00 00 00       	mov    $0x1,%edi
    2f68:	b8 00 00 00 00       	mov    $0x0,%eax
    2f6d:	e8 ce e3 ff ff       	callq  1340 <__printf_chk@plt>
    2f72:	48 8d 35 3a 18 00 00 	lea    0x183a(%rip),%rsi        # 47b3 <__PRETTY_FUNCTION__.2052+0x693>
    2f79:	bf 01 00 00 00       	mov    $0x1,%edi
    2f7e:	b8 00 00 00 00       	mov    $0x0,%eax
    2f83:	e8 b8 e3 ff ff       	callq  1340 <__printf_chk@plt>
    2f88:	48 8d 35 31 1c 00 00 	lea    0x1c31(%rip),%rsi        # 4bc0 <__PRETTY_FUNCTION__.2052+0xaa0>
    2f8f:	bf 01 00 00 00       	mov    $0x1,%edi
    2f94:	b8 00 00 00 00       	mov    $0x0,%eax
    2f99:	e8 a2 e3 ff ff       	callq  1340 <__printf_chk@plt>
    2f9e:	b8 01 00 00 00       	mov    $0x1,%eax
    2fa3:	e9 01 01 00 00       	jmpq   30a9 <tsrv_argv_parser+0x4a2>
    2fa8:	48 8b 05 d1 40 00 00 	mov    0x40d1(%rip),%rax        # 7080 <optarg@@GLIBC_2.2.5>
    2faf:	48 89 03             	mov    %rax,(%rbx)
    2fb2:	e9 ea fc ff ff       	jmpq   2ca1 <tsrv_argv_parser+0x9a>
    2fb7:	48 8b 05 c2 40 00 00 	mov    0x40c2(%rip),%rax        # 7080 <optarg@@GLIBC_2.2.5>
    2fbe:	48 89 43 08          	mov    %rax,0x8(%rbx)
    2fc2:	e9 da fc ff ff       	jmpq   2ca1 <tsrv_argv_parser+0x9a>
    2fc7:	48 8b 05 b2 40 00 00 	mov    0x40b2(%rip),%rax        # 7080 <optarg@@GLIBC_2.2.5>
    2fce:	48 89 43 28          	mov    %rax,0x28(%rbx)
    2fd2:	e9 ca fc ff ff       	jmpq   2ca1 <tsrv_argv_parser+0x9a>
    2fd7:	48 8b 05 a2 40 00 00 	mov    0x40a2(%rip),%rax        # 7080 <optarg@@GLIBC_2.2.5>
    2fde:	48 89 43 30          	mov    %rax,0x30(%rbx)
    2fe2:	e9 ba fc ff ff       	jmpq   2ca1 <tsrv_argv_parser+0x9a>
    2fe7:	48 8b 05 92 40 00 00 	mov    0x4092(%rip),%rax        # 7080 <optarg@@GLIBC_2.2.5>
    2fee:	48 89 43 38          	mov    %rax,0x38(%rbx)
    2ff2:	e9 aa fc ff ff       	jmpq   2ca1 <tsrv_argv_parser+0x9a>
    2ff7:	ba 0a 00 00 00       	mov    $0xa,%edx
    2ffc:	be 00 00 00 00       	mov    $0x0,%esi
    3001:	48 8b 3d 78 40 00 00 	mov    0x4078(%rip),%rdi        # 7080 <optarg@@GLIBC_2.2.5>
    3008:	e8 f3 e2 ff ff       	callq  1300 <strtol@plt>
    300d:	66 89 43 40          	mov    %ax,0x40(%rbx)
    3011:	e9 8b fc ff ff       	jmpq   2ca1 <tsrv_argv_parser+0x9a>
    3016:	c7 44 24 04 00 00 00 	movl   $0x0,0x4(%rsp)
    301d:	00 
    301e:	4c 8b 3d 5b 40 00 00 	mov    0x405b(%rip),%r15        # 7080 <optarg@@GLIBC_2.2.5>
    3025:	4c 8d 74 24 04       	lea    0x4(%rsp),%r14
    302a:	ba 03 00 00 00       	mov    $0x3,%edx
    302f:	4c 89 fe             	mov    %r15,%rsi
    3032:	4c 89 f7             	mov    %r14,%rdi
    3035:	e8 e6 e1 ff ff       	callq  1220 <strncpy@plt>
    303a:	81 4c 24 04 20 20 20 	orl    $0x20202020,0x4(%rsp)
    3041:	20 
    3042:	c6 44 24 07 00       	movb   $0x0,0x7(%rsp)
    3047:	ba 04 00 00 00       	mov    $0x4,%edx
    304c:	48 8d 35 5f 16 00 00 	lea    0x165f(%rip),%rsi        # 46b2 <__PRETTY_FUNCTION__.2052+0x592>
    3053:	4c 89 f7             	mov    %r14,%rdi
    3056:	e8 75 e2 ff ff       	callq  12d0 <memcmp@plt>
    305b:	85 c0                	test   %eax,%eax
    305d:	75 09                	jne    3068 <tsrv_argv_parser+0x461>
    305f:	c6 43 10 01          	movb   $0x1,0x10(%rbx)
    3063:	e9 39 fc ff ff       	jmpq   2ca1 <tsrv_argv_parser+0x9a>
    3068:	48 8d 7c 24 04       	lea    0x4(%rsp),%rdi
    306d:	ba 04 00 00 00       	mov    $0x4,%edx
    3072:	48 8d 35 3d 16 00 00 	lea    0x163d(%rip),%rsi        # 46b6 <__PRETTY_FUNCTION__.2052+0x596>
    3079:	e8 52 e2 ff ff       	callq  12d0 <memcmp@plt>
    307e:	85 c0                	test   %eax,%eax
    3080:	75 09                	jne    308b <tsrv_argv_parser+0x484>
    3082:	c6 43 10 02          	movb   $0x2,0x10(%rbx)
    3086:	e9 16 fc ff ff       	jmpq   2ca1 <tsrv_argv_parser+0x9a>
    308b:	4c 89 fa             	mov    %r15,%rdx
    308e:	48 8d 35 25 16 00 00 	lea    0x1625(%rip),%rsi        # 46ba <__PRETTY_FUNCTION__.2052+0x59a>
    3095:	bf 01 00 00 00       	mov    $0x1,%edi
    309a:	b8 00 00 00 00       	mov    $0x0,%eax
    309f:	e8 9c e2 ff ff       	callq  1340 <__printf_chk@plt>
    30a4:	b8 01 00 00 00       	mov    $0x1,%eax
    30a9:	83 f0 01             	xor    $0x1,%eax
    30ac:	48 8b 4c 24 08       	mov    0x8(%rsp),%rcx
    30b1:	64 48 33 0c 25 28 00 	xor    %fs:0x28,%rcx
    30b8:	00 00 
    30ba:	0f 85 85 00 00 00    	jne    3145 <tsrv_argv_parser+0x53e>
    30c0:	48 83 c4 18          	add    $0x18,%rsp
    30c4:	5b                   	pop    %rbx
    30c5:	5d                   	pop    %rbp
    30c6:	41 5c                	pop    %r12
    30c8:	41 5d                	pop    %r13
    30ca:	41 5e                	pop    %r14
    30cc:	41 5f                	pop    %r15
    30ce:	c3                   	retq   
    30cf:	48 8b 05 aa 3f 00 00 	mov    0x3faa(%rip),%rax        # 7080 <optarg@@GLIBC_2.2.5>
    30d6:	48 89 43 18          	mov    %rax,0x18(%rbx)
    30da:	e9 c2 fb ff ff       	jmpq   2ca1 <tsrv_argv_parser+0x9a>
    30df:	ba 0a 00 00 00       	mov    $0xa,%edx
    30e4:	be 00 00 00 00       	mov    $0x0,%esi
    30e9:	48 8b 3d 90 3f 00 00 	mov    0x3f90(%rip),%rdi        # 7080 <optarg@@GLIBC_2.2.5>
    30f0:	e8 0b e2 ff ff       	callq  1300 <strtol@plt>
    30f5:	66 89 43 20          	mov    %ax,0x20(%rbx)
    30f9:	e9 a3 fb ff ff       	jmpq   2ca1 <tsrv_argv_parser+0x9a>
    30fe:	ba 0a 00 00 00       	mov    $0xa,%edx
    3103:	be 00 00 00 00       	mov    $0x0,%esi
    3108:	48 8b 3d 71 3f 00 00 	mov    0x3f71(%rip),%rdi        # 7080 <optarg@@GLIBC_2.2.5>
    310f:	e8 ec e1 ff ff       	callq  1300 <strtol@plt>
    3114:	66 89 43 22          	mov    %ax,0x22(%rbx)
    3118:	e9 84 fb ff ff       	jmpq   2ca1 <tsrv_argv_parser+0x9a>
    311d:	ba 0a 00 00 00       	mov    $0xa,%edx
    3122:	be 00 00 00 00       	mov    $0x0,%esi
    3127:	48 8b 3d 52 3f 00 00 	mov    0x3f52(%rip),%rdi        # 7080 <optarg@@GLIBC_2.2.5>
    312e:	e8 cd e1 ff ff       	callq  1300 <strtol@plt>
    3133:	89 43 24             	mov    %eax,0x24(%rbx)
    3136:	e9 66 fb ff ff       	jmpq   2ca1 <tsrv_argv_parser+0x9a>
    313b:	b8 00 00 00 00       	mov    $0x0,%eax
    3140:	e9 64 ff ff ff       	jmpq   30a9 <tsrv_argv_parser+0x4a2>
    3145:	e8 06 e1 ff ff       	callq  1250 <__stack_chk_fail@plt>

000000000000314a <tsrv_cfg_load>:
    314a:	f3 0f 1e fa          	endbr64 
    314e:	53                   	push   %rbx
    314f:	48 83 ec 20          	sub    $0x20,%rsp
    3153:	48 89 fb             	mov    %rdi,%rbx
    3156:	64 48 8b 04 25 28 00 	mov    %fs:0x28,%rax
    315d:	00 00 
    315f:	48 89 44 24 18       	mov    %rax,0x18(%rsp)
    3164:	31 c0                	xor    %eax,%eax
    3166:	48 89 74 24 08       	mov    %rsi,0x8(%rsp)
    316b:	c6 04 24 00          	movb   $0x0,(%rsp)
    316f:	48 89 e2             	mov    %rsp,%rdx
    3172:	48 8d 35 1a f7 ff ff 	lea    -0x8e6(%rip),%rsi        # 2893 <parser_handler>
    3179:	e8 81 e7 ff ff       	callq  18ff <ini_parse>
    317e:	85 c0                	test   %eax,%eax
    3180:	78 21                	js     31a3 <tsrv_cfg_load+0x59>
    3182:	b8 01 00 00 00       	mov    $0x1,%eax
    3187:	80 3c 24 00          	cmpb   $0x0,(%rsp)
    318b:	75 36                	jne    31c3 <tsrv_cfg_load+0x79>
    318d:	48 8b 4c 24 18       	mov    0x18(%rsp),%rcx
    3192:	64 48 33 0c 25 28 00 	xor    %fs:0x28,%rcx
    3199:	00 00 
    319b:	75 43                	jne    31e0 <tsrv_cfg_load+0x96>
    319d:	48 83 c4 20          	add    $0x20,%rsp
    31a1:	5b                   	pop    %rbx
    31a2:	c3                   	retq   
    31a3:	48 89 da             	mov    %rbx,%rdx
    31a6:	48 8d 35 d2 15 00 00 	lea    0x15d2(%rip),%rsi        # 477f <__PRETTY_FUNCTION__.2052+0x65f>
    31ad:	bf 01 00 00 00       	mov    $0x1,%edi
    31b2:	b8 00 00 00 00       	mov    $0x0,%eax
    31b7:	e8 84 e1 ff ff       	callq  1340 <__printf_chk@plt>
    31bc:	b8 00 00 00 00       	mov    $0x0,%eax
    31c1:	eb ca                	jmp    318d <tsrv_cfg_load+0x43>
    31c3:	48 8d 35 cf 15 00 00 	lea    0x15cf(%rip),%rsi        # 4799 <__PRETTY_FUNCTION__.2052+0x679>
    31ca:	bf 01 00 00 00       	mov    $0x1,%edi
    31cf:	b8 00 00 00 00       	mov    $0x0,%eax
    31d4:	e8 67 e1 ff ff       	callq  1340 <__printf_chk@plt>
    31d9:	b8 00 00 00 00       	mov    $0x0,%eax
    31de:	eb ad                	jmp    318d <tsrv_cfg_load+0x43>
    31e0:	e8 6b e0 ff ff       	callq  1250 <__stack_chk_fail@plt>

00000000000031e5 <tcli_start>:
    31e5:	f3 0f 1e fa          	endbr64 
    31e9:	48 83 ec 68          	sub    $0x68,%rsp
    31ed:	64 48 8b 04 25 28 00 	mov    %fs:0x28,%rax
    31f4:	00 00 
    31f6:	48 89 44 24 58       	mov    %rax,0x58(%rsp)
    31fb:	31 c0                	xor    %eax,%eax
    31fd:	48 89 e2             	mov    %rsp,%rdx
    3200:	e8 d8 04 00 00       	callq  36dd <tcli_argv_parser>
    3205:	84 c0                	test   %al,%al
    3207:	0f 84 26 01 00 00    	je     3333 <tcli_start+0x14e>
    320d:	48 8b 3c 24          	mov    (%rsp),%rdi
    3211:	48 85 ff             	test   %rdi,%rdi
    3214:	74 10                	je     3226 <tcli_start+0x41>
    3216:	48 89 e6             	mov    %rsp,%rsi
    3219:	e8 c1 09 00 00       	callq  3bdf <tcli_cfg_load>
    321e:	84 c0                	test   %al,%al
    3220:	0f 84 0d 01 00 00    	je     3333 <tcli_start+0x14e>
    3226:	48 8b 14 24          	mov    (%rsp),%rdx
    322a:	48 8d 35 02 0f 00 00 	lea    0xf02(%rip),%rsi        # 4133 <__PRETTY_FUNCTION__.2052+0x13>
    3231:	bf 01 00 00 00       	mov    $0x1,%edi
    3236:	b8 00 00 00 00       	mov    $0x0,%eax
    323b:	e8 00 e1 ff ff       	callq  1340 <__printf_chk@plt>
    3240:	48 8b 54 24 08       	mov    0x8(%rsp),%rdx
    3245:	48 8d 35 fb 0e 00 00 	lea    0xefb(%rip),%rsi        # 4147 <__PRETTY_FUNCTION__.2052+0x27>
    324c:	bf 01 00 00 00       	mov    $0x1,%edi
    3251:	b8 00 00 00 00       	mov    $0x0,%eax
    3256:	e8 e5 e0 ff ff       	callq  1340 <__printf_chk@plt>
    325b:	0f b6 54 24 10       	movzbl 0x10(%rsp),%edx
    3260:	48 8d 35 f4 0e 00 00 	lea    0xef4(%rip),%rsi        # 415b <__PRETTY_FUNCTION__.2052+0x3b>
    3267:	bf 01 00 00 00       	mov    $0x1,%edi
    326c:	b8 00 00 00 00       	mov    $0x0,%eax
    3271:	e8 ca e0 ff ff       	callq  1340 <__printf_chk@plt>
    3276:	48 8b 54 24 18       	mov    0x18(%rsp),%rdx
    327b:	48 8d 35 a7 1a 00 00 	lea    0x1aa7(%rip),%rsi        # 4d29 <short_opt+0x19>
    3282:	bf 01 00 00 00       	mov    $0x1,%edi
    3287:	b8 00 00 00 00       	mov    $0x0,%eax
    328c:	e8 af e0 ff ff       	callq  1340 <__printf_chk@plt>
    3291:	0f b7 54 24 20       	movzwl 0x20(%rsp),%edx
    3296:	48 8d 35 a5 1a 00 00 	lea    0x1aa5(%rip),%rsi        # 4d42 <short_opt+0x32>
    329d:	bf 01 00 00 00       	mov    $0x1,%edi
    32a2:	b8 00 00 00 00       	mov    $0x0,%eax
    32a7:	e8 94 e0 ff ff       	callq  1340 <__printf_chk@plt>
    32ac:	48 8b 54 24 28       	mov    0x28(%rsp),%rdx
    32b1:	48 8d 35 1d 0f 00 00 	lea    0xf1d(%rip),%rsi        # 41d5 <__PRETTY_FUNCTION__.2052+0xb5>
    32b8:	bf 01 00 00 00       	mov    $0x1,%edi
    32bd:	b8 00 00 00 00       	mov    $0x0,%eax
    32c2:	e8 79 e0 ff ff       	callq  1340 <__printf_chk@plt>
    32c7:	0f b7 54 24 30       	movzwl 0x30(%rsp),%edx
    32cc:	48 8d 35 4b 0f 00 00 	lea    0xf4b(%rip),%rsi        # 421e <__PRETTY_FUNCTION__.2052+0xfe>
    32d3:	bf 01 00 00 00       	mov    $0x1,%edi
    32d8:	b8 00 00 00 00       	mov    $0x0,%eax
    32dd:	e8 5e e0 ff ff       	callq  1340 <__printf_chk@plt>
    32e2:	48 8b 54 24 38       	mov    0x38(%rsp),%rdx
    32e7:	48 8d 35 6d 1a 00 00 	lea    0x1a6d(%rip),%rsi        # 4d5b <short_opt+0x4b>
    32ee:	bf 01 00 00 00       	mov    $0x1,%edi
    32f3:	b8 00 00 00 00       	mov    $0x0,%eax
    32f8:	e8 43 e0 ff ff       	callq  1340 <__printf_chk@plt>
    32fd:	48 8b 54 24 40       	mov    0x40(%rsp),%rdx
    3302:	48 8d 35 6b 1a 00 00 	lea    0x1a6b(%rip),%rsi        # 4d74 <short_opt+0x64>
    3309:	bf 01 00 00 00       	mov    $0x1,%edi
    330e:	b8 00 00 00 00       	mov    $0x0,%eax
    3313:	e8 28 e0 ff ff       	callq  1340 <__printf_chk@plt>
    3318:	48 8b 54 24 48       	mov    0x48(%rsp),%rdx
    331d:	48 8d 35 69 1a 00 00 	lea    0x1a69(%rip),%rsi        # 4d8d <short_opt+0x7d>
    3324:	bf 01 00 00 00       	mov    $0x1,%edi
    3329:	b8 00 00 00 00       	mov    $0x0,%eax
    332e:	e8 0d e0 ff ff       	callq  1340 <__printf_chk@plt>
    3333:	48 8b 44 24 58       	mov    0x58(%rsp),%rax
    3338:	64 48 33 04 25 28 00 	xor    %fs:0x28,%rax
    333f:	00 00 
    3341:	75 0a                	jne    334d <tcli_start+0x168>
    3343:	b8 01 00 00 00       	mov    $0x1,%eax
    3348:	48 83 c4 68          	add    $0x68,%rsp
    334c:	c3                   	retq   
    334d:	e8 fe de ff ff       	callq  1250 <__stack_chk_fail@plt>

0000000000003352 <parser_handler>:
    3352:	f3 0f 1e fa          	endbr64 
    3356:	41 55                	push   %r13
    3358:	41 54                	push   %r12
    335a:	55                   	push   %rbp
    335b:	53                   	push   %rbx
    335c:	48 83 ec 18          	sub    $0x18,%rsp
    3360:	48 89 fb             	mov    %rdi,%rbx
    3363:	48 89 f0             	mov    %rsi,%rax
    3366:	48 89 cd             	mov    %rcx,%rbp
    3369:	64 48 8b 34 25 28 00 	mov    %fs:0x28,%rsi
    3370:	00 00 
    3372:	48 89 74 24 08       	mov    %rsi,0x8(%rsp)
    3377:	31 f6                	xor    %esi,%esi
    3379:	4c 8b 67 08          	mov    0x8(%rdi),%r12
    337d:	b9 06 00 00 00       	mov    $0x6,%ecx
    3382:	48 8d 3d f8 12 00 00 	lea    0x12f8(%rip),%rdi        # 4681 <__PRETTY_FUNCTION__.2052+0x561>
    3389:	48 89 c6             	mov    %rax,%rsi
    338c:	f3 a6                	repz cmpsb %es:(%rdi),%ds:(%rsi)
    338e:	0f 97 c1             	seta   %cl
    3391:	80 d9 00             	sbb    $0x0,%cl
    3394:	84 c9                	test   %cl,%cl
    3396:	0f 84 a0 00 00 00    	je     343c <parser_handler+0xea>
    339c:	b9 07 00 00 00       	mov    $0x7,%ecx
    33a1:	48 8d 3d f9 12 00 00 	lea    0x12f9(%rip),%rdi        # 46a1 <__PRETTY_FUNCTION__.2052+0x581>
    33a8:	48 89 c6             	mov    %rax,%rsi
    33ab:	f3 a6                	repz cmpsb %es:(%rdi),%ds:(%rsi)
    33ad:	0f 97 c1             	seta   %cl
    33b0:	80 d9 00             	sbb    $0x0,%cl
    33b3:	84 c9                	test   %cl,%cl
    33b5:	0f 84 10 01 00 00    	je     34cb <parser_handler+0x179>
    33bb:	b9 05 00 00 00       	mov    $0x5,%ecx
    33c0:	48 8d 3d f9 19 00 00 	lea    0x19f9(%rip),%rdi        # 4dc0 <short_opt+0xb0>
    33c7:	48 89 c6             	mov    %rax,%rsi
    33ca:	f3 a6                	repz cmpsb %es:(%rdi),%ds:(%rsi)
    33cc:	0f 97 c1             	seta   %cl
    33cf:	80 d9 00             	sbb    $0x0,%cl
    33d2:	84 c9                	test   %cl,%cl
    33d4:	0f 84 1a 02 00 00    	je     35f4 <parser_handler+0x2a2>
    33da:	b9 06 00 00 00       	mov    $0x6,%ecx
    33df:	48 8d 3d 0a 13 00 00 	lea    0x130a(%rip),%rdi        # 46f0 <__PRETTY_FUNCTION__.2052+0x5d0>
    33e6:	48 89 c6             	mov    %rax,%rsi
    33e9:	f3 a6                	repz cmpsb %es:(%rdi),%ds:(%rsi)
    33eb:	0f 97 c1             	seta   %cl
    33ee:	80 d9 00             	sbb    $0x0,%cl
    33f1:	84 c9                	test   %cl,%cl
    33f3:	0f 84 a4 02 00 00    	je     369d <parser_handler+0x34b>
    33f9:	44 89 c1             	mov    %r8d,%ecx
    33fc:	48 89 c2             	mov    %rax,%rdx
    33ff:	48 8d 35 02 14 00 00 	lea    0x1402(%rip),%rsi        # 4808 <__PRETTY_FUNCTION__.2052+0x6e8>
    3406:	bf 01 00 00 00       	mov    $0x1,%edi
    340b:	b8 00 00 00 00       	mov    $0x0,%eax
    3410:	e8 2b df ff ff       	callq  1340 <__printf_chk@plt>
    3415:	c6 03 01             	movb   $0x1,(%rbx)
    3418:	b8 00 00 00 00       	mov    $0x0,%eax
    341d:	48 8b 5c 24 08       	mov    0x8(%rsp),%rbx
    3422:	64 48 33 1c 25 28 00 	xor    %fs:0x28,%rbx
    3429:	00 00 
    342b:	0f 85 a7 02 00 00    	jne    36d8 <parser_handler+0x386>
    3431:	48 83 c4 18          	add    $0x18,%rsp
    3435:	5b                   	pop    %rbx
    3436:	5d                   	pop    %rbp
    3437:	41 5c                	pop    %r12
    3439:	41 5d                	pop    %r13
    343b:	c3                   	retq   
    343c:	b9 04 00 00 00       	mov    $0x4,%ecx
    3441:	48 8d 3d 3f 12 00 00 	lea    0x123f(%rip),%rdi        # 4687 <__PRETTY_FUNCTION__.2052+0x567>
    3448:	48 89 d6             	mov    %rdx,%rsi
    344b:	f3 a6                	repz cmpsb %es:(%rdi),%ds:(%rsi)
    344d:	0f 97 c1             	seta   %cl
    3450:	80 d9 00             	sbb    $0x0,%cl
    3453:	84 c9                	test   %cl,%cl
    3455:	74 36                	je     348d <parser_handler+0x13b>
    3457:	b9 04 00 00 00       	mov    $0x4,%ecx
    345c:	48 8d 3d 3a 12 00 00 	lea    0x123a(%rip),%rdi        # 469d <__PRETTY_FUNCTION__.2052+0x57d>
    3463:	48 89 d6             	mov    %rdx,%rsi
    3466:	f3 a6                	repz cmpsb %es:(%rdi),%ds:(%rsi)
    3468:	0f 97 c1             	seta   %cl
    346b:	80 d9 00             	sbb    $0x0,%cl
    346e:	84 c9                	test   %cl,%cl
    3470:	74 37                	je     34a9 <parser_handler+0x157>
    3472:	48 89 c1             	mov    %rax,%rcx
    3475:	48 8d 35 b4 13 00 00 	lea    0x13b4(%rip),%rsi        # 4830 <__PRETTY_FUNCTION__.2052+0x710>
    347c:	bf 01 00 00 00       	mov    $0x1,%edi
    3481:	b8 00 00 00 00       	mov    $0x0,%eax
    3486:	e8 b5 de ff ff       	callq  1340 <__printf_chk@plt>
    348b:	eb 88                	jmp    3415 <parser_handler+0xc3>
    348d:	be ff 00 00 00       	mov    $0xff,%esi
    3492:	48 89 ef             	mov    %rbp,%rdi
    3495:	e8 2e e8 ff ff       	callq  1cc8 <ar_strndup>
    349a:	49 89 44 24 28       	mov    %rax,0x28(%r12)
    349f:	b8 01 00 00 00       	mov    $0x1,%eax
    34a4:	e9 74 ff ff ff       	jmpq   341d <parser_handler+0xcb>
    34a9:	ba 0a 00 00 00       	mov    $0xa,%edx
    34ae:	be 00 00 00 00       	mov    $0x0,%esi
    34b3:	48 89 ef             	mov    %rbp,%rdi
    34b6:	e8 45 de ff ff       	callq  1300 <strtol@plt>
    34bb:	66 41 89 44 24 30    	mov    %ax,0x30(%r12)
    34c1:	b8 01 00 00 00       	mov    $0x1,%eax
    34c6:	e9 52 ff ff ff       	jmpq   341d <parser_handler+0xcb>
    34cb:	b9 0a 00 00 00       	mov    $0xa,%ecx
    34d0:	48 8d 3d d1 11 00 00 	lea    0x11d1(%rip),%rdi        # 46a8 <__PRETTY_FUNCTION__.2052+0x588>
    34d7:	48 89 d6             	mov    %rdx,%rsi
    34da:	f3 a6                	repz cmpsb %es:(%rdi),%ds:(%rsi)
    34dc:	0f 97 c1             	seta   %cl
    34df:	80 d9 00             	sbb    $0x0,%cl
    34e2:	84 c9                	test   %cl,%cl
    34e4:	74 60                	je     3546 <parser_handler+0x1f4>
    34e6:	b9 0c 00 00 00       	mov    $0xc,%ecx
    34eb:	48 8d 3d b6 18 00 00 	lea    0x18b6(%rip),%rdi        # 4da8 <short_opt+0x98>
    34f2:	48 89 d6             	mov    %rdx,%rsi
    34f5:	f3 a6                	repz cmpsb %es:(%rdi),%ds:(%rsi)
    34f7:	0f 97 c1             	seta   %cl
    34fa:	80 d9 00             	sbb    $0x0,%cl
    34fd:	84 c9                	test   %cl,%cl
    34ff:	0f 84 d3 00 00 00    	je     35d8 <parser_handler+0x286>
    3505:	b9 0c 00 00 00       	mov    $0xc,%ecx
    350a:	48 8d 3d a3 18 00 00 	lea    0x18a3(%rip),%rdi        # 4db4 <short_opt+0xa4>
    3511:	48 89 d6             	mov    %rdx,%rsi
    3514:	f3 a6                	repz cmpsb %es:(%rdi),%ds:(%rsi)
    3516:	0f 97 c1             	seta   %cl
    3519:	80 d9 00             	sbb    $0x0,%cl
    351c:	84 c9                	test   %cl,%cl
    351e:	0f 85 4e ff ff ff    	jne    3472 <parser_handler+0x120>
    3524:	ba 0a 00 00 00       	mov    $0xa,%edx
    3529:	be 00 00 00 00       	mov    $0x0,%esi
    352e:	48 89 ef             	mov    %rbp,%rdi
    3531:	e8 ca dd ff ff       	callq  1300 <strtol@plt>
    3536:	66 41 89 44 24 20    	mov    %ax,0x20(%r12)
    353c:	b8 01 00 00 00       	mov    $0x1,%eax
    3541:	e9 d7 fe ff ff       	jmpq   341d <parser_handler+0xcb>
    3546:	c7 44 24 04 00 00 00 	movl   $0x0,0x4(%rsp)
    354d:	00 
    354e:	4c 8d 6c 24 04       	lea    0x4(%rsp),%r13
    3553:	ba 03 00 00 00       	mov    $0x3,%edx
    3558:	48 89 ee             	mov    %rbp,%rsi
    355b:	4c 89 ef             	mov    %r13,%rdi
    355e:	e8 bd dc ff ff       	callq  1220 <strncpy@plt>
    3563:	81 4c 24 04 20 20 20 	orl    $0x20202020,0x4(%rsp)
    356a:	20 
    356b:	c6 44 24 07 00       	movb   $0x0,0x7(%rsp)
    3570:	ba 04 00 00 00       	mov    $0x4,%edx
    3575:	48 8d 35 36 11 00 00 	lea    0x1136(%rip),%rsi        # 46b2 <__PRETTY_FUNCTION__.2052+0x592>
    357c:	4c 89 ef             	mov    %r13,%rdi
    357f:	e8 4c dd ff ff       	callq  12d0 <memcmp@plt>
    3584:	85 c0                	test   %eax,%eax
    3586:	75 10                	jne    3598 <parser_handler+0x246>
    3588:	41 c6 44 24 10 01    	movb   $0x1,0x10(%r12)
    358e:	b8 01 00 00 00       	mov    $0x1,%eax
    3593:	e9 85 fe ff ff       	jmpq   341d <parser_handler+0xcb>
    3598:	48 8d 7c 24 04       	lea    0x4(%rsp),%rdi
    359d:	ba 04 00 00 00       	mov    $0x4,%edx
    35a2:	48 8d 35 0d 11 00 00 	lea    0x110d(%rip),%rsi        # 46b6 <__PRETTY_FUNCTION__.2052+0x596>
    35a9:	e8 22 dd ff ff       	callq  12d0 <memcmp@plt>
    35ae:	85 c0                	test   %eax,%eax
    35b0:	75 08                	jne    35ba <parser_handler+0x268>
    35b2:	41 c6 44 24 10 02    	movb   $0x2,0x10(%r12)
    35b8:	eb d4                	jmp    358e <parser_handler+0x23c>
    35ba:	48 89 ea             	mov    %rbp,%rdx
    35bd:	48 8d 35 f6 10 00 00 	lea    0x10f6(%rip),%rsi        # 46ba <__PRETTY_FUNCTION__.2052+0x59a>
    35c4:	bf 01 00 00 00       	mov    $0x1,%edi
    35c9:	b8 00 00 00 00       	mov    $0x0,%eax
    35ce:	e8 6d dd ff ff       	callq  1340 <__printf_chk@plt>
    35d3:	e9 3d fe ff ff       	jmpq   3415 <parser_handler+0xc3>
    35d8:	be ff 00 00 00       	mov    $0xff,%esi
    35dd:	48 89 ef             	mov    %rbp,%rdi
    35e0:	e8 e3 e6 ff ff       	callq  1cc8 <ar_strndup>
    35e5:	49 89 44 24 18       	mov    %rax,0x18(%r12)
    35ea:	b8 01 00 00 00       	mov    $0x1,%eax
    35ef:	e9 29 fe ff ff       	jmpq   341d <parser_handler+0xcb>
    35f4:	b9 09 00 00 00       	mov    $0x9,%ecx
    35f9:	48 8d 3d c5 17 00 00 	lea    0x17c5(%rip),%rdi        # 4dc5 <short_opt+0xb5>
    3600:	48 89 d6             	mov    %rdx,%rsi
    3603:	f3 a6                	repz cmpsb %es:(%rdi),%ds:(%rsi)
    3605:	0f 97 c1             	seta   %cl
    3608:	80 d9 00             	sbb    $0x0,%cl
    360b:	84 c9                	test   %cl,%cl
    360d:	74 56                	je     3665 <parser_handler+0x313>
    360f:	b9 09 00 00 00       	mov    $0x9,%ecx
    3614:	48 8d 3d b3 17 00 00 	lea    0x17b3(%rip),%rdi        # 4dce <short_opt+0xbe>
    361b:	48 89 d6             	mov    %rdx,%rsi
    361e:	f3 a6                	repz cmpsb %es:(%rdi),%ds:(%rsi)
    3620:	0f 97 c1             	seta   %cl
    3623:	80 d9 00             	sbb    $0x0,%cl
    3626:	84 c9                	test   %cl,%cl
    3628:	74 57                	je     3681 <parser_handler+0x32f>
    362a:	b9 0b 00 00 00       	mov    $0xb,%ecx
    362f:	48 8d 3d a1 17 00 00 	lea    0x17a1(%rip),%rdi        # 4dd7 <short_opt+0xc7>
    3636:	48 89 d6             	mov    %rdx,%rsi
    3639:	f3 a6                	repz cmpsb %es:(%rdi),%ds:(%rsi)
    363b:	0f 97 c1             	seta   %cl
    363e:	80 d9 00             	sbb    $0x0,%cl
    3641:	84 c9                	test   %cl,%cl
    3643:	0f 85 29 fe ff ff    	jne    3472 <parser_handler+0x120>
    3649:	be ff 00 00 00       	mov    $0xff,%esi
    364e:	48 89 ef             	mov    %rbp,%rdi
    3651:	e8 72 e6 ff ff       	callq  1cc8 <ar_strndup>
    3656:	49 89 44 24 48       	mov    %rax,0x48(%r12)
    365b:	b8 01 00 00 00       	mov    $0x1,%eax
    3660:	e9 b8 fd ff ff       	jmpq   341d <parser_handler+0xcb>
    3665:	be ff 00 00 00       	mov    $0xff,%esi
    366a:	48 89 ef             	mov    %rbp,%rdi
    366d:	e8 56 e6 ff ff       	callq  1cc8 <ar_strndup>
    3672:	49 89 44 24 38       	mov    %rax,0x38(%r12)
    3677:	b8 01 00 00 00       	mov    $0x1,%eax
    367c:	e9 9c fd ff ff       	jmpq   341d <parser_handler+0xcb>
    3681:	be ff 00 00 00       	mov    $0xff,%esi
    3686:	48 89 ef             	mov    %rbp,%rdi
    3689:	e8 3a e6 ff ff       	callq  1cc8 <ar_strndup>
    368e:	49 89 44 24 40       	mov    %rax,0x40(%r12)
    3693:	b8 01 00 00 00       	mov    $0x1,%eax
    3698:	e9 80 fd ff ff       	jmpq   341d <parser_handler+0xcb>
    369d:	b9 09 00 00 00       	mov    $0x9,%ecx
    36a2:	48 8d 3d 4d 10 00 00 	lea    0x104d(%rip),%rdi        # 46f6 <__PRETTY_FUNCTION__.2052+0x5d6>
    36a9:	48 89 d6             	mov    %rdx,%rsi
    36ac:	f3 a6                	repz cmpsb %es:(%rdi),%ds:(%rsi)
    36ae:	0f 97 c1             	seta   %cl
    36b1:	80 d9 00             	sbb    $0x0,%cl
    36b4:	84 c9                	test   %cl,%cl
    36b6:	0f 85 b6 fd ff ff    	jne    3472 <parser_handler+0x120>
    36bc:	be ff 00 00 00       	mov    $0xff,%esi
    36c1:	48 89 ef             	mov    %rbp,%rdi
    36c4:	e8 ff e5 ff ff       	callq  1cc8 <ar_strndup>
    36c9:	49 89 44 24 08       	mov    %rax,0x8(%r12)
    36ce:	b8 01 00 00 00       	mov    $0x1,%eax
    36d3:	e9 45 fd ff ff       	jmpq   341d <parser_handler+0xcb>
    36d8:	e8 73 db ff ff       	callq  1250 <__stack_chk_fail@plt>

00000000000036dd <tcli_argv_parser>:
    36dd:	f3 0f 1e fa          	endbr64 
    36e1:	41 57                	push   %r15
    36e3:	41 56                	push   %r14
    36e5:	41 55                	push   %r13
    36e7:	41 54                	push   %r12
    36e9:	55                   	push   %rbp
    36ea:	53                   	push   %rbx
    36eb:	48 83 ec 18          	sub    $0x18,%rsp
    36ef:	64 48 8b 04 25 28 00 	mov    %fs:0x28,%rax
    36f6:	00 00 
    36f8:	48 89 44 24 08       	mov    %rax,0x8(%rsp)
    36fd:	31 c0                	xor    %eax,%eax
    36ff:	48 8d 05 5a 39 00 00 	lea    0x395a(%rip),%rax        # 7060 <def_cfg_file>
    3706:	48 89 02             	mov    %rax,(%rdx)
    3709:	48 c7 42 08 00 00 00 	movq   $0x0,0x8(%rdx)
    3710:	00 
    3711:	c6 42 10 01          	movb   $0x1,0x10(%rdx)
    3715:	48 c7 42 18 00 00 00 	movq   $0x0,0x18(%rdx)
    371c:	00 
    371d:	66 c7 42 20 03 d9    	movw   $0xd903,0x20(%rdx)
    3723:	48 8d 05 4e 39 00 00 	lea    0x394e(%rip),%rax        # 7078 <def_dev>
    372a:	48 89 42 28          	mov    %rax,0x28(%rdx)
    372e:	66 c7 42 30 dc 05    	movw   $0x5dc,0x30(%rdx)
    3734:	48 c7 42 38 00 00 00 	movq   $0x0,0x38(%rdx)
    373b:	00 
    373c:	48 c7 42 40 00 00 00 	movq   $0x0,0x40(%rdx)
    3743:	00 
    3744:	48 c7 42 48 00 00 00 	movq   $0x0,0x48(%rdx)
    374b:	00 
    374c:	b8 01 00 00 00       	mov    $0x1,%eax
    3751:	83 ff 01             	cmp    $0x1,%edi
    3754:	0f 84 f8 03 00 00    	je     3b52 <tcli_argv_parser+0x475>
    375a:	89 fd                	mov    %edi,%ebp
    375c:	49 89 f4             	mov    %rsi,%r12
    375f:	48 89 d3             	mov    %rdx,%rbx
    3762:	4c 8d 2d a7 17 00 00 	lea    0x17a7(%rip),%r13        # 4f10 <short_opt+0x200>
    3769:	c7 04 24 00 00 00 00 	movl   $0x0,(%rsp)
    3770:	49 89 e0             	mov    %rsp,%r8
    3773:	48 8d 0d a6 33 00 00 	lea    0x33a6(%rip),%rcx        # 6b20 <long_opt>
    377a:	48 8d 15 5f 18 00 00 	lea    0x185f(%rip),%rdx        # 4fe0 <short_opt>
    3781:	4c 89 e6             	mov    %r12,%rsi
    3784:	89 ef                	mov    %ebp,%edi
    3786:	e8 d5 da ff ff       	callq  1260 <getopt_long@plt>
    378b:	83 f8 ff             	cmp    $0xffffffff,%eax
    378e:	0f 84 3c 04 00 00    	je     3bd0 <tcli_argv_parser+0x4f3>
    3794:	83 e8 44             	sub    $0x44,%eax
    3797:	83 f8 32             	cmp    $0x32,%eax
    379a:	0f 87 aa 03 00 00    	ja     3b4a <tcli_argv_parser+0x46d>
    37a0:	89 c0                	mov    %eax,%eax
    37a2:	49 63 44 85 00       	movslq 0x0(%r13,%rax,4),%rax
    37a7:	4c 01 e8             	add    %r13,%rax
    37aa:	3e ff e0             	notrack jmpq *%rax
    37ad:	49 8b 0c 24          	mov    (%r12),%rcx
    37b1:	48 8b 15 f0 38 00 00 	mov    0x38f0(%rip),%rdx        # 70a8 <app_name>
    37b8:	48 8d 35 40 0f 00 00 	lea    0xf40(%rip),%rsi        # 46ff <__PRETTY_FUNCTION__.2052+0x5df>
    37bf:	bf 01 00 00 00       	mov    $0x1,%edi
    37c4:	b8 00 00 00 00       	mov    $0x0,%eax
    37c9:	e8 72 db ff ff       	callq  1340 <__printf_chk@plt>
    37ce:	48 8d 35 de 0f 00 00 	lea    0xfde(%rip),%rsi        # 47b3 <__PRETTY_FUNCTION__.2052+0x693>
    37d5:	bf 01 00 00 00       	mov    $0x1,%edi
    37da:	b8 00 00 00 00       	mov    $0x0,%eax
    37df:	e8 5c db ff ff       	callq  1340 <__printf_chk@plt>
    37e4:	48 8d 35 f7 15 00 00 	lea    0x15f7(%rip),%rsi        # 4de2 <short_opt+0xd2>
    37eb:	bf 01 00 00 00       	mov    $0x1,%edi
    37f0:	b8 00 00 00 00       	mov    $0x0,%eax
    37f5:	e8 46 db ff ff       	callq  1340 <__printf_chk@plt>
    37fa:	48 8d 35 b2 0f 00 00 	lea    0xfb2(%rip),%rsi        # 47b3 <__PRETTY_FUNCTION__.2052+0x693>
    3801:	bf 01 00 00 00       	mov    $0x1,%edi
    3806:	b8 00 00 00 00       	mov    $0x0,%eax
    380b:	e8 30 db ff ff       	callq  1340 <__printf_chk@plt>
    3810:	48 8d 35 1b 0f 00 00 	lea    0xf1b(%rip),%rsi        # 4732 <__PRETTY_FUNCTION__.2052+0x612>
    3817:	bf 01 00 00 00       	mov    $0x1,%edi
    381c:	b8 00 00 00 00       	mov    $0x0,%eax
    3821:	e8 1a db ff ff       	callq  1340 <__printf_chk@plt>
    3826:	48 8d 35 33 10 00 00 	lea    0x1033(%rip),%rsi        # 4860 <__PRETTY_FUNCTION__.2052+0x740>
    382d:	bf 01 00 00 00       	mov    $0x1,%edi
    3832:	b8 00 00 00 00       	mov    $0x0,%eax
    3837:	e8 04 db ff ff       	callq  1340 <__printf_chk@plt>
    383c:	48 8d 15 1d 38 00 00 	lea    0x381d(%rip),%rdx        # 7060 <def_cfg_file>
    3843:	48 8d 35 3e 10 00 00 	lea    0x103e(%rip),%rsi        # 4888 <__PRETTY_FUNCTION__.2052+0x768>
    384a:	bf 01 00 00 00       	mov    $0x1,%edi
    384f:	b8 00 00 00 00       	mov    $0x0,%eax
    3854:	e8 e7 da ff ff       	callq  1340 <__printf_chk@plt>
    3859:	48 8d 35 60 10 00 00 	lea    0x1060(%rip),%rsi        # 48c0 <__PRETTY_FUNCTION__.2052+0x7a0>
    3860:	bf 01 00 00 00       	mov    $0x1,%edi
    3865:	b8 00 00 00 00       	mov    $0x0,%eax
    386a:	e8 d1 da ff ff       	callq  1340 <__printf_chk@plt>
    386f:	48 8d 35 7a 10 00 00 	lea    0x107a(%rip),%rsi        # 48f0 <__PRETTY_FUNCTION__.2052+0x7d0>
    3876:	bf 01 00 00 00       	mov    $0x1,%edi
    387b:	b8 00 00 00 00       	mov    $0x0,%eax
    3880:	e8 bb da ff ff       	callq  1340 <__printf_chk@plt>
    3885:	48 8d 35 27 0f 00 00 	lea    0xf27(%rip),%rsi        # 47b3 <__PRETTY_FUNCTION__.2052+0x693>
    388c:	bf 01 00 00 00       	mov    $0x1,%edi
    3891:	b8 00 00 00 00       	mov    $0x0,%eax
    3896:	e8 a5 da ff ff       	callq  1340 <__printf_chk@plt>
    389b:	48 8d 35 a4 0e 00 00 	lea    0xea4(%rip),%rsi        # 4746 <__PRETTY_FUNCTION__.2052+0x626>
    38a2:	bf 01 00 00 00       	mov    $0x1,%edi
    38a7:	b8 00 00 00 00       	mov    $0x0,%eax
    38ac:	e8 8f da ff ff       	callq  1340 <__printf_chk@plt>
    38b1:	48 8d 35 a0 0e 00 00 	lea    0xea0(%rip),%rsi        # 4758 <__PRETTY_FUNCTION__.2052+0x638>
    38b8:	bf 01 00 00 00       	mov    $0x1,%edi
    38bd:	b8 00 00 00 00       	mov    $0x0,%eax
    38c2:	e8 79 da ff ff       	callq  1340 <__printf_chk@plt>
    38c7:	48 8d 15 aa 37 00 00 	lea    0x37aa(%rip),%rdx        # 7078 <def_dev>
    38ce:	48 8d 35 43 10 00 00 	lea    0x1043(%rip),%rsi        # 4918 <__PRETTY_FUNCTION__.2052+0x7f8>
    38d5:	bf 01 00 00 00       	mov    $0x1,%edi
    38da:	b8 00 00 00 00       	mov    $0x0,%eax
    38df:	e8 5c da ff ff       	callq  1340 <__printf_chk@plt>
    38e4:	ba dc 05 00 00       	mov    $0x5dc,%edx
    38e9:	48 8d 35 70 10 00 00 	lea    0x1070(%rip),%rsi        # 4960 <__PRETTY_FUNCTION__.2052+0x840>
    38f0:	bf 01 00 00 00       	mov    $0x1,%edi
    38f5:	b8 00 00 00 00       	mov    $0x0,%eax
    38fa:	e8 41 da ff ff       	callq  1340 <__printf_chk@plt>
    38ff:	48 8d 35 ad 0e 00 00 	lea    0xead(%rip),%rsi        # 47b3 <__PRETTY_FUNCTION__.2052+0x693>
    3906:	bf 01 00 00 00       	mov    $0x1,%edi
    390b:	b8 00 00 00 00       	mov    $0x0,%eax
    3910:	e8 2b da ff ff       	callq  1340 <__printf_chk@plt>
    3915:	48 8d 35 59 0e 00 00 	lea    0xe59(%rip),%rsi        # 4775 <__PRETTY_FUNCTION__.2052+0x655>
    391c:	bf 01 00 00 00       	mov    $0x1,%edi
    3921:	b8 00 00 00 00       	mov    $0x0,%eax
    3926:	e8 15 da ff ff       	callq  1340 <__printf_chk@plt>
    392b:	48 8d 35 ce 10 00 00 	lea    0x10ce(%rip),%rsi        # 4a00 <__PRETTY_FUNCTION__.2052+0x8e0>
    3932:	bf 01 00 00 00       	mov    $0x1,%edi
    3937:	b8 00 00 00 00       	mov    $0x0,%eax
    393c:	e8 ff d9 ff ff       	callq  1340 <__printf_chk@plt>
    3941:	48 8d 35 e0 14 00 00 	lea    0x14e0(%rip),%rsi        # 4e28 <short_opt+0x118>
    3948:	bf 01 00 00 00       	mov    $0x1,%edi
    394d:	b8 00 00 00 00       	mov    $0x0,%eax
    3952:	e8 e9 d9 ff ff       	callq  1340 <__printf_chk@plt>
    3957:	ba 03 d9 00 00       	mov    $0xd903,%edx
    395c:	48 8d 35 f5 14 00 00 	lea    0x14f5(%rip),%rsi        # 4e58 <short_opt+0x148>
    3963:	bf 01 00 00 00       	mov    $0x1,%edi
    3968:	b8 00 00 00 00       	mov    $0x0,%eax
    396d:	e8 ce d9 ff ff       	callq  1340 <__printf_chk@plt>
    3972:	48 8d 35 3a 0e 00 00 	lea    0xe3a(%rip),%rsi        # 47b3 <__PRETTY_FUNCTION__.2052+0x693>
    3979:	bf 01 00 00 00       	mov    $0x1,%edi
    397e:	b8 00 00 00 00       	mov    $0x0,%eax
    3983:	e8 b8 d9 ff ff       	callq  1340 <__printf_chk@plt>
    3988:	48 8d 35 6e 14 00 00 	lea    0x146e(%rip),%rsi        # 4dfd <short_opt+0xed>
    398f:	bf 01 00 00 00       	mov    $0x1,%edi
    3994:	b8 00 00 00 00       	mov    $0x0,%eax
    3999:	e8 a2 d9 ff ff       	callq  1340 <__printf_chk@plt>
    399e:	48 8d 35 f3 14 00 00 	lea    0x14f3(%rip),%rsi        # 4e98 <short_opt+0x188>
    39a5:	bf 01 00 00 00       	mov    $0x1,%edi
    39aa:	b8 00 00 00 00       	mov    $0x0,%eax
    39af:	e8 8c d9 ff ff       	callq  1340 <__printf_chk@plt>
    39b4:	48 8d 35 05 15 00 00 	lea    0x1505(%rip),%rsi        # 4ec0 <short_opt+0x1b0>
    39bb:	bf 01 00 00 00       	mov    $0x1,%edi
    39c0:	b8 00 00 00 00       	mov    $0x0,%eax
    39c5:	e8 76 d9 ff ff       	callq  1340 <__printf_chk@plt>
    39ca:	48 8d 35 17 15 00 00 	lea    0x1517(%rip),%rsi        # 4ee8 <short_opt+0x1d8>
    39d1:	bf 01 00 00 00       	mov    $0x1,%edi
    39d6:	b8 00 00 00 00       	mov    $0x0,%eax
    39db:	e8 60 d9 ff ff       	callq  1340 <__printf_chk@plt>
    39e0:	48 8d 35 cc 0d 00 00 	lea    0xdcc(%rip),%rsi        # 47b3 <__PRETTY_FUNCTION__.2052+0x693>
    39e7:	bf 01 00 00 00       	mov    $0x1,%edi
    39ec:	b8 00 00 00 00       	mov    $0x0,%eax
    39f1:	e8 4a d9 ff ff       	callq  1340 <__printf_chk@plt>
    39f6:	48 8d 35 b6 0d 00 00 	lea    0xdb6(%rip),%rsi        # 47b3 <__PRETTY_FUNCTION__.2052+0x693>
    39fd:	bf 01 00 00 00       	mov    $0x1,%edi
    3a02:	b8 00 00 00 00       	mov    $0x0,%eax
    3a07:	e8 34 d9 ff ff       	callq  1340 <__printf_chk@plt>
    3a0c:	48 8d 35 2d 11 00 00 	lea    0x112d(%rip),%rsi        # 4b40 <__PRETTY_FUNCTION__.2052+0xa20>
    3a13:	bf 01 00 00 00       	mov    $0x1,%edi
    3a18:	b8 00 00 00 00       	mov    $0x0,%eax
    3a1d:	e8 1e d9 ff ff       	callq  1340 <__printf_chk@plt>
    3a22:	48 8d 35 57 11 00 00 	lea    0x1157(%rip),%rsi        # 4b80 <__PRETTY_FUNCTION__.2052+0xa60>
    3a29:	bf 01 00 00 00       	mov    $0x1,%edi
    3a2e:	b8 00 00 00 00       	mov    $0x0,%eax
    3a33:	e8 08 d9 ff ff       	callq  1340 <__printf_chk@plt>
    3a38:	48 8d 35 74 0d 00 00 	lea    0xd74(%rip),%rsi        # 47b3 <__PRETTY_FUNCTION__.2052+0x693>
    3a3f:	bf 01 00 00 00       	mov    $0x1,%edi
    3a44:	b8 00 00 00 00       	mov    $0x0,%eax
    3a49:	e8 f2 d8 ff ff       	callq  1340 <__printf_chk@plt>
    3a4e:	48 8d 35 6b 11 00 00 	lea    0x116b(%rip),%rsi        # 4bc0 <__PRETTY_FUNCTION__.2052+0xaa0>
    3a55:	bf 01 00 00 00       	mov    $0x1,%edi
    3a5a:	b8 00 00 00 00       	mov    $0x0,%eax
    3a5f:	e8 dc d8 ff ff       	callq  1340 <__printf_chk@plt>
    3a64:	b8 01 00 00 00       	mov    $0x1,%eax
    3a69:	e9 e1 00 00 00       	jmpq   3b4f <tcli_argv_parser+0x472>
    3a6e:	48 8b 05 0b 36 00 00 	mov    0x360b(%rip),%rax        # 7080 <optarg@@GLIBC_2.2.5>
    3a75:	48 89 03             	mov    %rax,(%rbx)
    3a78:	e9 ec fc ff ff       	jmpq   3769 <tcli_argv_parser+0x8c>
    3a7d:	48 8b 05 fc 35 00 00 	mov    0x35fc(%rip),%rax        # 7080 <optarg@@GLIBC_2.2.5>
    3a84:	48 89 43 08          	mov    %rax,0x8(%rbx)
    3a88:	e9 dc fc ff ff       	jmpq   3769 <tcli_argv_parser+0x8c>
    3a8d:	48 8b 05 ec 35 00 00 	mov    0x35ec(%rip),%rax        # 7080 <optarg@@GLIBC_2.2.5>
    3a94:	48 89 43 28          	mov    %rax,0x28(%rbx)
    3a98:	e9 cc fc ff ff       	jmpq   3769 <tcli_argv_parser+0x8c>
    3a9d:	ba 0a 00 00 00       	mov    $0xa,%edx
    3aa2:	be 00 00 00 00       	mov    $0x0,%esi
    3aa7:	48 8b 3d d2 35 00 00 	mov    0x35d2(%rip),%rdi        # 7080 <optarg@@GLIBC_2.2.5>
    3aae:	e8 4d d8 ff ff       	callq  1300 <strtol@plt>
    3ab3:	66 89 43 30          	mov    %ax,0x30(%rbx)
    3ab7:	e9 ad fc ff ff       	jmpq   3769 <tcli_argv_parser+0x8c>
    3abc:	c7 44 24 04 00 00 00 	movl   $0x0,0x4(%rsp)
    3ac3:	00 
    3ac4:	4c 8b 3d b5 35 00 00 	mov    0x35b5(%rip),%r15        # 7080 <optarg@@GLIBC_2.2.5>
    3acb:	4c 8d 74 24 04       	lea    0x4(%rsp),%r14
    3ad0:	ba 03 00 00 00       	mov    $0x3,%edx
    3ad5:	4c 89 fe             	mov    %r15,%rsi
    3ad8:	4c 89 f7             	mov    %r14,%rdi
    3adb:	e8 40 d7 ff ff       	callq  1220 <strncpy@plt>
    3ae0:	81 4c 24 04 20 20 20 	orl    $0x20202020,0x4(%rsp)
    3ae7:	20 
    3ae8:	c6 44 24 07 00       	movb   $0x0,0x7(%rsp)
    3aed:	ba 04 00 00 00       	mov    $0x4,%edx
    3af2:	48 8d 35 b9 0b 00 00 	lea    0xbb9(%rip),%rsi        # 46b2 <__PRETTY_FUNCTION__.2052+0x592>
    3af9:	4c 89 f7             	mov    %r14,%rdi
    3afc:	e8 cf d7 ff ff       	callq  12d0 <memcmp@plt>
    3b01:	85 c0                	test   %eax,%eax
    3b03:	75 09                	jne    3b0e <tcli_argv_parser+0x431>
    3b05:	c6 43 10 01          	movb   $0x1,0x10(%rbx)
    3b09:	e9 5b fc ff ff       	jmpq   3769 <tcli_argv_parser+0x8c>
    3b0e:	48 8d 7c 24 04       	lea    0x4(%rsp),%rdi
    3b13:	ba 04 00 00 00       	mov    $0x4,%edx
    3b18:	48 8d 35 97 0b 00 00 	lea    0xb97(%rip),%rsi        # 46b6 <__PRETTY_FUNCTION__.2052+0x596>
    3b1f:	e8 ac d7 ff ff       	callq  12d0 <memcmp@plt>
    3b24:	85 c0                	test   %eax,%eax
    3b26:	75 09                	jne    3b31 <tcli_argv_parser+0x454>
    3b28:	c6 43 10 02          	movb   $0x2,0x10(%rbx)
    3b2c:	e9 38 fc ff ff       	jmpq   3769 <tcli_argv_parser+0x8c>
    3b31:	4c 89 fa             	mov    %r15,%rdx
    3b34:	48 8d 35 7f 0b 00 00 	lea    0xb7f(%rip),%rsi        # 46ba <__PRETTY_FUNCTION__.2052+0x59a>
    3b3b:	bf 01 00 00 00       	mov    $0x1,%edi
    3b40:	b8 00 00 00 00       	mov    $0x0,%eax
    3b45:	e8 f6 d7 ff ff       	callq  1340 <__printf_chk@plt>
    3b4a:	b8 01 00 00 00       	mov    $0x1,%eax
    3b4f:	83 f0 01             	xor    $0x1,%eax
    3b52:	48 8b 4c 24 08       	mov    0x8(%rsp),%rcx
    3b57:	64 48 33 0c 25 28 00 	xor    %fs:0x28,%rcx
    3b5e:	00 00 
    3b60:	75 78                	jne    3bda <tcli_argv_parser+0x4fd>
    3b62:	48 83 c4 18          	add    $0x18,%rsp
    3b66:	5b                   	pop    %rbx
    3b67:	5d                   	pop    %rbp
    3b68:	41 5c                	pop    %r12
    3b6a:	41 5d                	pop    %r13
    3b6c:	41 5e                	pop    %r14
    3b6e:	41 5f                	pop    %r15
    3b70:	c3                   	retq   
    3b71:	48 8b 05 08 35 00 00 	mov    0x3508(%rip),%rax        # 7080 <optarg@@GLIBC_2.2.5>
    3b78:	48 89 43 18          	mov    %rax,0x18(%rbx)
    3b7c:	e9 e8 fb ff ff       	jmpq   3769 <tcli_argv_parser+0x8c>
    3b81:	ba 0a 00 00 00       	mov    $0xa,%edx
    3b86:	be 00 00 00 00       	mov    $0x0,%esi
    3b8b:	48 8b 3d ee 34 00 00 	mov    0x34ee(%rip),%rdi        # 7080 <optarg@@GLIBC_2.2.5>
    3b92:	e8 69 d7 ff ff       	callq  1300 <strtol@plt>
    3b97:	66 89 43 20          	mov    %ax,0x20(%rbx)
    3b9b:	e9 c9 fb ff ff       	jmpq   3769 <tcli_argv_parser+0x8c>
    3ba0:	48 8b 05 d9 34 00 00 	mov    0x34d9(%rip),%rax        # 7080 <optarg@@GLIBC_2.2.5>
    3ba7:	48 89 43 38          	mov    %rax,0x38(%rbx)
    3bab:	e9 b9 fb ff ff       	jmpq   3769 <tcli_argv_parser+0x8c>
    3bb0:	48 8b 05 c9 34 00 00 	mov    0x34c9(%rip),%rax        # 7080 <optarg@@GLIBC_2.2.5>
    3bb7:	48 89 43 40          	mov    %rax,0x40(%rbx)
    3bbb:	e9 a9 fb ff ff       	jmpq   3769 <tcli_argv_parser+0x8c>
    3bc0:	48 8b 05 b9 34 00 00 	mov    0x34b9(%rip),%rax        # 7080 <optarg@@GLIBC_2.2.5>
    3bc7:	48 89 43 48          	mov    %rax,0x48(%rbx)
    3bcb:	e9 99 fb ff ff       	jmpq   3769 <tcli_argv_parser+0x8c>
    3bd0:	b8 00 00 00 00       	mov    $0x0,%eax
    3bd5:	e9 75 ff ff ff       	jmpq   3b4f <tcli_argv_parser+0x472>
    3bda:	e8 71 d6 ff ff       	callq  1250 <__stack_chk_fail@plt>

0000000000003bdf <tcli_cfg_load>:
    3bdf:	f3 0f 1e fa          	endbr64 
    3be3:	53                   	push   %rbx
    3be4:	48 83 ec 20          	sub    $0x20,%rsp
    3be8:	48 89 fb             	mov    %rdi,%rbx
    3beb:	64 48 8b 04 25 28 00 	mov    %fs:0x28,%rax
    3bf2:	00 00 
    3bf4:	48 89 44 24 18       	mov    %rax,0x18(%rsp)
    3bf9:	31 c0                	xor    %eax,%eax
    3bfb:	48 89 74 24 08       	mov    %rsi,0x8(%rsp)
    3c00:	c6 04 24 00          	movb   $0x0,(%rsp)
    3c04:	48 89 e2             	mov    %rsp,%rdx
    3c07:	48 8d 35 44 f7 ff ff 	lea    -0x8bc(%rip),%rsi        # 3352 <parser_handler>
    3c0e:	e8 ec dc ff ff       	callq  18ff <ini_parse>
    3c13:	85 c0                	test   %eax,%eax
    3c15:	78 21                	js     3c38 <tcli_cfg_load+0x59>
    3c17:	b8 01 00 00 00       	mov    $0x1,%eax
    3c1c:	80 3c 24 00          	cmpb   $0x0,(%rsp)
    3c20:	75 36                	jne    3c58 <tcli_cfg_load+0x79>
    3c22:	48 8b 4c 24 18       	mov    0x18(%rsp),%rcx
    3c27:	64 48 33 0c 25 28 00 	xor    %fs:0x28,%rcx
    3c2e:	00 00 
    3c30:	75 43                	jne    3c75 <tcli_cfg_load+0x96>
    3c32:	48 83 c4 20          	add    $0x20,%rsp
    3c36:	5b                   	pop    %rbx
    3c37:	c3                   	retq   
    3c38:	48 89 da             	mov    %rbx,%rdx
    3c3b:	48 8d 35 3d 0b 00 00 	lea    0xb3d(%rip),%rsi        # 477f <__PRETTY_FUNCTION__.2052+0x65f>
    3c42:	bf 01 00 00 00       	mov    $0x1,%edi
    3c47:	b8 00 00 00 00       	mov    $0x0,%eax
    3c4c:	e8 ef d6 ff ff       	callq  1340 <__printf_chk@plt>
    3c51:	b8 00 00 00 00       	mov    $0x0,%eax
    3c56:	eb ca                	jmp    3c22 <tcli_cfg_load+0x43>
    3c58:	48 8d 35 3a 0b 00 00 	lea    0xb3a(%rip),%rsi        # 4799 <__PRETTY_FUNCTION__.2052+0x679>
    3c5f:	bf 01 00 00 00       	mov    $0x1,%edi
    3c64:	b8 00 00 00 00       	mov    $0x0,%eax
    3c69:	e8 d2 d6 ff ff       	callq  1340 <__printf_chk@plt>
    3c6e:	b8 00 00 00 00       	mov    $0x0,%eax
    3c73:	eb ad                	jmp    3c22 <tcli_cfg_load+0x43>
    3c75:	e8 d6 d5 ff ff       	callq  1250 <__stack_chk_fail@plt>

0000000000003c7a <main>:
    3c7a:	f3 0f 1e fa          	endbr64 
    3c7e:	41 54                	push   %r12
    3c80:	55                   	push   %rbp
    3c81:	53                   	push   %rbx
    3c82:	48 81 ec 00 10 00 00 	sub    $0x1000,%rsp
    3c89:	48 83 0c 24 00       	orq    $0x0,(%rsp)
    3c8e:	48 83 ec 10          	sub    $0x10,%rsp
    3c92:	48 89 f3             	mov    %rsi,%rbx
    3c95:	64 48 8b 04 25 28 00 	mov    %fs:0x28,%rax
    3c9c:	00 00 
    3c9e:	48 89 84 24 08 10 00 	mov    %rax,0x1008(%rsp)
    3ca5:	00 
    3ca6:	31 c0                	xor    %eax,%eax
    3ca8:	83 ff 01             	cmp    $0x1,%edi
    3cab:	74 65                	je     3d12 <main+0x98>
    3cad:	41 89 fc             	mov    %edi,%r12d
    3cb0:	48 89 e7             	mov    %rsp,%rdi
    3cb3:	be 00 10 00 00       	mov    $0x1000,%esi
    3cb8:	e8 28 df ff ff       	callq  1be5 <ar_init>
    3cbd:	48 8b 03             	mov    (%rbx),%rax
    3cc0:	48 89 05 e1 33 00 00 	mov    %rax,0x33e1(%rip)        # 70a8 <app_name>
    3cc7:	48 8b 6b 08          	mov    0x8(%rbx),%rbp
    3ccb:	48 8d 35 25 13 00 00 	lea    0x1325(%rip),%rsi        # 4ff7 <short_opt+0x17>
    3cd2:	48 89 ef             	mov    %rbp,%rdi
    3cd5:	e8 16 d6 ff ff       	callq  12f0 <strcmp@plt>
    3cda:	85 c0                	test   %eax,%eax
    3cdc:	0f 84 fa 00 00 00    	je     3ddc <main+0x162>
    3ce2:	48 8d 35 15 13 00 00 	lea    0x1315(%rip),%rsi        # 4ffe <short_opt+0x1e>
    3ce9:	48 89 ef             	mov    %rbp,%rdi
    3cec:	e8 ff d5 ff ff       	callq  12f0 <strcmp@plt>
    3cf1:	85 c0                	test   %eax,%eax
    3cf3:	0f 84 f3 00 00 00    	je     3dec <main+0x172>
    3cf9:	48 89 ea             	mov    %rbp,%rdx
    3cfc:	48 8d 35 02 13 00 00 	lea    0x1302(%rip),%rsi        # 5005 <short_opt+0x25>
    3d03:	bf 01 00 00 00       	mov    $0x1,%edi
    3d08:	b8 00 00 00 00       	mov    $0x0,%eax
    3d0d:	e8 2e d6 ff ff       	callq  1340 <__printf_chk@plt>
    3d12:	48 8b 1b             	mov    (%rbx),%rbx
    3d15:	48 89 da             	mov    %rbx,%rdx
    3d18:	48 8d 35 01 13 00 00 	lea    0x1301(%rip),%rsi        # 5020 <short_opt+0x40>
    3d1f:	bf 01 00 00 00       	mov    $0x1,%edi
    3d24:	b8 00 00 00 00       	mov    $0x0,%eax
    3d29:	e8 12 d6 ff ff       	callq  1340 <__printf_chk@plt>
    3d2e:	48 8d 35 7e 0a 00 00 	lea    0xa7e(%rip),%rsi        # 47b3 <__PRETTY_FUNCTION__.2052+0x693>
    3d35:	bf 01 00 00 00       	mov    $0x1,%edi
    3d3a:	b8 00 00 00 00       	mov    $0x0,%eax
    3d3f:	e8 fc d5 ff ff       	callq  1340 <__printf_chk@plt>
    3d44:	48 8d 35 fd 12 00 00 	lea    0x12fd(%rip),%rsi        # 5048 <short_opt+0x68>
    3d4b:	bf 01 00 00 00       	mov    $0x1,%edi
    3d50:	b8 00 00 00 00       	mov    $0x0,%eax
    3d55:	e8 e6 d5 ff ff       	callq  1340 <__printf_chk@plt>
    3d5a:	48 8d 35 52 0a 00 00 	lea    0xa52(%rip),%rsi        # 47b3 <__PRETTY_FUNCTION__.2052+0x693>
    3d61:	bf 01 00 00 00       	mov    $0x1,%edi
    3d66:	b8 00 00 00 00       	mov    $0x0,%eax
    3d6b:	e8 d0 d5 ff ff       	callq  1340 <__printf_chk@plt>
    3d70:	48 89 da             	mov    %rbx,%rdx
    3d73:	48 8d 35 f6 12 00 00 	lea    0x12f6(%rip),%rsi        # 5070 <short_opt+0x90>
    3d7a:	bf 01 00 00 00       	mov    $0x1,%edi
    3d7f:	b8 00 00 00 00       	mov    $0x0,%eax
    3d84:	e8 b7 d5 ff ff       	callq  1340 <__printf_chk@plt>
    3d89:	48 89 da             	mov    %rbx,%rdx
    3d8c:	48 8d 35 15 13 00 00 	lea    0x1315(%rip),%rsi        # 50a8 <short_opt+0xc8>
    3d93:	bf 01 00 00 00       	mov    $0x1,%edi
    3d98:	b8 00 00 00 00       	mov    $0x0,%eax
    3d9d:	e8 9e d5 ff ff       	callq  1340 <__printf_chk@plt>
    3da2:	48 8d 35 0a 0a 00 00 	lea    0xa0a(%rip),%rsi        # 47b3 <__PRETTY_FUNCTION__.2052+0x693>
    3da9:	bf 01 00 00 00       	mov    $0x1,%edi
    3dae:	b8 00 00 00 00       	mov    $0x0,%eax
    3db3:	e8 88 d5 ff ff       	callq  1340 <__printf_chk@plt>
    3db8:	b8 01 00 00 00       	mov    $0x1,%eax
    3dbd:	48 8b 8c 24 08 10 00 	mov    0x1008(%rsp),%rcx
    3dc4:	00 
    3dc5:	64 48 33 0c 25 28 00 	xor    %fs:0x28,%rcx
    3dcc:	00 00 
    3dce:	75 2c                	jne    3dfc <main+0x182>
    3dd0:	48 81 c4 10 10 00 00 	add    $0x1010,%rsp
    3dd7:	5b                   	pop    %rbx
    3dd8:	5d                   	pop    %rbp
    3dd9:	41 5c                	pop    %r12
    3ddb:	c3                   	retq   
    3ddc:	48 8d 73 08          	lea    0x8(%rbx),%rsi
    3de0:	41 8d 7c 24 ff       	lea    -0x1(%r12),%edi
    3de5:	e8 59 df ff ff       	callq  1d43 <tsrv_start>
    3dea:	eb d1                	jmp    3dbd <main+0x143>
    3dec:	48 8d 73 08          	lea    0x8(%rbx),%rsi
    3df0:	41 8d 7c 24 ff       	lea    -0x1(%r12),%edi
    3df5:	e8 eb f3 ff ff       	callq  31e5 <tcli_start>
    3dfa:	eb c1                	jmp    3dbd <main+0x143>
    3dfc:	e8 4f d4 ff ff       	callq  1250 <__stack_chk_fail@plt>
    3e01:	66 2e 0f 1f 84 00 00 	nopw   %cs:0x0(%rax,%rax,1)
    3e08:	00 00 00 
    3e0b:	0f 1f 44 00 00       	nopl   0x0(%rax,%rax,1)

0000000000003e10 <__libc_csu_init>:
    3e10:	f3 0f 1e fa          	endbr64 
    3e14:	41 57                	push   %r15
    3e16:	4c 8d 3d 33 2b 00 00 	lea    0x2b33(%rip),%r15        # 6950 <__frame_dummy_init_array_entry>
    3e1d:	41 56                	push   %r14
    3e1f:	49 89 d6             	mov    %rdx,%r14
    3e22:	41 55                	push   %r13
    3e24:	49 89 f5             	mov    %rsi,%r13
    3e27:	41 54                	push   %r12
    3e29:	41 89 fc             	mov    %edi,%r12d
    3e2c:	55                   	push   %rbp
    3e2d:	48 8d 2d 24 2b 00 00 	lea    0x2b24(%rip),%rbp        # 6958 <__do_global_dtors_aux_fini_array_entry>
    3e34:	53                   	push   %rbx
    3e35:	4c 29 fd             	sub    %r15,%rbp
    3e38:	48 83 ec 08          	sub    $0x8,%rsp
    3e3c:	e8 bf d1 ff ff       	callq  1000 <_init>
    3e41:	48 c1 fd 03          	sar    $0x3,%rbp
    3e45:	74 1f                	je     3e66 <__libc_csu_init+0x56>
    3e47:	31 db                	xor    %ebx,%ebx
    3e49:	0f 1f 80 00 00 00 00 	nopl   0x0(%rax)
    3e50:	4c 89 f2             	mov    %r14,%rdx
    3e53:	4c 89 ee             	mov    %r13,%rsi
    3e56:	44 89 e7             	mov    %r12d,%edi
    3e59:	41 ff 14 df          	callq  *(%r15,%rbx,8)
    3e5d:	48 83 c3 01          	add    $0x1,%rbx
    3e61:	48 39 dd             	cmp    %rbx,%rbp
    3e64:	75 ea                	jne    3e50 <__libc_csu_init+0x40>
    3e66:	48 83 c4 08          	add    $0x8,%rsp
    3e6a:	5b                   	pop    %rbx
    3e6b:	5d                   	pop    %rbp
    3e6c:	41 5c                	pop    %r12
    3e6e:	41 5d                	pop    %r13
    3e70:	41 5e                	pop    %r14
    3e72:	41 5f                	pop    %r15
    3e74:	c3                   	retq   
    3e75:	66 66 2e 0f 1f 84 00 	data16 nopw %cs:0x0(%rax,%rax,1)
    3e7c:	00 00 00 00 

0000000000003e80 <__libc_csu_fini>:
    3e80:	f3 0f 1e fa          	endbr64 
    3e84:	c3                   	retq   

Disassembly of section .fini:

0000000000003e88 <_fini>:
    3e88:	f3 0f 1e fa          	endbr64 
    3e8c:	48 83 ec 08          	sub    $0x8,%rsp
    3e90:	48 83 c4 08          	add    $0x8,%rsp
    3e94:	c3                   	retq   
