
teavpn2:     file format elf64-x86-64


Disassembly of section .init:

0000000000402000 <_init>:
  402000:	f3 0f 1e fa          	endbr64 
  402004:	48 83 ec 08          	sub    $0x8,%rsp
  402008:	48 8b 05 e1 bf 00 00 	mov    0xbfe1(%rip),%rax        # 40dff0 <__gmon_start__>
  40200f:	48 85 c0             	test   %rax,%rax
  402012:	74 02                	je     402016 <_init+0x16>
  402014:	ff d0                	call   *%rax
  402016:	48 83 c4 08          	add    $0x8,%rsp
  40201a:	c3                   	ret    

Disassembly of section .plt:

0000000000402020 <.plt>:
  402020:	ff 35 e2 bf 00 00    	push   0xbfe2(%rip)        # 40e008 <_GLOBAL_OFFSET_TABLE_+0x8>
  402026:	ff 25 e4 bf 00 00    	jmp    *0xbfe4(%rip)        # 40e010 <_GLOBAL_OFFSET_TABLE_+0x10>
  40202c:	0f 1f 40 00          	nopl   0x0(%rax)

0000000000402030 <__errno_location@plt>:
  402030:	ff 25 e2 bf 00 00    	jmp    *0xbfe2(%rip)        # 40e018 <__errno_location@GLIBC_2.2.5>
  402036:	68 00 00 00 00       	push   $0x0
  40203b:	e9 e0 ff ff ff       	jmp    402020 <.plt>

0000000000402040 <printf@plt>:
  402040:	ff 25 da bf 00 00    	jmp    *0xbfda(%rip)        # 40e020 <printf@GLIBC_2.2.5>
  402046:	68 01 00 00 00       	push   $0x1
  40204b:	e9 d0 ff ff ff       	jmp    402020 <.plt>

0000000000402050 <bind@plt>:
  402050:	ff 25 d2 bf 00 00    	jmp    *0xbfd2(%rip)        # 40e028 <bind@GLIBC_2.2.5>
  402056:	68 02 00 00 00       	push   $0x2
  40205b:	e9 c0 ff ff ff       	jmp    402020 <.plt>

0000000000402060 <strstr@plt>:
  402060:	ff 25 ca bf 00 00    	jmp    *0xbfca(%rip)        # 40e030 <strstr@GLIBC_2.2.5>
  402066:	68 03 00 00 00       	push   $0x3
  40206b:	e9 b0 ff ff ff       	jmp    402020 <.plt>

0000000000402070 <socket@plt>:
  402070:	ff 25 c2 bf 00 00    	jmp    *0xbfc2(%rip)        # 40e038 <socket@GLIBC_2.2.5>
  402076:	68 04 00 00 00       	push   $0x4
  40207b:	e9 a0 ff ff ff       	jmp    402020 <.plt>

0000000000402080 <popen@plt>:
  402080:	ff 25 ba bf 00 00    	jmp    *0xbfba(%rip)        # 40e040 <popen@GLIBC_2.2.5>
  402086:	68 05 00 00 00       	push   $0x5
  40208b:	e9 90 ff ff ff       	jmp    402020 <.plt>

0000000000402090 <accept@plt>:
  402090:	ff 25 b2 bf 00 00    	jmp    *0xbfb2(%rip)        # 40e048 <accept@GLIBC_2.2.5>
  402096:	68 06 00 00 00       	push   $0x6
  40209b:	e9 80 ff ff ff       	jmp    402020 <.plt>

00000000004020a0 <recv@plt>:
  4020a0:	ff 25 aa bf 00 00    	jmp    *0xbfaa(%rip)        # 40e050 <recv@GLIBC_2.2.5>
  4020a6:	68 07 00 00 00       	push   $0x7
  4020ab:	e9 70 ff ff ff       	jmp    402020 <.plt>

00000000004020b0 <strerror@plt>:
  4020b0:	ff 25 a2 bf 00 00    	jmp    *0xbfa2(%rip)        # 40e058 <strerror@GLIBC_2.2.5>
  4020b6:	68 08 00 00 00       	push   $0x8
  4020bb:	e9 60 ff ff ff       	jmp    402020 <.plt>

00000000004020c0 <asctime@plt>:
  4020c0:	ff 25 9a bf 00 00    	jmp    *0xbf9a(%rip)        # 40e060 <asctime@GLIBC_2.2.5>
  4020c6:	68 09 00 00 00       	push   $0x9
  4020cb:	e9 50 ff ff ff       	jmp    402020 <.plt>

00000000004020d0 <strlen@plt>:
  4020d0:	ff 25 92 bf 00 00    	jmp    *0xbf92(%rip)        # 40e068 <strlen@GLIBC_2.2.5>
  4020d6:	68 0a 00 00 00       	push   $0xa
  4020db:	e9 40 ff ff ff       	jmp    402020 <.plt>

00000000004020e0 <strncmp@plt>:
  4020e0:	ff 25 8a bf 00 00    	jmp    *0xbf8a(%rip)        # 40e070 <strncmp@GLIBC_2.2.5>
  4020e6:	68 0b 00 00 00       	push   $0xb
  4020eb:	e9 30 ff ff ff       	jmp    402020 <.plt>

00000000004020f0 <epoll_wait@plt>:
  4020f0:	ff 25 82 bf 00 00    	jmp    *0xbf82(%rip)        # 40e078 <epoll_wait@GLIBC_2.3.2>
  4020f6:	68 0c 00 00 00       	push   $0xc
  4020fb:	e9 20 ff ff ff       	jmp    402020 <.plt>

0000000000402100 <send@plt>:
  402100:	ff 25 7a bf 00 00    	jmp    *0xbf7a(%rip)        # 40e080 <send@GLIBC_2.2.5>
  402106:	68 0d 00 00 00       	push   $0xd
  40210b:	e9 10 ff ff ff       	jmp    402020 <.plt>

0000000000402110 <strncpy@plt>:
  402110:	ff 25 72 bf 00 00    	jmp    *0xbf72(%rip)        # 40e088 <strncpy@GLIBC_2.2.5>
  402116:	68 0e 00 00 00       	push   $0xe
  40211b:	e9 00 ff ff ff       	jmp    402020 <.plt>

0000000000402120 <memset@plt>:
  402120:	ff 25 6a bf 00 00    	jmp    *0xbf6a(%rip)        # 40e090 <memset@GLIBC_2.2.5>
  402126:	68 0f 00 00 00       	push   $0xf
  40212b:	e9 f0 fe ff ff       	jmp    402020 <.plt>

0000000000402130 <fcntl@plt>:
  402130:	ff 25 62 bf 00 00    	jmp    *0xbf62(%rip)        # 40e098 <fcntl@GLIBC_2.2.5>
  402136:	68 10 00 00 00       	push   $0x10
  40213b:	e9 e0 fe ff ff       	jmp    402020 <.plt>

0000000000402140 <sysconf@plt>:
  402140:	ff 25 5a bf 00 00    	jmp    *0xbf5a(%rip)        # 40e0a0 <sysconf@GLIBC_2.2.5>
  402146:	68 11 00 00 00       	push   $0x11
  40214b:	e9 d0 fe ff ff       	jmp    402020 <.plt>

0000000000402150 <calloc@plt>:
  402150:	ff 25 52 bf 00 00    	jmp    *0xbf52(%rip)        # 40e0a8 <calloc@GLIBC_2.2.5>
  402156:	68 12 00 00 00       	push   $0x12
  40215b:	e9 c0 fe ff ff       	jmp    402020 <.plt>

0000000000402160 <open@plt>:
  402160:	ff 25 4a bf 00 00    	jmp    *0xbf4a(%rip)        # 40e0b0 <open@GLIBC_2.2.5>
  402166:	68 13 00 00 00       	push   $0x13
  40216b:	e9 b0 fe ff ff       	jmp    402020 <.plt>

0000000000402170 <localtime@plt>:
  402170:	ff 25 42 bf 00 00    	jmp    *0xbf42(%rip)        # 40e0b8 <localtime@GLIBC_2.2.5>
  402176:	68 14 00 00 00       	push   $0x14
  40217b:	e9 a0 fe ff ff       	jmp    402020 <.plt>

0000000000402180 <pthread_mutex_unlock@plt>:
  402180:	ff 25 3a bf 00 00    	jmp    *0xbf3a(%rip)        # 40e0c0 <pthread_mutex_unlock@GLIBC_2.2.5>
  402186:	68 15 00 00 00       	push   $0x15
  40218b:	e9 90 fe ff ff       	jmp    402020 <.plt>

0000000000402190 <sched_setaffinity@plt>:
  402190:	ff 25 32 bf 00 00    	jmp    *0xbf32(%rip)        # 40e0c8 <sched_setaffinity@GLIBC_2.3.4>
  402196:	68 16 00 00 00       	push   $0x16
  40219b:	e9 80 fe ff ff       	jmp    402020 <.plt>

00000000004021a0 <memcpy@plt>:
  4021a0:	ff 25 2a bf 00 00    	jmp    *0xbf2a(%rip)        # 40e0d0 <memcpy@GLIBC_2.14>
  4021a6:	68 17 00 00 00       	push   $0x17
  4021ab:	e9 70 fe ff ff       	jmp    402020 <.plt>

00000000004021b0 <connect@plt>:
  4021b0:	ff 25 22 bf 00 00    	jmp    *0xbf22(%rip)        # 40e0d8 <connect@GLIBC_2.2.5>
  4021b6:	68 18 00 00 00       	push   $0x18
  4021bb:	e9 60 fe ff ff       	jmp    402020 <.plt>

00000000004021c0 <system@plt>:
  4021c0:	ff 25 1a bf 00 00    	jmp    *0xbf1a(%rip)        # 40e0e0 <system@GLIBC_2.2.5>
  4021c6:	68 19 00 00 00       	push   $0x19
  4021cb:	e9 50 fe ff ff       	jmp    402020 <.plt>

00000000004021d0 <time@plt>:
  4021d0:	ff 25 12 bf 00 00    	jmp    *0xbf12(%rip)        # 40e0e8 <time@GLIBC_2.2.5>
  4021d6:	68 1a 00 00 00       	push   $0x1a
  4021db:	e9 40 fe ff ff       	jmp    402020 <.plt>

00000000004021e0 <fclose@plt>:
  4021e0:	ff 25 0a bf 00 00    	jmp    *0xbf0a(%rip)        # 40e0f0 <fclose@GLIBC_2.2.5>
  4021e6:	68 1b 00 00 00       	push   $0x1b
  4021eb:	e9 30 fe ff ff       	jmp    402020 <.plt>

00000000004021f0 <inet_addr@plt>:
  4021f0:	ff 25 02 bf 00 00    	jmp    *0xbf02(%rip)        # 40e0f8 <inet_addr@GLIBC_2.2.5>
  4021f6:	68 1c 00 00 00       	push   $0x1c
  4021fb:	e9 20 fe ff ff       	jmp    402020 <.plt>

0000000000402200 <inet_ntop@plt>:
  402200:	ff 25 fa be 00 00    	jmp    *0xbefa(%rip)        # 40e100 <inet_ntop@GLIBC_2.2.5>
  402206:	68 1d 00 00 00       	push   $0x1d
  40220b:	e9 10 fe ff ff       	jmp    402020 <.plt>

0000000000402210 <__ctype_b_loc@plt>:
  402210:	ff 25 f2 be 00 00    	jmp    *0xbef2(%rip)        # 40e108 <__ctype_b_loc@GLIBC_2.3>
  402216:	68 1e 00 00 00       	push   $0x1e
  40221b:	e9 00 fe ff ff       	jmp    402020 <.plt>

0000000000402220 <nice@plt>:
  402220:	ff 25 ea be 00 00    	jmp    *0xbeea(%rip)        # 40e110 <nice@GLIBC_2.2.5>
  402226:	68 1f 00 00 00       	push   $0x1f
  40222b:	e9 f0 fd ff ff       	jmp    402020 <.plt>

0000000000402230 <memchr@plt>:
  402230:	ff 25 e2 be 00 00    	jmp    *0xbee2(%rip)        # 40e118 <memchr@GLIBC_2.2.5>
  402236:	68 20 00 00 00       	push   $0x20
  40223b:	e9 e0 fd ff ff       	jmp    402020 <.plt>

0000000000402240 <__stack_chk_fail@plt>:
  402240:	ff 25 da be 00 00    	jmp    *0xbeda(%rip)        # 40e120 <__stack_chk_fail@GLIBC_2.4>
  402246:	68 21 00 00 00       	push   $0x21
  40224b:	e9 d0 fd ff ff       	jmp    402020 <.plt>

0000000000402250 <listen@plt>:
  402250:	ff 25 d2 be 00 00    	jmp    *0xbed2(%rip)        # 40e128 <listen@GLIBC_2.2.5>
  402256:	68 22 00 00 00       	push   $0x22
  40225b:	e9 c0 fd ff ff       	jmp    402020 <.plt>

0000000000402260 <fopen@plt>:
  402260:	ff 25 ca be 00 00    	jmp    *0xbeca(%rip)        # 40e130 <fopen@GLIBC_2.2.5>
  402266:	68 23 00 00 00       	push   $0x23
  40226b:	e9 b0 fd ff ff       	jmp    402020 <.plt>

0000000000402270 <signal@plt>:
  402270:	ff 25 c2 be 00 00    	jmp    *0xbec2(%rip)        # 40e138 <signal@GLIBC_2.2.5>
  402276:	68 24 00 00 00       	push   $0x24
  40227b:	e9 a0 fd ff ff       	jmp    402020 <.plt>

0000000000402280 <free@plt>:
  402280:	ff 25 ba be 00 00    	jmp    *0xbeba(%rip)        # 40e140 <free@GLIBC_2.2.5>
  402286:	68 25 00 00 00       	push   $0x25
  40228b:	e9 90 fd ff ff       	jmp    402020 <.plt>

0000000000402290 <exit@plt>:
  402290:	ff 25 b2 be 00 00    	jmp    *0xbeb2(%rip)        # 40e148 <exit@GLIBC_2.2.5>
  402296:	68 26 00 00 00       	push   $0x26
  40229b:	e9 80 fd ff ff       	jmp    402020 <.plt>

00000000004022a0 <malloc@plt>:
  4022a0:	ff 25 aa be 00 00    	jmp    *0xbeaa(%rip)        # 40e150 <malloc@GLIBC_2.2.5>
  4022a6:	68 27 00 00 00       	push   $0x27
  4022ab:	e9 70 fd ff ff       	jmp    402020 <.plt>

00000000004022b0 <vfprintf@plt>:
  4022b0:	ff 25 a2 be 00 00    	jmp    *0xbea2(%rip)        # 40e158 <vfprintf@GLIBC_2.2.5>
  4022b6:	68 28 00 00 00       	push   $0x28
  4022bb:	e9 60 fd ff ff       	jmp    402020 <.plt>

00000000004022c0 <epoll_ctl@plt>:
  4022c0:	ff 25 9a be 00 00    	jmp    *0xbe9a(%rip)        # 40e160 <epoll_ctl@GLIBC_2.3.2>
  4022c6:	68 29 00 00 00       	push   $0x29
  4022cb:	e9 50 fd ff ff       	jmp    402020 <.plt>

00000000004022d0 <putchar@plt>:
  4022d0:	ff 25 92 be 00 00    	jmp    *0xbe92(%rip)        # 40e168 <putchar@GLIBC_2.2.5>
  4022d6:	68 2a 00 00 00       	push   $0x2a
  4022db:	e9 40 fd ff ff       	jmp    402020 <.plt>

00000000004022e0 <strcmp@plt>:
  4022e0:	ff 25 8a be 00 00    	jmp    *0xbe8a(%rip)        # 40e170 <strcmp@GLIBC_2.2.5>
  4022e6:	68 2b 00 00 00       	push   $0x2b
  4022eb:	e9 30 fd ff ff       	jmp    402020 <.plt>

00000000004022f0 <strtol@plt>:
  4022f0:	ff 25 82 be 00 00    	jmp    *0xbe82(%rip)        # 40e178 <strtol@GLIBC_2.2.5>
  4022f6:	68 2c 00 00 00       	push   $0x2c
  4022fb:	e9 20 fd ff ff       	jmp    402020 <.plt>

0000000000402300 <ioctl@plt>:
  402300:	ff 25 7a be 00 00    	jmp    *0xbe7a(%rip)        # 40e180 <ioctl@GLIBC_2.2.5>
  402306:	68 2d 00 00 00       	push   $0x2d
  40230b:	e9 10 fd ff ff       	jmp    402020 <.plt>

0000000000402310 <usleep@plt>:
  402310:	ff 25 72 be 00 00    	jmp    *0xbe72(%rip)        # 40e188 <usleep@GLIBC_2.2.5>
  402316:	68 2e 00 00 00       	push   $0x2e
  40231b:	e9 00 fd ff ff       	jmp    402020 <.plt>

0000000000402320 <pclose@plt>:
  402320:	ff 25 6a be 00 00    	jmp    *0xbe6a(%rip)        # 40e190 <pclose@GLIBC_2.2.5>
  402326:	68 2f 00 00 00       	push   $0x2f
  40232b:	e9 f0 fc ff ff       	jmp    402020 <.plt>

0000000000402330 <read@plt>:
  402330:	ff 25 62 be 00 00    	jmp    *0xbe62(%rip)        # 40e198 <read@GLIBC_2.2.5>
  402336:	68 30 00 00 00       	push   $0x30
  40233b:	e9 e0 fc ff ff       	jmp    402020 <.plt>

0000000000402340 <pthread_mutex_lock@plt>:
  402340:	ff 25 5a be 00 00    	jmp    *0xbe5a(%rip)        # 40e1a0 <pthread_mutex_lock@GLIBC_2.2.5>
  402346:	68 31 00 00 00       	push   $0x31
  40234b:	e9 d0 fc ff ff       	jmp    402020 <.plt>

0000000000402350 <fread@plt>:
  402350:	ff 25 52 be 00 00    	jmp    *0xbe52(%rip)        # 40e1a8 <fread@GLIBC_2.2.5>
  402356:	68 32 00 00 00       	push   $0x32
  40235b:	e9 c0 fc ff ff       	jmp    402020 <.plt>

0000000000402360 <sched_getaffinity@plt>:
  402360:	ff 25 4a be 00 00    	jmp    *0xbe4a(%rip)        # 40e1b0 <sched_getaffinity@GLIBC_2.3.4>
  402366:	68 33 00 00 00       	push   $0x33
  40236b:	e9 b0 fc ff ff       	jmp    402020 <.plt>

0000000000402370 <puts@plt>:
  402370:	ff 25 42 be 00 00    	jmp    *0xbe42(%rip)        # 40e1b8 <puts@GLIBC_2.2.5>
  402376:	68 34 00 00 00       	push   $0x34
  40237b:	e9 a0 fc ff ff       	jmp    402020 <.plt>

0000000000402380 <strnlen@plt>:
  402380:	ff 25 3a be 00 00    	jmp    *0xbe3a(%rip)        # 40e1c0 <strnlen@GLIBC_2.2.5>
  402386:	68 35 00 00 00       	push   $0x35
  40238b:	e9 90 fc ff ff       	jmp    402020 <.plt>

0000000000402390 <snprintf@plt>:
  402390:	ff 25 32 be 00 00    	jmp    *0xbe32(%rip)        # 40e1c8 <snprintf@GLIBC_2.2.5>
  402396:	68 36 00 00 00       	push   $0x36
  40239b:	e9 80 fc ff ff       	jmp    402020 <.plt>

00000000004023a0 <memmove@plt>:
  4023a0:	ff 25 2a be 00 00    	jmp    *0xbe2a(%rip)        # 40e1d0 <memmove@GLIBC_2.2.5>
  4023a6:	68 37 00 00 00       	push   $0x37
  4023ab:	e9 70 fc ff ff       	jmp    402020 <.plt>

00000000004023b0 <getopt_long@plt>:
  4023b0:	ff 25 22 be 00 00    	jmp    *0xbe22(%rip)        # 40e1d8 <getopt_long@GLIBC_2.2.5>
  4023b6:	68 38 00 00 00       	push   $0x38
  4023bb:	e9 60 fc ff ff       	jmp    402020 <.plt>

00000000004023c0 <access@plt>:
  4023c0:	ff 25 1a be 00 00    	jmp    *0xbe1a(%rip)        # 40e1e0 <access@GLIBC_2.2.5>
  4023c6:	68 39 00 00 00       	push   $0x39
  4023cb:	e9 50 fc ff ff       	jmp    402020 <.plt>

00000000004023d0 <strsignal@plt>:
  4023d0:	ff 25 12 be 00 00    	jmp    *0xbe12(%rip)        # 40e1e8 <strsignal@GLIBC_2.2.5>
  4023d6:	68 3a 00 00 00       	push   $0x3a
  4023db:	e9 40 fc ff ff       	jmp    402020 <.plt>

00000000004023e0 <setsockopt@plt>:
  4023e0:	ff 25 0a be 00 00    	jmp    *0xbe0a(%rip)        # 40e1f0 <setsockopt@GLIBC_2.2.5>
  4023e6:	68 3b 00 00 00       	push   $0x3b
  4023eb:	e9 30 fc ff ff       	jmp    402020 <.plt>

00000000004023f0 <epoll_create@plt>:
  4023f0:	ff 25 02 be 00 00    	jmp    *0xbe02(%rip)        # 40e1f8 <epoll_create@GLIBC_2.3.2>
  4023f6:	68 3c 00 00 00       	push   $0x3c
  4023fb:	e9 20 fc ff ff       	jmp    402020 <.plt>

0000000000402400 <inet_pton@plt>:
  402400:	ff 25 fa bd 00 00    	jmp    *0xbdfa(%rip)        # 40e200 <inet_pton@GLIBC_2.2.5>
  402406:	68 3d 00 00 00       	push   $0x3d
  40240b:	e9 10 fc ff ff       	jmp    402020 <.plt>

0000000000402410 <putc@plt>:
  402410:	ff 25 f2 bd 00 00    	jmp    *0xbdf2(%rip)        # 40e208 <putc@GLIBC_2.2.5>
  402416:	68 3e 00 00 00       	push   $0x3e
  40241b:	e9 00 fc ff ff       	jmp    402020 <.plt>

0000000000402420 <close@plt>:
  402420:	ff 25 ea bd 00 00    	jmp    *0xbdea(%rip)        # 40e210 <close@GLIBC_2.2.5>
  402426:	68 3f 00 00 00       	push   $0x3f
  40242b:	e9 f0 fb ff ff       	jmp    402020 <.plt>

Disassembly of section .text:

0000000000402430 <_start>:
  402430:	f3 0f 1e fa          	endbr64 
  402434:	31 ed                	xor    %ebp,%ebp
  402436:	49 89 d1             	mov    %rdx,%r9
  402439:	5e                   	pop    %rsi
  40243a:	48 89 e2             	mov    %rsp,%rdx
  40243d:	48 83 e4 f0          	and    $0xfffffffffffffff0,%rsp
  402441:	50                   	push   %rax
  402442:	54                   	push   %rsp
  402443:	49 c7 c0 b0 86 40 00 	mov    $0x4086b0,%r8
  40244a:	48 c7 c1 40 86 40 00 	mov    $0x408640,%rcx
  402451:	48 c7 c7 f0 83 40 00 	mov    $0x4083f0,%rdi
  402458:	ff 15 8a bb 00 00    	call   *0xbb8a(%rip)        # 40dfe8 <__libc_start_main@GLIBC_2.2.5>
  40245e:	f4                   	hlt    
  40245f:	90                   	nop

0000000000402460 <_dl_relocate_static_pie>:
  402460:	f3 0f 1e fa          	endbr64 
  402464:	c3                   	ret    
  402465:	66 2e 0f 1f 84 00 00 	cs nopw 0x0(%rax,%rax,1)
  40246c:	00 00 00 
  40246f:	90                   	nop

0000000000402470 <deregister_tm_clones>:
  402470:	b8 b0 e2 40 00       	mov    $0x40e2b0,%eax
  402475:	48 3d b0 e2 40 00    	cmp    $0x40e2b0,%rax
  40247b:	74 13                	je     402490 <deregister_tm_clones+0x20>
  40247d:	b8 00 00 00 00       	mov    $0x0,%eax
  402482:	48 85 c0             	test   %rax,%rax
  402485:	74 09                	je     402490 <deregister_tm_clones+0x20>
  402487:	bf b0 e2 40 00       	mov    $0x40e2b0,%edi
  40248c:	ff e0                	jmp    *%rax
  40248e:	66 90                	xchg   %ax,%ax
  402490:	c3                   	ret    
  402491:	66 66 2e 0f 1f 84 00 	data16 cs nopw 0x0(%rax,%rax,1)
  402498:	00 00 00 00 
  40249c:	0f 1f 40 00          	nopl   0x0(%rax)

00000000004024a0 <register_tm_clones>:
  4024a0:	be b0 e2 40 00       	mov    $0x40e2b0,%esi
  4024a5:	48 81 ee b0 e2 40 00 	sub    $0x40e2b0,%rsi
  4024ac:	48 89 f0             	mov    %rsi,%rax
  4024af:	48 c1 ee 3f          	shr    $0x3f,%rsi
  4024b3:	48 c1 f8 03          	sar    $0x3,%rax
  4024b7:	48 01 c6             	add    %rax,%rsi
  4024ba:	48 d1 fe             	sar    %rsi
  4024bd:	74 11                	je     4024d0 <register_tm_clones+0x30>
  4024bf:	b8 00 00 00 00       	mov    $0x0,%eax
  4024c4:	48 85 c0             	test   %rax,%rax
  4024c7:	74 07                	je     4024d0 <register_tm_clones+0x30>
  4024c9:	bf b0 e2 40 00       	mov    $0x40e2b0,%edi
  4024ce:	ff e0                	jmp    *%rax
  4024d0:	c3                   	ret    
  4024d1:	66 66 2e 0f 1f 84 00 	data16 cs nopw 0x0(%rax,%rax,1)
  4024d8:	00 00 00 00 
  4024dc:	0f 1f 40 00          	nopl   0x0(%rax)

00000000004024e0 <__do_global_dtors_aux>:
  4024e0:	f3 0f 1e fa          	endbr64 
  4024e4:	80 3d c5 bd 00 00 00 	cmpb   $0x0,0xbdc5(%rip)        # 40e2b0 <__TMC_END__>
  4024eb:	75 13                	jne    402500 <__do_global_dtors_aux+0x20>
  4024ed:	55                   	push   %rbp
  4024ee:	48 89 e5             	mov    %rsp,%rbp
  4024f1:	e8 7a ff ff ff       	call   402470 <deregister_tm_clones>
  4024f6:	c6 05 b3 bd 00 00 01 	movb   $0x1,0xbdb3(%rip)        # 40e2b0 <__TMC_END__>
  4024fd:	5d                   	pop    %rbp
  4024fe:	c3                   	ret    
  4024ff:	90                   	nop
  402500:	c3                   	ret    
  402501:	66 66 2e 0f 1f 84 00 	data16 cs nopw 0x0(%rax,%rax,1)
  402508:	00 00 00 00 
  40250c:	0f 1f 40 00          	nopl   0x0(%rax)

0000000000402510 <frame_dummy>:
  402510:	f3 0f 1e fa          	endbr64 
  402514:	eb 8a                	jmp    4024a0 <register_tm_clones>
  402516:	66 2e 0f 1f 84 00 00 	cs nopw 0x0(%rax,%rax,1)
  40251d:	00 00 00 

0000000000402520 <ini_parse_stream>:
  402520:	55                   	push   %rbp
  402521:	41 57                	push   %r15
  402523:	41 56                	push   %r14
  402525:	41 55                	push   %r13
  402527:	41 54                	push   %r12
  402529:	53                   	push   %rbx
  40252a:	48 81 ec 88 01 00 00 	sub    $0x188,%rsp
  402531:	48 89 4c 24 18       	mov    %rcx,0x18(%rsp)
  402536:	49 89 d4             	mov    %rdx,%r12
  402539:	48 89 f2             	mov    %rsi,%rdx
  40253c:	48 89 f9             	mov    %rdi,%rcx
  40253f:	64 48 8b 04 25 28 00 	mov    %fs:0x28,%rax
  402546:	00 00 
  402548:	48 89 84 24 80 01 00 	mov    %rax,0x180(%rsp)
  40254f:	00 
  402550:	0f 57 c0             	xorps  %xmm0,%xmm0
  402553:	0f 29 84 24 90 00 00 	movaps %xmm0,0x90(%rsp)
  40255a:	00 
  40255b:	0f 29 84 24 80 00 00 	movaps %xmm0,0x80(%rsp)
  402562:	00 
  402563:	0f 29 44 24 70       	movaps %xmm0,0x70(%rsp)
  402568:	66 c7 84 24 a0 00 00 	movw   $0x0,0xa0(%rsp)
  40256f:	00 00 00 
  402572:	0f 29 44 24 50       	movaps %xmm0,0x50(%rsp)
  402577:	0f 29 44 24 40       	movaps %xmm0,0x40(%rsp)
  40257c:	0f 29 44 24 30       	movaps %xmm0,0x30(%rsp)
  402581:	66 c7 44 24 60 00 00 	movw   $0x0,0x60(%rsp)
  402588:	48 8d ac 24 b0 00 00 	lea    0xb0(%rsp),%rbp
  40258f:	00 
  402590:	48 89 ef             	mov    %rbp,%rdi
  402593:	be c8 00 00 00       	mov    $0xc8,%esi
  402598:	48 89 54 24 28       	mov    %rdx,0x28(%rsp)
  40259d:	48 89 4c 24 20       	mov    %rcx,0x20(%rsp)
  4025a2:	ff d1                	call   *%rcx
  4025a4:	48 85 c0             	test   %rax,%rax
  4025a7:	0f 84 14 04 00 00    	je     4029c1 <ini_parse_stream+0x4a1>
  4025ad:	c7 44 24 0c 00 00 00 	movl   $0x0,0xc(%rsp)
  4025b4:	00 
  4025b5:	45 31 ff             	xor    %r15d,%r15d
  4025b8:	4c 89 64 24 10       	mov    %r12,0x10(%rsp)
  4025bd:	eb 41                	jmp    402600 <ini_parse_stream+0xe0>
  4025bf:	90                   	nop
  4025c0:	48 8b 7c 24 18       	mov    0x18(%rsp),%rdi
  4025c5:	48 8d 74 24 70       	lea    0x70(%rsp),%rsi
  4025ca:	48 8d 54 24 30       	lea    0x30(%rsp),%rdx
  4025cf:	48 89 d9             	mov    %rbx,%rcx
  4025d2:	45 89 f8             	mov    %r15d,%r8d
  4025d5:	41 ff d4             	call   *%r12
  4025d8:	8b 4c 24 0c          	mov    0xc(%rsp),%ecx
  4025dc:	09 c8                	or     %ecx,%eax
  4025de:	41 0f 44 cf          	cmove  %r15d,%ecx
  4025e2:	89 4c 24 0c          	mov    %ecx,0xc(%rsp)
  4025e6:	48 89 ef             	mov    %rbp,%rdi
  4025e9:	be c8 00 00 00       	mov    $0xc8,%esi
  4025ee:	48 8b 54 24 28       	mov    0x28(%rsp),%rdx
  4025f3:	ff 54 24 20          	call   *0x20(%rsp)
  4025f7:	48 85 c0             	test   %rax,%rax
  4025fa:	0f 84 c9 03 00 00    	je     4029c9 <ini_parse_stream+0x4a9>
  402600:	45 85 ff             	test   %r15d,%r15d
  402603:	0f 94 c0             	sete   %al
  402606:	80 bc 24 b0 00 00 00 	cmpb   $0xef,0xb0(%rsp)
  40260d:	ef 
  40260e:	0f 94 c1             	sete   %cl
  402611:	20 c1                	and    %al,%cl
  402613:	80 bc 24 b1 00 00 00 	cmpb   $0xbb,0xb1(%rsp)
  40261a:	bb 
  40261b:	0f 94 c0             	sete   %al
  40261e:	80 bc 24 b2 00 00 00 	cmpb   $0xbf,0xb2(%rsp)
  402625:	bf 
  402626:	0f 94 c2             	sete   %dl
  402629:	20 c2                	and    %al,%dl
  40262b:	20 ca                	and    %cl,%dl
  40262d:	0f b6 c2             	movzbl %dl,%eax
  402630:	4c 8d 34 40          	lea    (%rax,%rax,2),%r14
  402634:	84 c0                	test   %al,%al
  402636:	48 89 eb             	mov    %rbp,%rbx
  402639:	48 8d 84 24 b3 00 00 	lea    0xb3(%rsp),%rax
  402640:	00 
  402641:	48 0f 45 d8          	cmovne %rax,%rbx
  402645:	48 89 df             	mov    %rbx,%rdi
  402648:	e8 83 fa ff ff       	call   4020d0 <strlen@plt>
  40264d:	48 85 c0             	test   %rax,%rax
  402650:	7e 29                	jle    40267b <ini_parse_stream+0x15b>
  402652:	48 89 c5             	mov    %rax,%rbp
  402655:	48 01 dd             	add    %rbx,%rbp
  402658:	e8 b3 fb ff ff       	call   402210 <__ctype_b_loc@plt>
  40265d:	0f 1f 00             	nopl   (%rax)
  402660:	48 8b 08             	mov    (%rax),%rcx
  402663:	0f b6 55 ff          	movzbl -0x1(%rbp),%edx
  402667:	f6 44 51 01 20       	testb  $0x20,0x1(%rcx,%rdx,2)
  40266c:	74 0d                	je     40267b <ini_parse_stream+0x15b>
  40266e:	c6 45 ff 00          	movb   $0x0,-0x1(%rbp)
  402672:	48 83 c5 ff          	add    $0xffffffffffffffff,%rbp
  402676:	48 39 dd             	cmp    %rbx,%rbp
  402679:	77 e5                	ja     402660 <ini_parse_stream+0x140>
  40267b:	46 8a ac 34 b0 00 00 	mov    0xb0(%rsp,%r14,1),%r13b
  402682:	00 
  402683:	45 84 ed             	test   %r13b,%r13b
  402686:	0f 84 34 00 00 00    	je     4026c0 <ini_parse_stream+0x1a0>
  40268c:	e8 7f fb ff ff       	call   402210 <__ctype_b_loc@plt>
  402691:	48 8b 00             	mov    (%rax),%rax
  402694:	48 8d ac 24 b0 00 00 	lea    0xb0(%rsp),%rbp
  40269b:	00 
  40269c:	0f 1f 40 00          	nopl   0x0(%rax)
  4026a0:	41 0f b6 cd          	movzbl %r13b,%ecx
  4026a4:	f6 44 48 01 20       	testb  $0x20,0x1(%rax,%rcx,2)
  4026a9:	74 20                	je     4026cb <ini_parse_stream+0x1ab>
  4026ab:	44 0f b6 6b 01       	movzbl 0x1(%rbx),%r13d
  4026b0:	48 83 c3 01          	add    $0x1,%rbx
  4026b4:	45 84 ed             	test   %r13b,%r13b
  4026b7:	75 e7                	jne    4026a0 <ini_parse_stream+0x180>
  4026b9:	45 31 ed             	xor    %r13d,%r13d
  4026bc:	eb 0d                	jmp    4026cb <ini_parse_stream+0x1ab>
  4026be:	66 90                	xchg   %ax,%ax
  4026c0:	45 31 ed             	xor    %r13d,%r13d
  4026c3:	48 8d ac 24 b0 00 00 	lea    0xb0(%rsp),%rbp
  4026ca:	00 
  4026cb:	41 83 c7 01          	add    $0x1,%r15d
  4026cf:	b8 01 00 00 00       	mov    $0x1,%eax
  4026d4:	44 89 e9             	mov    %r13d,%ecx
  4026d7:	48 d3 e0             	shl    %cl,%rax
  4026da:	41 80 fd 3f          	cmp    $0x3f,%r13b
  4026de:	77 13                	ja     4026f3 <ini_parse_stream+0x1d3>
  4026e0:	48 b9 01 00 00 00 08 	movabs $0x800000800000001,%rcx
  4026e7:	00 00 08 
  4026ea:	48 21 c8             	and    %rcx,%rax
  4026ed:	0f 85 f3 fe ff ff    	jne    4025e6 <ini_parse_stream+0xc6>
  4026f3:	48 39 eb             	cmp    %rbp,%rbx
  4026f6:	76 10                	jbe    402708 <ini_parse_stream+0x1e8>
  4026f8:	45 84 ed             	test   %r13b,%r13b
  4026fb:	74 0b                	je     402708 <ini_parse_stream+0x1e8>
  4026fd:	80 7c 24 30 00       	cmpb   $0x0,0x30(%rsp)
  402702:	0f 85 b8 fe ff ff    	jne    4025c0 <ini_parse_stream+0xa0>
  402708:	45 84 ed             	test   %r13b,%r13b
  40270b:	0f 84 d5 fe ff ff    	je     4025e6 <ini_parse_stream+0xc6>
  402711:	41 80 fd 5b          	cmp    $0x5b,%r13b
  402715:	0f 85 94 00 00 00    	jne    4027af <ini_parse_stream+0x28f>
  40271b:	44 8a 73 01          	mov    0x1(%rbx),%r14b
  40271f:	45 84 f6             	test   %r14b,%r14b
  402722:	0f 84 79 02 00 00    	je     4029a1 <ini_parse_stream+0x481>
  402728:	4c 8d 63 01          	lea    0x1(%rbx),%r12
  40272c:	48 83 c3 02          	add    $0x2,%rbx
  402730:	31 ed                	xor    %ebp,%ebp
  402732:	e9 2d 00 00 00       	jmp    402764 <ini_parse_stream+0x244>
  402737:	66 0f 1f 84 00 00 00 	nopw   0x0(%rax,%rax,1)
  40273e:	00 00 
  402740:	e8 cb fa ff ff       	call   402210 <__ctype_b_loc@plt>
  402745:	48 8b 00             	mov    (%rax),%rax
  402748:	42 0f b7 2c 68       	movzwl (%rax,%r13,2),%ebp
  40274d:	81 e5 00 20 00 00    	and    $0x2000,%ebp
  402753:	44 0f b6 33          	movzbl (%rbx),%r14d
  402757:	48 83 c3 01          	add    $0x1,%rbx
  40275b:	45 84 f6             	test   %r14b,%r14b
  40275e:	0f 84 3d 02 00 00    	je     4029a1 <ini_parse_stream+0x481>
  402764:	41 0f be f6          	movsbl %r14b,%esi
  402768:	ba 02 00 00 00       	mov    $0x2,%edx
  40276d:	48 8d 3d 75 8c 00 00 	lea    0x8c75(%rip),%rdi        # 40b3e9 <invalid+0x149>
  402774:	e8 b7 fa ff ff       	call   402230 <memchr@plt>
  402779:	48 85 c0             	test   %rax,%rax
  40277c:	0f 85 01 02 00 00    	jne    402983 <ini_parse_stream+0x463>
  402782:	45 0f b6 ee          	movzbl %r14b,%r13d
  402786:	85 ed                	test   %ebp,%ebp
  402788:	74 b6                	je     402740 <ini_parse_stream+0x220>
  40278a:	b8 01 00 00 00       	mov    $0x1,%eax
  40278f:	44 89 e9             	mov    %r13d,%ecx
  402792:	48 d3 e0             	shl    %cl,%rax
  402795:	41 80 fe 3f          	cmp    $0x3f,%r14b
  402799:	77 a5                	ja     402740 <ini_parse_stream+0x220>
  40279b:	48 b9 01 00 00 00 00 	movabs $0x800000000000001,%rcx
  4027a2:	00 00 08 
  4027a5:	48 21 c8             	and    %rcx,%rax
  4027a8:	74 96                	je     402740 <ini_parse_stream+0x220>
  4027aa:	e9 f2 01 00 00       	jmp    4029a1 <ini_parse_stream+0x481>
  4027af:	4c 8d 63 01          	lea    0x1(%rbx),%r12
  4027b3:	4c 8d 73 02          	lea    0x2(%rbx),%r14
  4027b7:	31 c0                	xor    %eax,%eax
  4027b9:	e9 29 00 00 00       	jmp    4027e7 <ini_parse_stream+0x2c7>
  4027be:	66 90                	xchg   %ax,%ax
  4027c0:	e8 4b fa ff ff       	call   402210 <__ctype_b_loc@plt>
  4027c5:	48 8b 00             	mov    (%rax),%rax
  4027c8:	0f b7 04 68          	movzwl (%rax,%rbp,2),%eax
  4027cc:	25 00 20 00 00       	and    $0x2000,%eax
  4027d1:	45 0f b6 2c 24       	movzbl (%r12),%r13d
  4027d6:	49 83 c4 01          	add    $0x1,%r12
  4027da:	49 83 c6 01          	add    $0x1,%r14
  4027de:	45 84 ed             	test   %r13b,%r13b
  4027e1:	0f 84 ba 01 00 00    	je     4029a1 <ini_parse_stream+0x481>
  4027e7:	41 0f b6 ed          	movzbl %r13b,%ebp
  4027eb:	ba 01 00 00 00       	mov    $0x1,%edx
  4027f0:	89 e9                	mov    %ebp,%ecx
  4027f2:	48 d3 e2             	shl    %cl,%rdx
  4027f5:	40 80 fd 3f          	cmp    $0x3f,%bpl
  4027f9:	77 12                	ja     40280d <ini_parse_stream+0x2ed>
  4027fb:	48 89 d1             	mov    %rdx,%rcx
  4027fe:	48 be 01 00 00 00 00 	movabs $0x2400000000000001,%rsi
  402805:	00 00 24 
  402808:	48 21 f1             	and    %rsi,%rcx
  40280b:	75 19                	jne    402826 <ini_parse_stream+0x306>
  40280d:	85 c0                	test   %eax,%eax
  40280f:	74 af                	je     4027c0 <ini_parse_stream+0x2a0>
  402811:	40 80 fd 3f          	cmp    $0x3f,%bpl
  402815:	77 a9                	ja     4027c0 <ini_parse_stream+0x2a0>
  402817:	48 b8 01 00 00 00 00 	movabs $0x800000000000001,%rax
  40281e:	00 00 08 
  402821:	48 21 c2             	and    %rax,%rdx
  402824:	74 9a                	je     4027c0 <ini_parse_stream+0x2a0>
  402826:	40 80 fd 3d          	cmp    $0x3d,%bpl
  40282a:	74 0a                	je     402836 <ini_parse_stream+0x316>
  40282c:	40 80 fd 3a          	cmp    $0x3a,%bpl
  402830:	0f 85 6b 01 00 00    	jne    4029a1 <ini_parse_stream+0x481>
  402836:	41 c6 44 24 ff 00    	movb   $0x0,-0x1(%r12)
  40283c:	48 89 df             	mov    %rbx,%rdi
  40283f:	e8 8c f8 ff ff       	call   4020d0 <strlen@plt>
  402844:	48 85 c0             	test   %rax,%rax
  402847:	0f 8e 2e 00 00 00    	jle    40287b <ini_parse_stream+0x35b>
  40284d:	48 89 c5             	mov    %rax,%rbp
  402850:	48 01 dd             	add    %rbx,%rbp
  402853:	e8 b8 f9 ff ff       	call   402210 <__ctype_b_loc@plt>
  402858:	0f 1f 84 00 00 00 00 	nopl   0x0(%rax,%rax,1)
  40285f:	00 
  402860:	48 8b 08             	mov    (%rax),%rcx
  402863:	0f b6 55 ff          	movzbl -0x1(%rbp),%edx
  402867:	f6 44 51 01 20       	testb  $0x20,0x1(%rcx,%rdx,2)
  40286c:	74 0d                	je     40287b <ini_parse_stream+0x35b>
  40286e:	c6 45 ff 00          	movb   $0x0,-0x1(%rbp)
  402872:	48 83 c5 ff          	add    $0xffffffffffffffff,%rbp
  402876:	48 39 dd             	cmp    %rbx,%rbp
  402879:	77 e5                	ja     402860 <ini_parse_stream+0x340>
  40287b:	45 8a 2c 24          	mov    (%r12),%r13b
  40287f:	45 84 ed             	test   %r13b,%r13b
  402882:	0f 84 82 00 00 00    	je     40290a <ini_parse_stream+0x3ea>
  402888:	31 c0                	xor    %eax,%eax
  40288a:	44 89 e9             	mov    %r13d,%ecx
  40288d:	eb 1e                	jmp    4028ad <ini_parse_stream+0x38d>
  40288f:	90                   	nop
  402890:	e8 7b f9 ff ff       	call   402210 <__ctype_b_loc@plt>
  402895:	48 8b 00             	mov    (%rax),%rax
  402898:	0f b7 04 68          	movzwl (%rax,%rbp,2),%eax
  40289c:	25 00 20 00 00       	and    $0x2000,%eax
  4028a1:	41 0f b6 0e          	movzbl (%r14),%ecx
  4028a5:	49 83 c6 01          	add    $0x1,%r14
  4028a9:	84 c9                	test   %cl,%cl
  4028ab:	74 2f                	je     4028dc <ini_parse_stream+0x3bc>
  4028ad:	0f b6 e9             	movzbl %cl,%ebp
  4028b0:	85 c0                	test   %eax,%eax
  4028b2:	74 dc                	je     402890 <ini_parse_stream+0x370>
  4028b4:	b8 01 00 00 00       	mov    $0x1,%eax
  4028b9:	89 e9                	mov    %ebp,%ecx
  4028bb:	48 d3 e0             	shl    %cl,%rax
  4028be:	40 80 fd 3f          	cmp    $0x3f,%bpl
  4028c2:	77 cc                	ja     402890 <ini_parse_stream+0x370>
  4028c4:	48 b9 01 00 00 00 00 	movabs $0x800000000000001,%rcx
  4028cb:	00 00 08 
  4028ce:	48 21 c8             	and    %rcx,%rax
  4028d1:	74 bd                	je     402890 <ini_parse_stream+0x370>
  4028d3:	41 c6 46 ff 00       	movb   $0x0,-0x1(%r14)
  4028d8:	45 8a 2c 24          	mov    (%r12),%r13b
  4028dc:	45 84 ed             	test   %r13b,%r13b
  4028df:	0f 84 25 00 00 00    	je     40290a <ini_parse_stream+0x3ea>
  4028e5:	e8 26 f9 ff ff       	call   402210 <__ctype_b_loc@plt>
  4028ea:	48 8b 00             	mov    (%rax),%rax
  4028ed:	0f 1f 00             	nopl   (%rax)
  4028f0:	41 0f b6 cd          	movzbl %r13b,%ecx
  4028f4:	f6 44 48 01 20       	testb  $0x20,0x1(%rax,%rcx,2)
  4028f9:	74 0f                	je     40290a <ini_parse_stream+0x3ea>
  4028fb:	45 0f b6 6c 24 01    	movzbl 0x1(%r12),%r13d
  402901:	49 83 c4 01          	add    $0x1,%r12
  402905:	45 84 ed             	test   %r13b,%r13b
  402908:	75 e6                	jne    4028f0 <ini_parse_stream+0x3d0>
  40290a:	4c 89 e7             	mov    %r12,%rdi
  40290d:	e8 be f7 ff ff       	call   4020d0 <strlen@plt>
  402912:	48 85 c0             	test   %rax,%rax
  402915:	0f 8e 30 00 00 00    	jle    40294b <ini_parse_stream+0x42b>
  40291b:	48 89 c5             	mov    %rax,%rbp
  40291e:	4c 01 e5             	add    %r12,%rbp
  402921:	e8 ea f8 ff ff       	call   402210 <__ctype_b_loc@plt>
  402926:	66 2e 0f 1f 84 00 00 	cs nopw 0x0(%rax,%rax,1)
  40292d:	00 00 00 
  402930:	48 8b 08             	mov    (%rax),%rcx
  402933:	0f b6 55 ff          	movzbl -0x1(%rbp),%edx
  402937:	f6 44 51 01 20       	testb  $0x20,0x1(%rcx,%rdx,2)
  40293c:	74 0d                	je     40294b <ini_parse_stream+0x42b>
  40293e:	c6 45 ff 00          	movb   $0x0,-0x1(%rbp)
  402942:	48 83 c5 ff          	add    $0xffffffffffffffff,%rbp
  402946:	4c 39 e5             	cmp    %r12,%rbp
  402949:	77 e5                	ja     402930 <ini_parse_stream+0x410>
  40294b:	48 8d 7c 24 30       	lea    0x30(%rsp),%rdi
  402950:	48 89 de             	mov    %rbx,%rsi
  402953:	e8 a8 00 00 00       	call   402a00 <strncpy0>
  402958:	48 8b 7c 24 18       	mov    0x18(%rsp),%rdi
  40295d:	48 8d 74 24 70       	lea    0x70(%rsp),%rsi
  402962:	48 89 da             	mov    %rbx,%rdx
  402965:	4c 89 e1             	mov    %r12,%rcx
  402968:	45 89 f8             	mov    %r15d,%r8d
  40296b:	4c 8b 64 24 10       	mov    0x10(%rsp),%r12
  402970:	41 ff d4             	call   *%r12
  402973:	8b 4c 24 0c          	mov    0xc(%rsp),%ecx
  402977:	09 c8                	or     %ecx,%eax
  402979:	41 0f 44 cf          	cmove  %r15d,%ecx
  40297d:	89 4c 24 0c          	mov    %ecx,0xc(%rsp)
  402981:	eb 31                	jmp    4029b4 <ini_parse_stream+0x494>
  402983:	41 80 fe 5d          	cmp    $0x5d,%r14b
  402987:	75 18                	jne    4029a1 <ini_parse_stream+0x481>
  402989:	c6 43 ff 00          	movb   $0x0,-0x1(%rbx)
  40298d:	48 8d 7c 24 70       	lea    0x70(%rsp),%rdi
  402992:	4c 89 e6             	mov    %r12,%rsi
  402995:	e8 66 00 00 00       	call   402a00 <strncpy0>
  40299a:	c6 44 24 30 00       	movb   $0x0,0x30(%rsp)
  40299f:	eb 0e                	jmp    4029af <ini_parse_stream+0x48f>
  4029a1:	8b 44 24 0c          	mov    0xc(%rsp),%eax
  4029a5:	85 c0                	test   %eax,%eax
  4029a7:	41 0f 44 c7          	cmove  %r15d,%eax
  4029ab:	89 44 24 0c          	mov    %eax,0xc(%rsp)
  4029af:	4c 8b 64 24 10       	mov    0x10(%rsp),%r12
  4029b4:	48 8d ac 24 b0 00 00 	lea    0xb0(%rsp),%rbp
  4029bb:	00 
  4029bc:	e9 25 fc ff ff       	jmp    4025e6 <ini_parse_stream+0xc6>
  4029c1:	c7 44 24 0c 00 00 00 	movl   $0x0,0xc(%rsp)
  4029c8:	00 
  4029c9:	64 48 8b 04 25 28 00 	mov    %fs:0x28,%rax
  4029d0:	00 00 
  4029d2:	48 3b 84 24 80 01 00 	cmp    0x180(%rsp),%rax
  4029d9:	00 
  4029da:	75 16                	jne    4029f2 <ini_parse_stream+0x4d2>
  4029dc:	8b 44 24 0c          	mov    0xc(%rsp),%eax
  4029e0:	48 81 c4 88 01 00 00 	add    $0x188,%rsp
  4029e7:	5b                   	pop    %rbx
  4029e8:	41 5c                	pop    %r12
  4029ea:	41 5d                	pop    %r13
  4029ec:	41 5e                	pop    %r14
  4029ee:	41 5f                	pop    %r15
  4029f0:	5d                   	pop    %rbp
  4029f1:	c3                   	ret    
  4029f2:	e8 49 f8 ff ff       	call   402240 <__stack_chk_fail@plt>
  4029f7:	66 0f 1f 84 00 00 00 	nopw   0x0(%rax,%rax,1)
  4029fe:	00 00 

0000000000402a00 <strncpy0>:
  402a00:	8a 06                	mov    (%rsi),%al
  402a02:	84 c0                	test   %al,%al
  402a04:	0f 84 ac 02 00 00    	je     402cb6 <strncpy0+0x2b6>
  402a0a:	88 07                	mov    %al,(%rdi)
  402a0c:	8a 46 01             	mov    0x1(%rsi),%al
  402a0f:	84 c0                	test   %al,%al
  402a11:	0f 84 a6 02 00 00    	je     402cbd <strncpy0+0x2bd>
  402a17:	88 47 01             	mov    %al,0x1(%rdi)
  402a1a:	8a 46 02             	mov    0x2(%rsi),%al
  402a1d:	84 c0                	test   %al,%al
  402a1f:	0f 84 a2 02 00 00    	je     402cc7 <strncpy0+0x2c7>
  402a25:	88 47 02             	mov    %al,0x2(%rdi)
  402a28:	8a 46 03             	mov    0x3(%rsi),%al
  402a2b:	84 c0                	test   %al,%al
  402a2d:	0f 84 9e 02 00 00    	je     402cd1 <strncpy0+0x2d1>
  402a33:	88 47 03             	mov    %al,0x3(%rdi)
  402a36:	8a 46 04             	mov    0x4(%rsi),%al
  402a39:	84 c0                	test   %al,%al
  402a3b:	0f 84 9a 02 00 00    	je     402cdb <strncpy0+0x2db>
  402a41:	88 47 04             	mov    %al,0x4(%rdi)
  402a44:	8a 46 05             	mov    0x5(%rsi),%al
  402a47:	84 c0                	test   %al,%al
  402a49:	0f 84 96 02 00 00    	je     402ce5 <strncpy0+0x2e5>
  402a4f:	88 47 05             	mov    %al,0x5(%rdi)
  402a52:	8a 46 06             	mov    0x6(%rsi),%al
  402a55:	84 c0                	test   %al,%al
  402a57:	0f 84 92 02 00 00    	je     402cef <strncpy0+0x2ef>
  402a5d:	88 47 06             	mov    %al,0x6(%rdi)
  402a60:	8a 46 07             	mov    0x7(%rsi),%al
  402a63:	84 c0                	test   %al,%al
  402a65:	0f 84 8e 02 00 00    	je     402cf9 <strncpy0+0x2f9>
  402a6b:	88 47 07             	mov    %al,0x7(%rdi)
  402a6e:	8a 46 08             	mov    0x8(%rsi),%al
  402a71:	84 c0                	test   %al,%al
  402a73:	0f 84 8a 02 00 00    	je     402d03 <strncpy0+0x303>
  402a79:	88 47 08             	mov    %al,0x8(%rdi)
  402a7c:	8a 46 09             	mov    0x9(%rsi),%al
  402a7f:	84 c0                	test   %al,%al
  402a81:	0f 84 86 02 00 00    	je     402d0d <strncpy0+0x30d>
  402a87:	88 47 09             	mov    %al,0x9(%rdi)
  402a8a:	8a 46 0a             	mov    0xa(%rsi),%al
  402a8d:	84 c0                	test   %al,%al
  402a8f:	0f 84 82 02 00 00    	je     402d17 <strncpy0+0x317>
  402a95:	88 47 0a             	mov    %al,0xa(%rdi)
  402a98:	8a 46 0b             	mov    0xb(%rsi),%al
  402a9b:	84 c0                	test   %al,%al
  402a9d:	0f 84 7e 02 00 00    	je     402d21 <strncpy0+0x321>
  402aa3:	88 47 0b             	mov    %al,0xb(%rdi)
  402aa6:	8a 46 0c             	mov    0xc(%rsi),%al
  402aa9:	84 c0                	test   %al,%al
  402aab:	0f 84 7a 02 00 00    	je     402d2b <strncpy0+0x32b>
  402ab1:	88 47 0c             	mov    %al,0xc(%rdi)
  402ab4:	8a 46 0d             	mov    0xd(%rsi),%al
  402ab7:	84 c0                	test   %al,%al
  402ab9:	0f 84 76 02 00 00    	je     402d35 <strncpy0+0x335>
  402abf:	88 47 0d             	mov    %al,0xd(%rdi)
  402ac2:	8a 46 0e             	mov    0xe(%rsi),%al
  402ac5:	84 c0                	test   %al,%al
  402ac7:	0f 84 72 02 00 00    	je     402d3f <strncpy0+0x33f>
  402acd:	88 47 0e             	mov    %al,0xe(%rdi)
  402ad0:	8a 46 0f             	mov    0xf(%rsi),%al
  402ad3:	84 c0                	test   %al,%al
  402ad5:	0f 84 6e 02 00 00    	je     402d49 <strncpy0+0x349>
  402adb:	88 47 0f             	mov    %al,0xf(%rdi)
  402ade:	8a 46 10             	mov    0x10(%rsi),%al
  402ae1:	84 c0                	test   %al,%al
  402ae3:	0f 84 6a 02 00 00    	je     402d53 <strncpy0+0x353>
  402ae9:	88 47 10             	mov    %al,0x10(%rdi)
  402aec:	8a 46 11             	mov    0x11(%rsi),%al
  402aef:	84 c0                	test   %al,%al
  402af1:	0f 84 66 02 00 00    	je     402d5d <strncpy0+0x35d>
  402af7:	88 47 11             	mov    %al,0x11(%rdi)
  402afa:	8a 46 12             	mov    0x12(%rsi),%al
  402afd:	84 c0                	test   %al,%al
  402aff:	0f 84 62 02 00 00    	je     402d67 <strncpy0+0x367>
  402b05:	88 47 12             	mov    %al,0x12(%rdi)
  402b08:	8a 46 13             	mov    0x13(%rsi),%al
  402b0b:	84 c0                	test   %al,%al
  402b0d:	0f 84 5e 02 00 00    	je     402d71 <strncpy0+0x371>
  402b13:	88 47 13             	mov    %al,0x13(%rdi)
  402b16:	8a 46 14             	mov    0x14(%rsi),%al
  402b19:	84 c0                	test   %al,%al
  402b1b:	0f 84 5a 02 00 00    	je     402d7b <strncpy0+0x37b>
  402b21:	88 47 14             	mov    %al,0x14(%rdi)
  402b24:	8a 46 15             	mov    0x15(%rsi),%al
  402b27:	84 c0                	test   %al,%al
  402b29:	0f 84 56 02 00 00    	je     402d85 <strncpy0+0x385>
  402b2f:	88 47 15             	mov    %al,0x15(%rdi)
  402b32:	8a 46 16             	mov    0x16(%rsi),%al
  402b35:	84 c0                	test   %al,%al
  402b37:	0f 84 52 02 00 00    	je     402d8f <strncpy0+0x38f>
  402b3d:	88 47 16             	mov    %al,0x16(%rdi)
  402b40:	8a 46 17             	mov    0x17(%rsi),%al
  402b43:	84 c0                	test   %al,%al
  402b45:	0f 84 4e 02 00 00    	je     402d99 <strncpy0+0x399>
  402b4b:	88 47 17             	mov    %al,0x17(%rdi)
  402b4e:	8a 46 18             	mov    0x18(%rsi),%al
  402b51:	84 c0                	test   %al,%al
  402b53:	0f 84 4a 02 00 00    	je     402da3 <strncpy0+0x3a3>
  402b59:	88 47 18             	mov    %al,0x18(%rdi)
  402b5c:	8a 46 19             	mov    0x19(%rsi),%al
  402b5f:	84 c0                	test   %al,%al
  402b61:	0f 84 46 02 00 00    	je     402dad <strncpy0+0x3ad>
  402b67:	88 47 19             	mov    %al,0x19(%rdi)
  402b6a:	8a 46 1a             	mov    0x1a(%rsi),%al
  402b6d:	84 c0                	test   %al,%al
  402b6f:	0f 84 42 02 00 00    	je     402db7 <strncpy0+0x3b7>
  402b75:	88 47 1a             	mov    %al,0x1a(%rdi)
  402b78:	8a 46 1b             	mov    0x1b(%rsi),%al
  402b7b:	84 c0                	test   %al,%al
  402b7d:	0f 84 3e 02 00 00    	je     402dc1 <strncpy0+0x3c1>
  402b83:	88 47 1b             	mov    %al,0x1b(%rdi)
  402b86:	8a 46 1c             	mov    0x1c(%rsi),%al
  402b89:	84 c0                	test   %al,%al
  402b8b:	0f 84 3a 02 00 00    	je     402dcb <strncpy0+0x3cb>
  402b91:	88 47 1c             	mov    %al,0x1c(%rdi)
  402b94:	8a 46 1d             	mov    0x1d(%rsi),%al
  402b97:	84 c0                	test   %al,%al
  402b99:	0f 84 36 02 00 00    	je     402dd5 <strncpy0+0x3d5>
  402b9f:	88 47 1d             	mov    %al,0x1d(%rdi)
  402ba2:	8a 46 1e             	mov    0x1e(%rsi),%al
  402ba5:	84 c0                	test   %al,%al
  402ba7:	0f 84 32 02 00 00    	je     402ddf <strncpy0+0x3df>
  402bad:	88 47 1e             	mov    %al,0x1e(%rdi)
  402bb0:	8a 46 1f             	mov    0x1f(%rsi),%al
  402bb3:	84 c0                	test   %al,%al
  402bb5:	0f 84 2e 02 00 00    	je     402de9 <strncpy0+0x3e9>
  402bbb:	88 47 1f             	mov    %al,0x1f(%rdi)
  402bbe:	8a 46 20             	mov    0x20(%rsi),%al
  402bc1:	84 c0                	test   %al,%al
  402bc3:	0f 84 2a 02 00 00    	je     402df3 <strncpy0+0x3f3>
  402bc9:	88 47 20             	mov    %al,0x20(%rdi)
  402bcc:	8a 46 21             	mov    0x21(%rsi),%al
  402bcf:	84 c0                	test   %al,%al
  402bd1:	0f 84 26 02 00 00    	je     402dfd <strncpy0+0x3fd>
  402bd7:	88 47 21             	mov    %al,0x21(%rdi)
  402bda:	8a 46 22             	mov    0x22(%rsi),%al
  402bdd:	84 c0                	test   %al,%al
  402bdf:	0f 84 22 02 00 00    	je     402e07 <strncpy0+0x407>
  402be5:	88 47 22             	mov    %al,0x22(%rdi)
  402be8:	8a 46 23             	mov    0x23(%rsi),%al
  402beb:	84 c0                	test   %al,%al
  402bed:	0f 84 1e 02 00 00    	je     402e11 <strncpy0+0x411>
  402bf3:	88 47 23             	mov    %al,0x23(%rdi)
  402bf6:	8a 46 24             	mov    0x24(%rsi),%al
  402bf9:	84 c0                	test   %al,%al
  402bfb:	0f 84 1a 02 00 00    	je     402e1b <strncpy0+0x41b>
  402c01:	88 47 24             	mov    %al,0x24(%rdi)
  402c04:	8a 46 25             	mov    0x25(%rsi),%al
  402c07:	84 c0                	test   %al,%al
  402c09:	0f 84 16 02 00 00    	je     402e25 <strncpy0+0x425>
  402c0f:	88 47 25             	mov    %al,0x25(%rdi)
  402c12:	8a 46 26             	mov    0x26(%rsi),%al
  402c15:	84 c0                	test   %al,%al
  402c17:	0f 84 12 02 00 00    	je     402e2f <strncpy0+0x42f>
  402c1d:	88 47 26             	mov    %al,0x26(%rdi)
  402c20:	8a 46 27             	mov    0x27(%rsi),%al
  402c23:	84 c0                	test   %al,%al
  402c25:	0f 84 0e 02 00 00    	je     402e39 <strncpy0+0x439>
  402c2b:	88 47 27             	mov    %al,0x27(%rdi)
  402c2e:	8a 46 28             	mov    0x28(%rsi),%al
  402c31:	84 c0                	test   %al,%al
  402c33:	0f 84 0a 02 00 00    	je     402e43 <strncpy0+0x443>
  402c39:	88 47 28             	mov    %al,0x28(%rdi)
  402c3c:	8a 46 29             	mov    0x29(%rsi),%al
  402c3f:	84 c0                	test   %al,%al
  402c41:	0f 84 06 02 00 00    	je     402e4d <strncpy0+0x44d>
  402c47:	88 47 29             	mov    %al,0x29(%rdi)
  402c4a:	8a 46 2a             	mov    0x2a(%rsi),%al
  402c4d:	84 c0                	test   %al,%al
  402c4f:	0f 84 02 02 00 00    	je     402e57 <strncpy0+0x457>
  402c55:	88 47 2a             	mov    %al,0x2a(%rdi)
  402c58:	8a 46 2b             	mov    0x2b(%rsi),%al
  402c5b:	84 c0                	test   %al,%al
  402c5d:	0f 84 fe 01 00 00    	je     402e61 <strncpy0+0x461>
  402c63:	88 47 2b             	mov    %al,0x2b(%rdi)
  402c66:	8a 46 2c             	mov    0x2c(%rsi),%al
  402c69:	84 c0                	test   %al,%al
  402c6b:	0f 84 fa 01 00 00    	je     402e6b <strncpy0+0x46b>
  402c71:	88 47 2c             	mov    %al,0x2c(%rdi)
  402c74:	8a 46 2d             	mov    0x2d(%rsi),%al
  402c77:	84 c0                	test   %al,%al
  402c79:	0f 84 f6 01 00 00    	je     402e75 <strncpy0+0x475>
  402c7f:	88 47 2d             	mov    %al,0x2d(%rdi)
  402c82:	8a 46 2e             	mov    0x2e(%rsi),%al
  402c85:	84 c0                	test   %al,%al
  402c87:	0f 84 f2 01 00 00    	je     402e7f <strncpy0+0x47f>
  402c8d:	88 47 2e             	mov    %al,0x2e(%rdi)
  402c90:	8a 46 2f             	mov    0x2f(%rsi),%al
  402c93:	84 c0                	test   %al,%al
  402c95:	0f 84 ee 01 00 00    	je     402e89 <strncpy0+0x489>
  402c9b:	88 47 2f             	mov    %al,0x2f(%rdi)
  402c9e:	8a 46 30             	mov    0x30(%rsi),%al
  402ca1:	84 c0                	test   %al,%al
  402ca3:	0f 84 ea 01 00 00    	je     402e93 <strncpy0+0x493>
  402ca9:	88 47 30             	mov    %al,0x30(%rdi)
  402cac:	b8 31 00 00 00       	mov    $0x31,%eax
  402cb1:	c6 04 07 00          	movb   $0x0,(%rdi,%rax,1)
  402cb5:	c3                   	ret    
  402cb6:	31 c0                	xor    %eax,%eax
  402cb8:	c6 04 07 00          	movb   $0x0,(%rdi,%rax,1)
  402cbc:	c3                   	ret    
  402cbd:	b8 01 00 00 00       	mov    $0x1,%eax
  402cc2:	c6 04 07 00          	movb   $0x0,(%rdi,%rax,1)
  402cc6:	c3                   	ret    
  402cc7:	b8 02 00 00 00       	mov    $0x2,%eax
  402ccc:	c6 04 07 00          	movb   $0x0,(%rdi,%rax,1)
  402cd0:	c3                   	ret    
  402cd1:	b8 03 00 00 00       	mov    $0x3,%eax
  402cd6:	c6 04 07 00          	movb   $0x0,(%rdi,%rax,1)
  402cda:	c3                   	ret    
  402cdb:	b8 04 00 00 00       	mov    $0x4,%eax
  402ce0:	c6 04 07 00          	movb   $0x0,(%rdi,%rax,1)
  402ce4:	c3                   	ret    
  402ce5:	b8 05 00 00 00       	mov    $0x5,%eax
  402cea:	c6 04 07 00          	movb   $0x0,(%rdi,%rax,1)
  402cee:	c3                   	ret    
  402cef:	b8 06 00 00 00       	mov    $0x6,%eax
  402cf4:	c6 04 07 00          	movb   $0x0,(%rdi,%rax,1)
  402cf8:	c3                   	ret    
  402cf9:	b8 07 00 00 00       	mov    $0x7,%eax
  402cfe:	c6 04 07 00          	movb   $0x0,(%rdi,%rax,1)
  402d02:	c3                   	ret    
  402d03:	b8 08 00 00 00       	mov    $0x8,%eax
  402d08:	c6 04 07 00          	movb   $0x0,(%rdi,%rax,1)
  402d0c:	c3                   	ret    
  402d0d:	b8 09 00 00 00       	mov    $0x9,%eax
  402d12:	c6 04 07 00          	movb   $0x0,(%rdi,%rax,1)
  402d16:	c3                   	ret    
  402d17:	b8 0a 00 00 00       	mov    $0xa,%eax
  402d1c:	c6 04 07 00          	movb   $0x0,(%rdi,%rax,1)
  402d20:	c3                   	ret    
  402d21:	b8 0b 00 00 00       	mov    $0xb,%eax
  402d26:	c6 04 07 00          	movb   $0x0,(%rdi,%rax,1)
  402d2a:	c3                   	ret    
  402d2b:	b8 0c 00 00 00       	mov    $0xc,%eax
  402d30:	c6 04 07 00          	movb   $0x0,(%rdi,%rax,1)
  402d34:	c3                   	ret    
  402d35:	b8 0d 00 00 00       	mov    $0xd,%eax
  402d3a:	c6 04 07 00          	movb   $0x0,(%rdi,%rax,1)
  402d3e:	c3                   	ret    
  402d3f:	b8 0e 00 00 00       	mov    $0xe,%eax
  402d44:	c6 04 07 00          	movb   $0x0,(%rdi,%rax,1)
  402d48:	c3                   	ret    
  402d49:	b8 0f 00 00 00       	mov    $0xf,%eax
  402d4e:	c6 04 07 00          	movb   $0x0,(%rdi,%rax,1)
  402d52:	c3                   	ret    
  402d53:	b8 10 00 00 00       	mov    $0x10,%eax
  402d58:	c6 04 07 00          	movb   $0x0,(%rdi,%rax,1)
  402d5c:	c3                   	ret    
  402d5d:	b8 11 00 00 00       	mov    $0x11,%eax
  402d62:	c6 04 07 00          	movb   $0x0,(%rdi,%rax,1)
  402d66:	c3                   	ret    
  402d67:	b8 12 00 00 00       	mov    $0x12,%eax
  402d6c:	c6 04 07 00          	movb   $0x0,(%rdi,%rax,1)
  402d70:	c3                   	ret    
  402d71:	b8 13 00 00 00       	mov    $0x13,%eax
  402d76:	c6 04 07 00          	movb   $0x0,(%rdi,%rax,1)
  402d7a:	c3                   	ret    
  402d7b:	b8 14 00 00 00       	mov    $0x14,%eax
  402d80:	c6 04 07 00          	movb   $0x0,(%rdi,%rax,1)
  402d84:	c3                   	ret    
  402d85:	b8 15 00 00 00       	mov    $0x15,%eax
  402d8a:	c6 04 07 00          	movb   $0x0,(%rdi,%rax,1)
  402d8e:	c3                   	ret    
  402d8f:	b8 16 00 00 00       	mov    $0x16,%eax
  402d94:	c6 04 07 00          	movb   $0x0,(%rdi,%rax,1)
  402d98:	c3                   	ret    
  402d99:	b8 17 00 00 00       	mov    $0x17,%eax
  402d9e:	c6 04 07 00          	movb   $0x0,(%rdi,%rax,1)
  402da2:	c3                   	ret    
  402da3:	b8 18 00 00 00       	mov    $0x18,%eax
  402da8:	c6 04 07 00          	movb   $0x0,(%rdi,%rax,1)
  402dac:	c3                   	ret    
  402dad:	b8 19 00 00 00       	mov    $0x19,%eax
  402db2:	c6 04 07 00          	movb   $0x0,(%rdi,%rax,1)
  402db6:	c3                   	ret    
  402db7:	b8 1a 00 00 00       	mov    $0x1a,%eax
  402dbc:	c6 04 07 00          	movb   $0x0,(%rdi,%rax,1)
  402dc0:	c3                   	ret    
  402dc1:	b8 1b 00 00 00       	mov    $0x1b,%eax
  402dc6:	c6 04 07 00          	movb   $0x0,(%rdi,%rax,1)
  402dca:	c3                   	ret    
  402dcb:	b8 1c 00 00 00       	mov    $0x1c,%eax
  402dd0:	c6 04 07 00          	movb   $0x0,(%rdi,%rax,1)
  402dd4:	c3                   	ret    
  402dd5:	b8 1d 00 00 00       	mov    $0x1d,%eax
  402dda:	c6 04 07 00          	movb   $0x0,(%rdi,%rax,1)
  402dde:	c3                   	ret    
  402ddf:	b8 1e 00 00 00       	mov    $0x1e,%eax
  402de4:	c6 04 07 00          	movb   $0x0,(%rdi,%rax,1)
  402de8:	c3                   	ret    
  402de9:	b8 1f 00 00 00       	mov    $0x1f,%eax
  402dee:	c6 04 07 00          	movb   $0x0,(%rdi,%rax,1)
  402df2:	c3                   	ret    
  402df3:	b8 20 00 00 00       	mov    $0x20,%eax
  402df8:	c6 04 07 00          	movb   $0x0,(%rdi,%rax,1)
  402dfc:	c3                   	ret    
  402dfd:	b8 21 00 00 00       	mov    $0x21,%eax
  402e02:	c6 04 07 00          	movb   $0x0,(%rdi,%rax,1)
  402e06:	c3                   	ret    
  402e07:	b8 22 00 00 00       	mov    $0x22,%eax
  402e0c:	c6 04 07 00          	movb   $0x0,(%rdi,%rax,1)
  402e10:	c3                   	ret    
  402e11:	b8 23 00 00 00       	mov    $0x23,%eax
  402e16:	c6 04 07 00          	movb   $0x0,(%rdi,%rax,1)
  402e1a:	c3                   	ret    
  402e1b:	b8 24 00 00 00       	mov    $0x24,%eax
  402e20:	c6 04 07 00          	movb   $0x0,(%rdi,%rax,1)
  402e24:	c3                   	ret    
  402e25:	b8 25 00 00 00       	mov    $0x25,%eax
  402e2a:	c6 04 07 00          	movb   $0x0,(%rdi,%rax,1)
  402e2e:	c3                   	ret    
  402e2f:	b8 26 00 00 00       	mov    $0x26,%eax
  402e34:	c6 04 07 00          	movb   $0x0,(%rdi,%rax,1)
  402e38:	c3                   	ret    
  402e39:	b8 27 00 00 00       	mov    $0x27,%eax
  402e3e:	c6 04 07 00          	movb   $0x0,(%rdi,%rax,1)
  402e42:	c3                   	ret    
  402e43:	b8 28 00 00 00       	mov    $0x28,%eax
  402e48:	c6 04 07 00          	movb   $0x0,(%rdi,%rax,1)
  402e4c:	c3                   	ret    
  402e4d:	b8 29 00 00 00       	mov    $0x29,%eax
  402e52:	c6 04 07 00          	movb   $0x0,(%rdi,%rax,1)
  402e56:	c3                   	ret    
  402e57:	b8 2a 00 00 00       	mov    $0x2a,%eax
  402e5c:	c6 04 07 00          	movb   $0x0,(%rdi,%rax,1)
  402e60:	c3                   	ret    
  402e61:	b8 2b 00 00 00       	mov    $0x2b,%eax
  402e66:	c6 04 07 00          	movb   $0x0,(%rdi,%rax,1)
  402e6a:	c3                   	ret    
  402e6b:	b8 2c 00 00 00       	mov    $0x2c,%eax
  402e70:	c6 04 07 00          	movb   $0x0,(%rdi,%rax,1)
  402e74:	c3                   	ret    
  402e75:	b8 2d 00 00 00       	mov    $0x2d,%eax
  402e7a:	c6 04 07 00          	movb   $0x0,(%rdi,%rax,1)
  402e7e:	c3                   	ret    
  402e7f:	b8 2e 00 00 00       	mov    $0x2e,%eax
  402e84:	c6 04 07 00          	movb   $0x0,(%rdi,%rax,1)
  402e88:	c3                   	ret    
  402e89:	b8 2f 00 00 00       	mov    $0x2f,%eax
  402e8e:	c6 04 07 00          	movb   $0x0,(%rdi,%rax,1)
  402e92:	c3                   	ret    
  402e93:	b8 30 00 00 00       	mov    $0x30,%eax
  402e98:	c6 04 07 00          	movb   $0x0,(%rdi,%rax,1)
  402e9c:	c3                   	ret    
  402e9d:	0f 1f 00             	nopl   (%rax)

0000000000402ea0 <ini_parse_file>:
  402ea0:	48 89 d1             	mov    %rdx,%rcx
  402ea3:	48 89 f2             	mov    %rsi,%rdx
  402ea6:	48 89 fe             	mov    %rdi,%rsi
  402ea9:	48 8b 3d 30 b1 00 00 	mov    0xb130(%rip),%rdi        # 40dfe0 <fgets@GLIBC_2.2.5>
  402eb0:	e9 6b f6 ff ff       	jmp    402520 <ini_parse_stream>
  402eb5:	66 2e 0f 1f 84 00 00 	cs nopw 0x0(%rax,%rax,1)
  402ebc:	00 00 00 
  402ebf:	90                   	nop

0000000000402ec0 <ini_parse>:
  402ec0:	55                   	push   %rbp
  402ec1:	41 57                	push   %r15
  402ec3:	41 56                	push   %r14
  402ec5:	53                   	push   %rbx
  402ec6:	50                   	push   %rax
  402ec7:	49 89 d6             	mov    %rdx,%r14
  402eca:	49 89 f7             	mov    %rsi,%r15
  402ecd:	48 8d 35 0f 6b 00 00 	lea    0x6b0f(%rip),%rsi        # 4099e3 <short_opt+0x73>
  402ed4:	e8 87 f3 ff ff       	call   402260 <fopen@plt>
  402ed9:	48 85 c0             	test   %rax,%rax
  402edc:	74 26                	je     402f04 <ini_parse+0x44>
  402ede:	48 89 c3             	mov    %rax,%rbx
  402ee1:	48 8b 3d f8 b0 00 00 	mov    0xb0f8(%rip),%rdi        # 40dfe0 <fgets@GLIBC_2.2.5>
  402ee8:	48 89 c6             	mov    %rax,%rsi
  402eeb:	4c 89 fa             	mov    %r15,%rdx
  402eee:	4c 89 f1             	mov    %r14,%rcx
  402ef1:	e8 2a f6 ff ff       	call   402520 <ini_parse_stream>
  402ef6:	89 c5                	mov    %eax,%ebp
  402ef8:	48 89 df             	mov    %rbx,%rdi
  402efb:	e8 e0 f2 ff ff       	call   4021e0 <fclose@plt>
  402f00:	89 e8                	mov    %ebp,%eax
  402f02:	eb 05                	jmp    402f09 <ini_parse+0x49>
  402f04:	b8 ff ff ff ff       	mov    $0xffffffff,%eax
  402f09:	48 83 c4 08          	add    $0x8,%rsp
  402f0d:	5b                   	pop    %rbx
  402f0e:	41 5e                	pop    %r14
  402f10:	41 5f                	pop    %r15
  402f12:	5d                   	pop    %rbp
  402f13:	c3                   	ret    
  402f14:	66 2e 0f 1f 84 00 00 	cs nopw 0x0(%rax,%rax,1)
  402f1b:	00 00 00 
  402f1e:	66 90                	xchg   %ax,%ax

0000000000402f20 <ini_parse_string>:
  402f20:	41 56                	push   %r14
  402f22:	53                   	push   %rbx
  402f23:	48 83 ec 18          	sub    $0x18,%rsp
  402f27:	49 89 d6             	mov    %rdx,%r14
  402f2a:	48 89 f3             	mov    %rsi,%rbx
  402f2d:	64 48 8b 04 25 28 00 	mov    %fs:0x28,%rax
  402f34:	00 00 
  402f36:	48 89 44 24 10       	mov    %rax,0x10(%rsp)
  402f3b:	48 89 3c 24          	mov    %rdi,(%rsp)
  402f3f:	e8 8c f1 ff ff       	call   4020d0 <strlen@plt>
  402f44:	48 89 44 24 08       	mov    %rax,0x8(%rsp)
  402f49:	48 8d 3d 30 00 00 00 	lea    0x30(%rip),%rdi        # 402f80 <ini_reader_string>
  402f50:	48 89 e6             	mov    %rsp,%rsi
  402f53:	48 89 da             	mov    %rbx,%rdx
  402f56:	4c 89 f1             	mov    %r14,%rcx
  402f59:	e8 c2 f5 ff ff       	call   402520 <ini_parse_stream>
  402f5e:	64 48 8b 0c 25 28 00 	mov    %fs:0x28,%rcx
  402f65:	00 00 
  402f67:	48 3b 4c 24 10       	cmp    0x10(%rsp),%rcx
  402f6c:	75 08                	jne    402f76 <ini_parse_string+0x56>
  402f6e:	48 83 c4 18          	add    $0x18,%rsp
  402f72:	5b                   	pop    %rbx
  402f73:	41 5e                	pop    %r14
  402f75:	c3                   	ret    
  402f76:	e8 c5 f2 ff ff       	call   402240 <__stack_chk_fail@plt>
  402f7b:	0f 1f 44 00 00       	nopl   0x0(%rax,%rax,1)

0000000000402f80 <ini_reader_string>:
  402f80:	53                   	push   %rbx
  402f81:	31 c0                	xor    %eax,%eax
  402f83:	83 fe 02             	cmp    $0x2,%esi
  402f86:	7c 5b                	jl     402fe3 <ini_reader_string+0x63>
  402f88:	48 8b 4a 08          	mov    0x8(%rdx),%rcx
  402f8c:	48 85 c9             	test   %rcx,%rcx
  402f8f:	74 52                	je     402fe3 <ini_reader_string+0x63>
  402f91:	4c 8b 12             	mov    (%rdx),%r10
  402f94:	4c 8d 5f 01          	lea    0x1(%rdi),%r11
  402f98:	48 83 c1 ff          	add    $0xffffffffffffffff,%rcx
  402f9c:	49 83 c2 01          	add    $0x1,%r10
  402fa0:	4d 89 d9             	mov    %r11,%r9
  402fa3:	49 89 c8             	mov    %rcx,%r8
  402fa6:	4c 89 d0             	mov    %r10,%rax
  402fa9:	41 0f b6 4a ff       	movzbl -0x1(%r10),%ecx
  402fae:	41 88 4b ff          	mov    %cl,-0x1(%r11)
  402fb2:	80 f9 0a             	cmp    $0xa,%cl
  402fb5:	74 1e                	je     402fd5 <ini_reader_string+0x55>
  402fb7:	4c 89 c1             	mov    %r8,%rcx
  402fba:	48 83 c1 ff          	add    $0xffffffffffffffff,%rcx
  402fbe:	0f 92 c3             	setb   %bl
  402fc1:	83 fe 03             	cmp    $0x3,%esi
  402fc4:	7c 0f                	jl     402fd5 <ini_reader_string+0x55>
  402fc6:	83 c6 ff             	add    $0xffffffff,%esi
  402fc9:	4d 8d 59 01          	lea    0x1(%r9),%r11
  402fcd:	4c 8d 50 01          	lea    0x1(%rax),%r10
  402fd1:	84 db                	test   %bl,%bl
  402fd3:	75 cb                	jne    402fa0 <ini_reader_string+0x20>
  402fd5:	41 c6 01 00          	movb   $0x0,(%r9)
  402fd9:	48 89 02             	mov    %rax,(%rdx)
  402fdc:	4c 89 42 08          	mov    %r8,0x8(%rdx)
  402fe0:	48 89 f8             	mov    %rdi,%rax
  402fe3:	5b                   	pop    %rbx
  402fe4:	c3                   	ret    
  402fe5:	66 2e 0f 1f 84 00 00 	cs nopw 0x0(%rax,%rax,1)
  402fec:	00 00 00 
  402fef:	90                   	nop

0000000000402ff0 <teavpn_server_tcp_handler>:
  402ff0:	55                   	push   %rbp
  402ff1:	41 57                	push   %r15
  402ff3:	41 56                	push   %r14
  402ff5:	41 55                	push   %r13
  402ff7:	41 54                	push   %r12
  402ff9:	53                   	push   %rbx
  402ffa:	48 81 ec 48 42 00 00 	sub    $0x4248,%rsp
  403001:	48 89 fb             	mov    %rdi,%rbx
  403004:	64 48 8b 04 25 28 00 	mov    %fs:0x28,%rax
  40300b:	00 00 
  40300d:	48 89 84 24 40 42 00 	mov    %rax,0x4240(%rsp)
  403014:	00 
  403015:	48 8d ac 24 90 00 00 	lea    0x90(%rsp),%rbp
  40301c:	00 
  40301d:	ba c0 40 00 00       	mov    $0x40c0,%edx
  403022:	48 89 ef             	mov    %rbp,%rdi
  403025:	31 f6                	xor    %esi,%esi
  403027:	e8 f4 f0 ff ff       	call   402120 <memset@plt>
  40302c:	48 89 9c 24 b0 00 00 	mov    %rbx,0xb0(%rsp)
  403033:	00 
  403034:	48 89 2d 7d b2 00 00 	mov    %rbp,0xb27d(%rip)        # 40e2b8 <g_state>
  40303b:	48 8d 1d de 15 00 00 	lea    0x15de(%rip),%rbx        # 404620 <handle_interrupt>
  403042:	bf 01 00 00 00       	mov    $0x1,%edi
  403047:	48 89 de             	mov    %rbx,%rsi
  40304a:	e8 21 f2 ff ff       	call   402270 <signal@plt>
  40304f:	bf 02 00 00 00       	mov    $0x2,%edi
  403054:	48 89 de             	mov    %rbx,%rsi
  403057:	e8 14 f2 ff ff       	call   402270 <signal@plt>
  40305c:	bf 0f 00 00 00       	mov    $0xf,%edi
  403061:	48 89 de             	mov    %rbx,%rsi
  403064:	e8 07 f2 ff ff       	call   402270 <signal@plt>
  403069:	bf 03 00 00 00       	mov    $0x3,%edi
  40306e:	48 89 de             	mov    %rbx,%rsi
  403071:	e8 fa f1 ff ff       	call   402270 <signal@plt>
  403076:	be 01 00 00 00       	mov    $0x1,%esi
  40307b:	bf 0d 00 00 00       	mov    $0xd,%edi
  403080:	e8 eb f1 ff ff       	call   402270 <signal@plt>
  403085:	4c 8b b4 24 b0 00 00 	mov    0xb0(%rsp),%r14
  40308c:	00 
  40308d:	41 0f b7 5e 4a       	movzwl 0x4a(%r14),%ebx
  403092:	bf ff ff 00 00       	mov    $0xffff,%edi
  403097:	be 02 00 00 00       	mov    $0x2,%esi
  40309c:	e8 af f0 ff ff       	call   402150 <calloc@plt>
  4030a1:	48 85 c0             	test   %rax,%rax
  4030a4:	0f 84 bf 13 00 00    	je     404469 <teavpn_server_tcp_handler+0x1479>
  4030aa:	66 89 9c 24 a0 00 00 	mov    %bx,0xa0(%rsp)
  4030b1:	00 
  4030b2:	66 89 9c 24 a2 00 00 	mov    %bx,0xa2(%rsp)
  4030b9:	00 
  4030ba:	48 89 84 24 a8 00 00 	mov    %rax,0xa8(%rsp)
  4030c1:	00 
  4030c2:	66 85 db             	test   %bx,%bx
  4030c5:	0f 84 0c 01 00 00    	je     4031d7 <teavpn_server_tcp_handler+0x1e7>
  4030cb:	0f b7 cb             	movzwl %bx,%ecx
  4030ce:	8d 53 ff             	lea    -0x1(%rbx),%edx
  4030d1:	66 83 fa 07          	cmp    $0x7,%dx
  4030d5:	0f 82 d3 00 00 00    	jb     4031ae <teavpn_server_tcp_handler+0x1be>
  4030db:	0f b7 d2             	movzwl %dx,%edx
  4030de:	48 83 c2 01          	add    $0x1,%rdx
  4030e2:	89 d6                	mov    %edx,%esi
  4030e4:	83 e6 f8             	and    $0xfffffff8,%esi
  4030e7:	66 0f 6e c3          	movd   %ebx,%xmm0
  4030eb:	f2 0f 70 c0 e0       	pshuflw $0xe0,%xmm0,%xmm0
  4030f0:	66 0f 70 c0 00       	pshufd $0x0,%xmm0,%xmm0
  4030f5:	66 0f fd 05 13 5f 00 	paddw  0x5f13(%rip),%xmm0        # 409010 <_IO_stdin_used+0x10>
  4030fc:	00 
  4030fd:	48 8d 7e f8          	lea    -0x8(%rsi),%rdi
  403101:	48 89 fd             	mov    %rdi,%rbp
  403104:	48 c1 ed 03          	shr    $0x3,%rbp
  403108:	48 83 c5 01          	add    $0x1,%rbp
  40310c:	48 85 ff             	test   %rdi,%rdi
  40310f:	74 6d                	je     40317e <teavpn_server_tcp_handler+0x18e>
  403111:	48 89 ef             	mov    %rbp,%rdi
  403114:	48 83 e7 fe          	and    $0xfffffffffffffffe,%rdi
  403118:	48 f7 df             	neg    %rdi
  40311b:	66 0f 76 c9          	pcmpeqd %xmm1,%xmm1
  40311f:	66 0f 6f 15 f9 5e 00 	movdqa 0x5ef9(%rip),%xmm2        # 409020 <_IO_stdin_used+0x20>
  403126:	00 
  403127:	66 0f 6f 1d 01 5f 00 	movdqa 0x5f01(%rip),%xmm3        # 409030 <_IO_stdin_used+0x30>
  40312e:	00 
  40312f:	90                   	nop
  403130:	66 0f 6f e0          	movdqa %xmm0,%xmm4
  403134:	66 0f fd e1          	paddw  %xmm1,%xmm4
  403138:	66 0f c5 dc 00       	pextrw $0x0,%xmm4,%ebx
  40313d:	66 0f 70 e4 4e       	pshufd $0x4e,%xmm4,%xmm4
  403142:	f2 0f 70 e4 1b       	pshuflw $0x1b,%xmm4,%xmm4
  403147:	f3 0f 70 e4 1b       	pshufhw $0x1b,%xmm4,%xmm4
  40314c:	f3 0f 7f 64 58 f2    	movdqu %xmm4,-0xe(%rax,%rbx,2)
  403152:	66 0f 6f e0          	movdqa %xmm0,%xmm4
  403156:	66 0f fd e2          	paddw  %xmm2,%xmm4
  40315a:	66 0f c5 dc 00       	pextrw $0x0,%xmm4,%ebx
  40315f:	66 0f 70 e4 4e       	pshufd $0x4e,%xmm4,%xmm4
  403164:	f2 0f 70 e4 1b       	pshuflw $0x1b,%xmm4,%xmm4
  403169:	f3 0f 70 e4 1b       	pshufhw $0x1b,%xmm4,%xmm4
  40316e:	f3 0f 7f 64 58 f2    	movdqu %xmm4,-0xe(%rax,%rbx,2)
  403174:	66 0f fd c3          	paddw  %xmm3,%xmm0
  403178:	48 83 c7 02          	add    $0x2,%rdi
  40317c:	75 b2                	jne    403130 <teavpn_server_tcp_handler+0x140>
  40317e:	40 f6 c5 01          	test   $0x1,%bpl
  403182:	74 22                	je     4031a6 <teavpn_server_tcp_handler+0x1b6>
  403184:	66 0f 76 c9          	pcmpeqd %xmm1,%xmm1
  403188:	66 0f fd c1          	paddw  %xmm1,%xmm0
  40318c:	66 0f c5 f8 00       	pextrw $0x0,%xmm0,%edi
  403191:	66 0f 70 c0 4e       	pshufd $0x4e,%xmm0,%xmm0
  403196:	f2 0f 70 c0 1b       	pshuflw $0x1b,%xmm0,%xmm0
  40319b:	f3 0f 70 c0 1b       	pshufhw $0x1b,%xmm0,%xmm0
  4031a0:	f3 0f 7f 44 78 f2    	movdqu %xmm0,-0xe(%rax,%rdi,2)
  4031a6:	48 39 f2             	cmp    %rsi,%rdx
  4031a9:	74 22                	je     4031cd <teavpn_server_tcp_handler+0x1dd>
  4031ab:	48 29 f1             	sub    %rsi,%rcx
  4031ae:	83 c1 ff             	add    $0xffffffff,%ecx
  4031b1:	0f b7 d1             	movzwl %cx,%edx
  4031b4:	48 8d 04 50          	lea    (%rax,%rdx,2),%rax
  4031b8:	0f 1f 84 00 00 00 00 	nopl   0x0(%rax,%rax,1)
  4031bf:	00 
  4031c0:	66 89 08             	mov    %cx,(%rax)
  4031c3:	48 83 c0 fe          	add    $0xfffffffffffffffe,%rax
  4031c7:	66 83 c1 ff          	add    $0xffff,%cx
  4031cb:	72 f3                	jb     4031c0 <teavpn_server_tcp_handler+0x1d0>
  4031cd:	66 c7 84 24 a0 00 00 	movw   $0x0,0xa0(%rsp)
  4031d4:	00 00 00 
  4031d7:	41 0f b7 5e 4a       	movzwl 0x4a(%r14),%ebx
  4031dc:	0f b7 fb             	movzwl %bx,%edi
  4031df:	be 80 40 00 00       	mov    $0x4080,%esi
  4031e4:	e8 67 ef ff ff       	call   402150 <calloc@plt>
  4031e9:	48 85 c0             	test   %rax,%rax
  4031ec:	0f 84 77 12 00 00    	je     404469 <teavpn_server_tcp_handler+0x1479>
  4031f2:	66 85 db             	test   %bx,%bx
  4031f5:	74 49                	je     403240 <teavpn_server_tcp_handler+0x250>
  4031f7:	83 c3 ff             	add    $0xffffffff,%ebx
  4031fa:	0f b7 cb             	movzwl %bx,%ecx
  4031fd:	48 69 d1 80 40 00 00 	imul   $0x4080,%rcx,%rdx
  403204:	48 89 c1             	mov    %rax,%rcx
  403207:	48 01 d1             	add    %rdx,%rcx
  40320a:	ba ff ff ff ff       	mov    $0xffffffff,%edx
  40320f:	90                   	nop
  403210:	48 89 11             	mov    %rdx,(%rcx)
  403213:	c7 41 08 00 00 00 00 	movl   $0x0,0x8(%rcx)
  40321a:	66 89 59 0c          	mov    %bx,0xc(%rcx)
  40321e:	66 c7 41 0e 5f 00    	movw   $0x5f,0xe(%rcx)
  403224:	48 c7 41 68 00 00 00 	movq   $0x0,0x68(%rcx)
  40322b:	00 
  40322c:	c7 41 4e 00 00 00 00 	movl   $0x0,0x4e(%rcx)
  403233:	48 81 c1 80 bf ff ff 	add    $0xffffffffffffbf80,%rcx
  40323a:	66 83 c3 ff          	add    $0xffff,%bx
  40323e:	72 d0                	jb     403210 <teavpn_server_tcp_handler+0x220>
  403240:	48 89 84 24 b8 00 00 	mov    %rax,0xb8(%rsp)
  403247:	00 
  403248:	bf ff ff 00 00       	mov    $0xffff,%edi
  40324d:	be 02 00 00 00       	mov    $0x2,%esi
  403252:	e8 f9 ee ff ff       	call   402150 <calloc@plt>
  403257:	48 85 c0             	test   %rax,%rax
  40325a:	0f 84 09 12 00 00    	je     404469 <teavpn_server_tcp_handler+0x1479>
  403260:	48 89 c3             	mov    %rax,%rbx
  403263:	ba fe ff 01 00       	mov    $0x1fffe,%edx
  403268:	48 89 c7             	mov    %rax,%rdi
  40326b:	31 f6                	xor    %esi,%esi
  40326d:	e8 ae ee ff ff       	call   402120 <memset@plt>
  403272:	48 89 9c 24 c0 00 00 	mov    %rbx,0xc0(%rsp)
  403279:	00 
  40327a:	bf 00 01 00 00       	mov    $0x100,%edi
  40327f:	be 00 02 00 00       	mov    $0x200,%esi
  403284:	e8 c7 ee ff ff       	call   402150 <calloc@plt>
  403289:	48 85 c0             	test   %rax,%rax
  40328c:	0f 84 d7 11 00 00    	je     404469 <teavpn_server_tcp_handler+0x1479>
  403292:	48 89 c3             	mov    %rax,%rbx
  403295:	ba 00 00 02 00       	mov    $0x20000,%edx
  40329a:	48 89 c7             	mov    %rax,%rdi
  40329d:	31 f6                	xor    %esi,%esi
  40329f:	e8 7c ee ff ff       	call   402120 <memset@plt>
  4032a4:	48 89 9c 24 c8 00 00 	mov    %rbx,0xc8(%rsp)
  4032ab:	00 
  4032ac:	41 0f b7 7e 4a       	movzwl 0x4a(%r14),%edi
  4032b1:	be 02 00 00 00       	mov    $0x2,%esi
  4032b6:	e8 95 ee ff ff       	call   402150 <calloc@plt>
  4032bb:	48 85 c0             	test   %rax,%rax
  4032be:	0f 84 a5 11 00 00    	je     404469 <teavpn_server_tcp_handler+0x1479>
  4032c4:	66 c7 84 24 e0 00 00 	movw   $0x0,0xe0(%rsp)
  4032cb:	00 00 00 
  4032ce:	48 89 84 24 d8 00 00 	mov    %rax,0xd8(%rsp)
  4032d5:	00 
  4032d6:	48 c7 84 24 90 00 00 	movq   $0xffffffffffffffff,0x90(%rsp)
  4032dd:	00 ff ff ff ff 
  4032e2:	c7 84 24 98 00 00 00 	movl   $0xffffffff,0x98(%rsp)
  4032e9:	ff ff ff ff 
  4032ed:	c6 84 24 9c 00 00 00 	movb   $0x0,0x9c(%rsp)
  4032f4:	00 
  4032f5:	48 c7 84 24 d0 00 00 	movq   $0x0,0xd0(%rsp)
  4032fc:	00 00 00 00 00 
  403301:	c6 84 24 4a 41 00 00 	movb   $0x0,0x414a(%rsp)
  403308:	00 
  403309:	49 8b 76 18          	mov    0x18(%r14),%rsi
  40330d:	48 8d 3d a4 5d 00 00 	lea    0x5da4(%rip),%rdi        # 4090b8 <_IO_stdin_used+0xb8>
  403314:	31 c0                	xor    %eax,%eax
  403316:	e8 45 4f 00 00       	call   408260 <__pr_notice>
  40331b:	49 8b 7e 18          	mov    0x18(%r14),%rdi
  40331f:	be 01 10 00 00       	mov    $0x1001,%esi
  403324:	e8 b7 3c 00 00       	call   406fe0 <tun_alloc>
  403329:	85 c0                	test   %eax,%eax
  40332b:	0f 88 c5 0f 00 00    	js     4042f6 <teavpn_server_tcp_handler+0x1306>
  403331:	89 c3                	mov    %eax,%ebx
  403333:	89 c7                	mov    %eax,%edi
  403335:	e8 46 3e 00 00       	call   407180 <fd_set_nonblock>
  40333a:	85 c0                	test   %eax,%eax
  40333c:	0f 88 85 11 00 00    	js     4044c7 <teavpn_server_tcp_handler+0x14d7>
  403342:	48 8d ac 24 f8 40 00 	lea    0x40f8(%rsp),%rbp
  403349:	00 
  40334a:	66 0f ef c0          	pxor   %xmm0,%xmm0
  40334e:	f3 0f 7f 45 40       	movdqu %xmm0,0x40(%rbp)
  403353:	f3 0f 7f 45 30       	movdqu %xmm0,0x30(%rbp)
  403358:	f3 0f 7f 45 20       	movdqu %xmm0,0x20(%rbp)
  40335d:	f3 0f 7f 45 10       	movdqu %xmm0,0x10(%rbp)
  403362:	f3 0f 7f 45 00       	movdqu %xmm0,0x0(%rbp)
  403367:	66 c7 45 50 00 00    	movw   $0x0,0x50(%rbp)
  40336d:	49 8b 76 18          	mov    0x18(%r14),%rsi
  403371:	ba 10 00 00 00       	mov    $0x10,%edx
  403376:	48 89 ef             	mov    %rbp,%rdi
  403379:	e8 92 ed ff ff       	call   402110 <strncpy@plt>
  40337e:	48 8d bc 24 18 41 00 	lea    0x4118(%rsp),%rdi
  403385:	00 
  403386:	49 8b 76 20          	mov    0x20(%r14),%rsi
  40338a:	ba 10 00 00 00       	mov    $0x10,%edx
  40338f:	e8 7c ed ff ff       	call   402110 <strncpy@plt>
  403394:	48 8d bc 24 28 41 00 	lea    0x4128(%rsp),%rdi
  40339b:	00 
  40339c:	49 8b 76 28          	mov    0x28(%r14),%rsi
  4033a0:	ba 10 00 00 00       	mov    $0x10,%edx
  4033a5:	e8 66 ed ff ff       	call   402110 <strncpy@plt>
  4033aa:	c6 84 24 07 41 00 00 	movb   $0x0,0x4107(%rsp)
  4033b1:	00 
  4033b2:	c6 84 24 27 41 00 00 	movb   $0x0,0x4127(%rsp)
  4033b9:	00 
  4033ba:	c6 84 24 37 41 00 00 	movb   $0x0,0x4137(%rsp)
  4033c1:	00 
  4033c2:	41 0f b7 46 10       	movzwl 0x10(%r14),%eax
  4033c7:	66 89 84 24 48 41 00 	mov    %ax,0x4148(%rsp)
  4033ce:	00 
  4033cf:	48 89 ef             	mov    %rbp,%rdi
  4033d2:	e8 49 3e 00 00       	call   407220 <teavpn_iface_up>
  4033d7:	84 c0                	test   %al,%al
  4033d9:	0f 84 da 10 00 00    	je     4044b9 <teavpn_server_tcp_handler+0x14c9>
  4033df:	89 9c 24 98 00 00 00 	mov    %ebx,0x98(%rsp)
  4033e6:	c6 84 24 4a 41 00 00 	movb   $0x1,0x414a(%rsp)
  4033ed:	01 
  4033ee:	48 8b 9c 24 b0 00 00 	mov    0xb0(%rsp),%rbx
  4033f5:	00 
  4033f6:	48 8d 3d 11 5d 00 00 	lea    0x5d11(%rip),%rdi        # 40910e <_IO_stdin_used+0x10e>
  4033fd:	31 c0                	xor    %eax,%eax
  4033ff:	e8 5c 4e 00 00       	call   408260 <__pr_notice>
  403404:	bf 02 00 00 00       	mov    $0x2,%edi
  403409:	be 01 08 00 00       	mov    $0x801,%esi
  40340e:	ba 06 00 00 00       	mov    $0x6,%edx
  403413:	e8 58 ec ff ff       	call   402070 <socket@plt>
  403418:	85 c0                	test   %eax,%eax
  40341a:	0f 88 b3 10 00 00    	js     4044d3 <teavpn_server_tcp_handler+0x14e3>
  403420:	89 c5                	mov    %eax,%ebp
  403422:	48 8d 3d 0e 5d 00 00 	lea    0x5d0e(%rip),%rdi        # 409137 <_IO_stdin_used+0x137>
  403429:	31 c0                	xor    %eax,%eax
  40342b:	e8 30 4e 00 00       	call   408260 <__pr_notice>
  403430:	c7 84 24 20 42 00 00 	movl   $0x1,0x4220(%rsp)
  403437:	01 00 00 00 
  40343b:	48 8d 8c 24 20 42 00 	lea    0x4220(%rsp),%rcx
  403442:	00 
  403443:	89 ef                	mov    %ebp,%edi
  403445:	be 01 00 00 00       	mov    $0x1,%esi
  40344a:	ba 02 00 00 00       	mov    $0x2,%edx
  40344f:	41 b8 04 00 00 00    	mov    $0x4,%r8d
  403455:	e8 86 ef ff ff       	call   4023e0 <setsockopt@plt>
  40345a:	4c 8d 35 33 5d 00 00 	lea    0x5d33(%rip),%r14        # 409194 <_IO_stdin_used+0x194>
  403461:	85 c0                	test   %eax,%eax
  403463:	0f 88 b0 10 00 00    	js     404519 <teavpn_server_tcp_handler+0x1529>
  403469:	c7 84 24 20 42 00 00 	movl   $0x1,0x4220(%rsp)
  403470:	01 00 00 00 
  403474:	48 8d 8c 24 20 42 00 	lea    0x4220(%rsp),%rcx
  40347b:	00 
  40347c:	89 ef                	mov    %ebp,%edi
  40347e:	be 06 00 00 00       	mov    $0x6,%esi
  403483:	ba 01 00 00 00       	mov    $0x1,%edx
  403488:	41 b8 04 00 00 00    	mov    $0x4,%r8d
  40348e:	e8 4d ef ff ff       	call   4023e0 <setsockopt@plt>
  403493:	85 c0                	test   %eax,%eax
  403495:	0f 88 8a 10 00 00    	js     404525 <teavpn_server_tcp_handler+0x1535>
  40349b:	c7 84 24 20 42 00 00 	movl   $0x1,0x4220(%rsp)
  4034a2:	01 00 00 00 
  4034a6:	48 8d 8c 24 20 42 00 	lea    0x4220(%rsp),%rcx
  4034ad:	00 
  4034ae:	89 ef                	mov    %ebp,%edi
  4034b0:	be 01 00 00 00       	mov    $0x1,%esi
  4034b5:	ba 31 00 00 00       	mov    $0x31,%edx
  4034ba:	41 b8 04 00 00 00    	mov    $0x4,%r8d
  4034c0:	e8 1b ef ff ff       	call   4023e0 <setsockopt@plt>
  4034c5:	85 c0                	test   %eax,%eax
  4034c7:	0f 88 6b 10 00 00    	js     404538 <teavpn_server_tcp_handler+0x1548>
  4034cd:	c7 84 24 20 42 00 00 	movl   $0x200000,0x4220(%rsp)
  4034d4:	00 00 20 00 
  4034d8:	48 8d 8c 24 20 42 00 	lea    0x4220(%rsp),%rcx
  4034df:	00 
  4034e0:	89 ef                	mov    %ebp,%edi
  4034e2:	be 01 00 00 00       	mov    $0x1,%esi
  4034e7:	ba 21 00 00 00       	mov    $0x21,%edx
  4034ec:	41 b8 04 00 00 00    	mov    $0x4,%r8d
  4034f2:	e8 e9 ee ff ff       	call   4023e0 <setsockopt@plt>
  4034f7:	85 c0                	test   %eax,%eax
  4034f9:	0f 88 45 10 00 00    	js     404544 <teavpn_server_tcp_handler+0x1554>
  4034ff:	c7 84 24 20 42 00 00 	movl   $0x200000,0x4220(%rsp)
  403506:	00 00 20 00 
  40350a:	48 8d 8c 24 20 42 00 	lea    0x4220(%rsp),%rcx
  403511:	00 
  403512:	89 ef                	mov    %ebp,%edi
  403514:	be 01 00 00 00       	mov    $0x1,%esi
  403519:	ba 20 00 00 00       	mov    $0x20,%edx
  40351e:	41 b8 04 00 00 00    	mov    $0x4,%r8d
  403524:	e8 b7 ee ff ff       	call   4023e0 <setsockopt@plt>
  403529:	85 c0                	test   %eax,%eax
  40352b:	0f 88 1f 10 00 00    	js     404550 <teavpn_server_tcp_handler+0x1560>
  403531:	c7 84 24 20 42 00 00 	movl   $0x7530,0x4220(%rsp)
  403538:	30 75 00 00 
  40353c:	48 8d 8c 24 20 42 00 	lea    0x4220(%rsp),%rcx
  403543:	00 
  403544:	89 ef                	mov    %ebp,%edi
  403546:	be 01 00 00 00       	mov    $0x1,%esi
  40354b:	ba 2e 00 00 00       	mov    $0x2e,%edx
  403550:	41 b8 04 00 00 00    	mov    $0x4,%r8d
  403556:	e8 85 ee ff ff       	call   4023e0 <setsockopt@plt>
  40355b:	85 c0                	test   %eax,%eax
  40355d:	0f 88 f9 0f 00 00    	js     40455c <teavpn_server_tcp_handler+0x156c>
  403563:	48 c7 84 24 58 41 00 	movq   $0x0,0x4158(%rsp)
  40356a:	00 00 00 00 00 
  40356f:	66 c7 84 24 50 41 00 	movw   $0x2,0x4150(%rsp)
  403576:	00 02 00 
  403579:	0f b7 43 48          	movzwl 0x48(%rbx),%eax
  40357d:	66 c1 c0 08          	rol    $0x8,%ax
  403581:	66 89 84 24 52 41 00 	mov    %ax,0x4152(%rsp)
  403588:	00 
  403589:	48 8b 7b 40          	mov    0x40(%rbx),%rdi
  40358d:	e8 5e ec ff ff       	call   4021f0 <inet_addr@plt>
  403592:	89 84 24 54 41 00 00 	mov    %eax,0x4154(%rsp)
  403599:	48 8d b4 24 50 41 00 	lea    0x4150(%rsp),%rsi
  4035a0:	00 
  4035a1:	89 ef                	mov    %ebp,%edi
  4035a3:	ba 10 00 00 00       	mov    $0x10,%edx
  4035a8:	e8 a3 ea ff ff       	call   402050 <bind@plt>
  4035ad:	85 c0                	test   %eax,%eax
  4035af:	0f 88 da 0f 00 00    	js     40458f <teavpn_server_tcp_handler+0x159f>
  4035b5:	8b 73 4c             	mov    0x4c(%rbx),%esi
  4035b8:	89 ef                	mov    %ebp,%edi
  4035ba:	e8 91 ec ff ff       	call   402250 <listen@plt>
  4035bf:	85 c0                	test   %eax,%eax
  4035c1:	0f 88 e5 0f 00 00    	js     4045ac <teavpn_server_tcp_handler+0x15bc>
  4035c7:	89 ac 24 94 00 00 00 	mov    %ebp,0x94(%rsp)
  4035ce:	48 8b 73 40          	mov    0x40(%rbx),%rsi
  4035d2:	0f b7 53 48          	movzwl 0x48(%rbx),%edx
  4035d6:	48 8d 3d a1 5b 00 00 	lea    0x5ba1(%rip),%rdi        # 40917e <_IO_stdin_used+0x17e>
  4035dd:	31 c0                	xor    %eax,%eax
  4035df:	e8 7c 4c 00 00       	call   408260 <__pr_notice>
  4035e4:	44 8b b4 24 94 00 00 	mov    0x94(%rsp),%r14d
  4035eb:	00 
  4035ec:	8b ac 24 98 00 00 00 	mov    0x98(%rsp),%ebp
  4035f3:	48 8d 3d 21 5c 00 00 	lea    0x5c21(%rip),%rdi        # 40921b <_IO_stdin_used+0x21b>
  4035fa:	31 c0                	xor    %eax,%eax
  4035fc:	e8 5f 4c 00 00       	call   408260 <__pr_notice>
  403601:	48 8b 84 24 b0 00 00 	mov    0xb0(%rsp),%rax
  403608:	00 
  403609:	0f b7 78 4a          	movzwl 0x4a(%rax),%edi
  40360d:	83 c7 03             	add    $0x3,%edi
  403610:	e8 db ed ff ff       	call   4023f0 <epoll_create@plt>
  403615:	85 c0                	test   %eax,%eax
  403617:	0f 88 e2 0e 00 00    	js     4044ff <teavpn_server_tcp_handler+0x150f>
  40361d:	89 c3                	mov    %eax,%ebx
  40361f:	48 63 d5             	movslq %ebp,%rdx
  403622:	48 8b 84 24 c0 00 00 	mov    0xc0(%rsp),%rax
  403629:	00 
  40362a:	66 c7 04 50 01 00    	movw   $0x1,(%rax,%rdx,2)
  403630:	c7 84 24 58 41 00 00 	movl   $0x0,0x4158(%rsp)
  403637:	00 00 00 00 
  40363b:	c7 84 24 50 41 00 00 	movl   $0x3,0x4150(%rsp)
  403642:	03 00 00 00 
  403646:	89 94 24 54 41 00 00 	mov    %edx,0x4154(%rsp)
  40364d:	48 8d 8c 24 50 41 00 	lea    0x4150(%rsp),%rcx
  403654:	00 
  403655:	89 df                	mov    %ebx,%edi
  403657:	be 01 00 00 00       	mov    $0x1,%esi
  40365c:	e8 5f ec ff ff       	call   4022c0 <epoll_ctl@plt>
  403661:	85 c0                	test   %eax,%eax
  403663:	0f 88 26 0e 00 00    	js     40448f <teavpn_server_tcp_handler+0x149f>
  403669:	49 63 d6             	movslq %r14d,%rdx
  40366c:	48 8b 84 24 c0 00 00 	mov    0xc0(%rsp),%rax
  403673:	00 
  403674:	66 c7 04 50 02 00    	movw   $0x2,(%rax,%rdx,2)
  40367a:	c7 84 24 58 41 00 00 	movl   $0x0,0x4158(%rsp)
  403681:	00 00 00 00 
  403685:	c7 84 24 50 41 00 00 	movl   $0x3,0x4150(%rsp)
  40368c:	03 00 00 00 
  403690:	89 94 24 54 41 00 00 	mov    %edx,0x4154(%rsp)
  403697:	48 8d 8c 24 50 41 00 	lea    0x4150(%rsp),%rcx
  40369e:	00 
  40369f:	89 df                	mov    %ebx,%edi
  4036a1:	be 01 00 00 00       	mov    $0x1,%esi
  4036a6:	e8 15 ec ff ff       	call   4022c0 <epoll_ctl@plt>
  4036ab:	85 c0                	test   %eax,%eax
  4036ad:	0f 88 dc 0d 00 00    	js     40448f <teavpn_server_tcp_handler+0x149f>
  4036b3:	89 9c 24 90 00 00 00 	mov    %ebx,0x90(%rsp)
  4036ba:	48 8d 3d 8f 59 00 00 	lea    0x598f(%rip),%rdi        # 409050 <_IO_stdin_used+0x50>
  4036c1:	45 31 e4             	xor    %r12d,%r12d
  4036c4:	31 c0                	xor    %eax,%eax
  4036c6:	e8 95 4b 00 00       	call   408260 <__pr_notice>
  4036cb:	8b 84 24 90 00 00 00 	mov    0x90(%rsp),%eax
  4036d2:	89 44 24 54          	mov    %eax,0x54(%rsp)
  4036d6:	66 0f ef c0          	pxor   %xmm0,%xmm0
  4036da:	66 0f 7f 84 24 00 42 	movdqa %xmm0,0x4200(%rsp)
  4036e1:	00 00 
  4036e3:	66 0f 7f 84 24 f0 41 	movdqa %xmm0,0x41f0(%rsp)
  4036ea:	00 00 
  4036ec:	66 0f 7f 84 24 e0 41 	movdqa %xmm0,0x41e0(%rsp)
  4036f3:	00 00 
  4036f5:	66 0f 7f 84 24 d0 41 	movdqa %xmm0,0x41d0(%rsp)
  4036fc:	00 00 
  4036fe:	66 0f 7f 84 24 c0 41 	movdqa %xmm0,0x41c0(%rsp)
  403705:	00 00 
  403707:	66 0f 7f 84 24 b0 41 	movdqa %xmm0,0x41b0(%rsp)
  40370e:	00 00 
  403710:	66 0f 7f 84 24 a0 41 	movdqa %xmm0,0x41a0(%rsp)
  403717:	00 00 
  403719:	66 0f 7f 84 24 90 41 	movdqa %xmm0,0x4190(%rsp)
  403720:	00 00 
  403722:	66 0f 7f 84 24 80 41 	movdqa %xmm0,0x4180(%rsp)
  403729:	00 00 
  40372b:	66 0f 7f 84 24 70 41 	movdqa %xmm0,0x4170(%rsp)
  403732:	00 00 
  403734:	66 0f 7f 84 24 60 41 	movdqa %xmm0,0x4160(%rsp)
  40373b:	00 00 
  40373d:	66 0f 7f 84 24 50 41 	movdqa %xmm0,0x4150(%rsp)
  403744:	00 00 
  403746:	80 bc 24 9c 00 00 00 	cmpb   $0x1,0x9c(%rsp)
  40374d:	01 
  40374e:	0f 84 a8 0b 00 00    	je     4042fc <teavpn_server_tcp_handler+0x130c>
  403754:	48 8d b4 24 50 41 00 	lea    0x4150(%rsp),%rsi
  40375b:	00 
  40375c:	8b 7c 24 54          	mov    0x54(%rsp),%edi
  403760:	ba 10 00 00 00       	mov    $0x10,%edx
  403765:	b9 b8 0b 00 00       	mov    $0xbb8,%ecx
  40376a:	e8 81 e9 ff ff       	call   4020f0 <epoll_wait@plt>
  40376f:	85 c0                	test   %eax,%eax
  403771:	0f 84 2a 0b 00 00    	je     4042a1 <teavpn_server_tcp_handler+0x12b1>
  403777:	41 89 c4             	mov    %eax,%r12d
  40377a:	0f 88 07 0b 00 00    	js     404287 <teavpn_server_tcp_handler+0x1297>
  403780:	44 89 e0             	mov    %r12d,%eax
  403783:	48 89 44 24 70       	mov    %rax,0x70(%rsp)
  403788:	45 31 f6             	xor    %r14d,%r14d
  40378b:	eb 1a                	jmp    4037a7 <teavpn_server_tcp_handler+0x7b7>
  40378d:	45 31 e4             	xor    %r12d,%r12d
  403790:	48 8b 44 24 60       	mov    0x60(%rsp),%rax
  403795:	4c 89 20             	mov    %r12,(%rax)
  403798:	49 83 c6 01          	add    $0x1,%r14
  40379c:	4c 3b 74 24 70       	cmp    0x70(%rsp),%r14
  4037a1:	0f 84 fa 0a 00 00    	je     4042a1 <teavpn_server_tcp_handler+0x12b1>
  4037a7:	48 8b 8c 24 c0 00 00 	mov    0xc0(%rsp),%rcx
  4037ae:	00 
  4037af:	4b 8d 04 76          	lea    (%r14,%r14,2),%rax
  4037b3:	48 63 ac 84 54 41 00 	movslq 0x4154(%rsp,%rax,4),%rbp
  4037ba:	00 
  4037bb:	8b 84 84 50 41 00 00 	mov    0x4150(%rsp,%rax,4),%eax
  4037c2:	0f b7 0c 69          	movzwl (%rcx,%rbp,2),%ecx
  4037c6:	66 83 f9 01          	cmp    $0x1,%cx
  4037ca:	0f 84 80 07 00 00    	je     403f50 <teavpn_server_tcp_handler+0xf60>
  4037d0:	66 83 f9 02          	cmp    $0x2,%cx
  4037d4:	0f 84 16 06 00 00    	je     403df0 <teavpn_server_tcp_handler+0xe00>
  4037da:	66 85 c9             	test   %cx,%cx
  4037dd:	0f 84 05 0b 00 00    	je     4042e8 <teavpn_server_tcp_handler+0x12f8>
  4037e3:	83 c1 fd             	add    $0xfffffffd,%ecx
  4037e6:	4c 8b bc 24 b8 00 00 	mov    0xb8(%rsp),%r15
  4037ed:	00 
  4037ee:	0f b7 c9             	movzwl %cx,%ecx
  4037f1:	4c 69 e9 80 40 00 00 	imul   $0x4080,%rcx,%r13
  4037f8:	4b 8d 0c 2f          	lea    (%r15,%r13,1),%rcx
  4037fc:	a8 18                	test   $0x18,%al
  4037fe:	48 89 4c 24 30       	mov    %rcx,0x30(%rsp)
  403803:	0f 85 0f 08 00 00    	jne    404018 <teavpn_server_tcp_handler+0x1028>
  403809:	4b 8d 04 2f          	lea    (%r15,%r13,1),%rax
  40380d:	48 83 c0 68          	add    $0x68,%rax
  403811:	48 89 44 24 60       	mov    %rax,0x60(%rsp)
  403816:	4b 8b 5c 2f 68       	mov    0x68(%r15,%r13,1),%rbx
  40381b:	ba 10 40 00 00       	mov    $0x4010,%edx
  403820:	48 29 da             	sub    %rbx,%rdx
  403823:	43 83 44 2f 04 01    	addl   $0x1,0x4(%r15,%r13,1)
  403829:	48 8d 34 0b          	lea    (%rbx,%rcx,1),%rsi
  40382d:	48 83 c6 70          	add    $0x70,%rsi
  403831:	89 ef                	mov    %ebp,%edi
  403833:	31 c9                	xor    %ecx,%ecx
  403835:	e8 66 e8 ff ff       	call   4020a0 <recv@plt>
  40383a:	48 85 c0             	test   %rax,%rax
  40383d:	0f 88 a9 08 00 00    	js     4040ec <teavpn_server_tcp_handler+0x10fc>
  403843:	0f 84 cf 07 00 00    	je     404018 <teavpn_server_tcp_handler+0x1028>
  403849:	49 89 c4             	mov    %rax,%r12
  40384c:	49 01 dc             	add    %rbx,%r12
  40384f:	49 83 fc 04          	cmp    $0x4,%r12
  403853:	0f 82 37 ff ff ff    	jb     403790 <teavpn_server_tcp_handler+0x7a0>
  403859:	48 89 6c 24 48       	mov    %rbp,0x48(%rsp)
  40385e:	4c 89 e8             	mov    %r13,%rax
  403861:	4d 01 fd             	add    %r15,%r13
  403864:	49 83 c5 70          	add    $0x70,%r13
  403868:	49 8d 4c 07 74       	lea    0x74(%r15,%rax,1),%rcx
  40386d:	48 89 4c 24 28       	mov    %rcx,0x28(%rsp)
  403872:	49 8d 8c 07 b4 00 00 	lea    0xb4(%r15,%rax,1),%rcx
  403879:	00 
  40387a:	48 89 4c 24 58       	mov    %rcx,0x58(%rsp)
  40387f:	49 8d 4c 07 52       	lea    0x52(%r15,%rax,1),%rcx
  403884:	48 89 4c 24 18       	mov    %rcx,0x18(%rsp)
  403889:	49 8d 5c 07 0e       	lea    0xe(%r15,%rax,1),%rbx
  40388e:	4c 89 7c 24 40       	mov    %r15,0x40(%rsp)
  403893:	48 89 44 24 38       	mov    %rax,0x38(%rsp)
  403898:	4c 01 f8             	add    %r15,%rax
  40389b:	48 83 c0 77          	add    $0x77,%rax
  40389f:	48 89 44 24 68       	mov    %rax,0x68(%rsp)
  4038a4:	66 2e 0f 1f 84 00 00 	cs nopw 0x0(%rax,%rax,1)
  4038ab:	00 00 00 
  4038ae:	66 90                	xchg   %ax,%ax
  4038b0:	41 0f b7 45 02       	movzwl 0x2(%r13),%eax
  4038b5:	89 c1                	mov    %eax,%ecx
  4038b7:	66 c1 c1 08          	rol    $0x8,%cx
  4038bb:	44 0f b7 c9          	movzwl %cx,%r9d
  4038bf:	41 81 f9 05 10 00 00 	cmp    $0x1005,%r9d
  4038c6:	0f 83 c4 06 00 00    	jae    403f90 <teavpn_server_tcp_handler+0xfa0>
  4038cc:	41 0f b6 6d 01       	movzbl 0x1(%r13),%ebp
  4038d1:	4c 01 cd             	add    %r9,%rbp
  4038d4:	4d 8d 7c 24 fc       	lea    -0x4(%r12),%r15
  4038d9:	49 39 ef             	cmp    %rbp,%r15
  4038dc:	0f 82 ae fe ff ff    	jb     403790 <teavpn_server_tcp_handler+0x7a0>
  4038e2:	41 0f b6 4d 00       	movzbl 0x0(%r13),%ecx
  4038e7:	8d 51 fe             	lea    -0x2(%rcx),%edx
  4038ea:	80 fa 05             	cmp    $0x5,%dl
  4038ed:	73 31                	jae    403920 <teavpn_server_tcp_handler+0x930>
  4038ef:	49 39 ef             	cmp    %rbp,%r15
  4038f2:	0f 86 95 fe ff ff    	jbe    40378d <teavpn_server_tcp_handler+0x79d>
  4038f8:	48 8d 45 04          	lea    0x4(%rbp),%rax
  4038fc:	49 29 c4             	sub    %rax,%r12
  4038ff:	48 8d 34 2d 04 00 00 	lea    0x4(,%rbp,1),%rsi
  403906:	00 
  403907:	4c 01 ee             	add    %r13,%rsi
  40390a:	4c 89 ef             	mov    %r13,%rdi
  40390d:	4c 89 e2             	mov    %r12,%rdx
  403910:	e8 8b ea ff ff       	call   4023a0 <memmove@plt>
  403915:	49 83 fc 03          	cmp    $0x3,%r12
  403919:	77 95                	ja     4038b0 <teavpn_server_tcp_handler+0x8c0>
  40391b:	e9 70 fe ff ff       	jmp    403790 <teavpn_server_tcp_handler+0x7a0>
  403920:	84 c9                	test   %cl,%cl
  403922:	0f 85 5c 01 00 00    	jne    403a84 <teavpn_server_tcp_handler+0xa94>
  403928:	8b 0d 58 5e 00 00    	mov    0x5e58(%rip),%ecx        # 409786 <_IO_stdin_used+0x786>
  40392e:	89 8c 24 27 42 00 00 	mov    %ecx,0x4227(%rsp)
  403935:	48 8b 0d 43 5e 00 00 	mov    0x5e43(%rip),%rcx        # 40977f <_IO_stdin_used+0x77f>
  40393c:	48 89 8c 24 20 42 00 	mov    %rcx,0x4220(%rsp)
  403943:	00 
  403944:	41 80 7d de 00       	cmpb   $0x0,-0x22(%r13)
  403949:	75 78                	jne    4039c3 <teavpn_server_tcp_handler+0x9d3>
  40394b:	0f b7 c0             	movzwl %ax,%eax
  40394e:	3d 00 0b 00 00       	cmp    $0xb00,%eax
  403953:	75 72                	jne    4039c7 <teavpn_server_tcp_handler+0x9d7>
  403955:	48 8b 4c 24 28       	mov    0x28(%rsp),%rcx
  40395a:	48 8b 01             	mov    (%rcx),%rax
  40395d:	48 33 84 24 20 42 00 	xor    0x4220(%rsp),%rax
  403964:	00 
  403965:	48 8b 49 03          	mov    0x3(%rcx),%rcx
  403969:	48 33 8c 24 23 42 00 	xor    0x4223(%rsp),%rcx
  403970:	00 
  403971:	48 09 c1             	or     %rax,%rcx
  403974:	75 79                	jne    4039ef <teavpn_server_tcp_handler+0x9ff>
  403976:	c7 84 24 e8 00 00 00 	movl   $0x0,0xe8(%rsp)
  40397d:	00 00 00 00 
  403981:	48 8b 44 24 30       	mov    0x30(%rsp),%rax
  403986:	8b 38                	mov    (%rax),%edi
  403988:	41 83 45 98 01       	addl   $0x1,-0x68(%r13)
  40398d:	ba 04 00 00 00       	mov    $0x4,%edx
  403992:	89 7c 24 08          	mov    %edi,0x8(%rsp)
  403996:	48 8d b4 24 e8 00 00 	lea    0xe8(%rsp),%rsi
  40399d:	00 
  40399e:	31 c9                	xor    %ecx,%ecx
  4039a0:	e8 5b e7 ff ff       	call   402100 <send@plt>
  4039a5:	48 85 c0             	test   %rax,%rax
  4039a8:	0f 88 a3 00 00 00    	js     403a51 <teavpn_server_tcp_handler+0xa61>
  4039ae:	0f 94 c0             	sete   %al
  4039b1:	0f b6 c0             	movzbl %al,%eax
  4039b4:	01 c0                	add    %eax,%eax
  4039b6:	85 c0                	test   %eax,%eax
  4039b8:	0f 84 31 ff ff ff    	je     4038ef <teavpn_server_tcp_handler+0x8ff>
  4039be:	e9 5a 08 00 00       	jmp    40421d <teavpn_server_tcp_handler+0x122d>
  4039c3:	31 c0                	xor    %eax,%eax
  4039c5:	eb ef                	jmp    4039b6 <teavpn_server_tcp_handler+0x9c6>
  4039c7:	41 0f b7 55 f2       	movzwl -0xe(%r13),%edx
  4039cc:	41 b8 0b 00 00 00    	mov    $0xb,%r8d
  4039d2:	48 8d 3d 44 5b 00 00 	lea    0x5b44(%rip),%rdi        # 40951d <_IO_stdin_used+0x51d>
  4039d9:	48 8b 74 24 18       	mov    0x18(%rsp),%rsi
  4039de:	48 89 d9             	mov    %rbx,%rcx
  4039e1:	31 c0                	xor    %eax,%eax
  4039e3:	e8 78 48 00 00       	call   408260 <__pr_notice>
  4039e8:	b8 02 00 00 00       	mov    $0x2,%eax
  4039ed:	eb c7                	jmp    4039b6 <teavpn_server_tcp_handler+0x9c6>
  4039ef:	41 c6 45 0e 00       	movb   $0x0,0xe(%r13)
  4039f4:	41 0f b7 55 f2       	movzwl -0xe(%r13),%edx
  4039f9:	48 8b 44 24 28       	mov    0x28(%rsp),%rax
  4039fe:	44 0f b6 00          	movzbl (%rax),%r8d
  403a02:	45 0f b6 4d 05       	movzbl 0x5(%r13),%r9d
  403a07:	45 0f b6 55 06       	movzbl 0x6(%r13),%r10d
  403a0c:	48 8d 3d 55 5b 00 00 	lea    0x5b55(%rip),%rdi        # 409568 <_IO_stdin_used+0x568>
  403a13:	48 8b 74 24 18       	mov    0x18(%rsp),%rsi
  403a18:	48 89 d9             	mov    %rbx,%rcx
  403a1b:	b8 00 00 00 00       	mov    $0x0,%eax
  403a20:	49 89 db             	mov    %rbx,%r11
  403a23:	48 8d 9c 24 23 42 00 	lea    0x4223(%rsp),%rbx
  403a2a:	00 
  403a2b:	53                   	push   %rbx
  403a2c:	4c 89 db             	mov    %r11,%rbx
  403a2f:	6a 01                	push   $0x1
  403a31:	6a 00                	push   $0x0
  403a33:	6a 00                	push   $0x0
  403a35:	ff b4 24 88 00 00 00 	push   0x88(%rsp)
  403a3c:	41 52                	push   %r10
  403a3e:	e8 6d 43 00 00       	call   407db0 <__pr_error>
  403a43:	48 83 c4 30          	add    $0x30,%rsp
  403a47:	b8 02 00 00 00       	mov    $0x2,%eax
  403a4c:	e9 65 ff ff ff       	jmp    4039b6 <teavpn_server_tcp_handler+0x9c6>
  403a51:	e8 da e5 ff ff       	call   402030 <__errno_location@plt>
  403a56:	8b 38                	mov    (%rax),%edi
  403a58:	89 7c 24 10          	mov    %edi,0x10(%rsp)
  403a5c:	e8 4f e6 ff ff       	call   4020b0 <strerror@plt>
  403a61:	48 8d 3d 4f 5b 00 00 	lea    0x5b4f(%rip),%rdi        # 4095b7 <_IO_stdin_used+0x5b7>
  403a68:	8b 74 24 08          	mov    0x8(%rsp),%esi
  403a6c:	8b 54 24 10          	mov    0x10(%rsp),%edx
  403a70:	48 89 c1             	mov    %rax,%rcx
  403a73:	31 c0                	xor    %eax,%eax
  403a75:	e8 36 43 00 00       	call   407db0 <__pr_error>
  403a7a:	b8 02 00 00 00       	mov    $0x2,%eax
  403a7f:	e9 32 ff ff ff       	jmp    4039b6 <teavpn_server_tcp_handler+0x9c6>
  403a84:	80 f9 01             	cmp    $0x1,%cl
  403a87:	0f 85 d6 07 00 00    	jne    404263 <teavpn_server_tcp_handler+0x1273>
  403a8d:	41 80 7d de 00       	cmpb   $0x0,-0x22(%r13)
  403a92:	0f 85 dd 01 00 00    	jne    403c75 <teavpn_server_tcp_handler+0xc85>
  403a98:	0f b7 c0             	movzwl %ax,%eax
  403a9b:	3d 00 80 00 00       	cmp    $0x8000,%eax
  403aa0:	0f 85 d9 01 00 00    	jne    403c7f <teavpn_server_tcp_handler+0xc8f>
  403aa6:	48 8b 84 24 b0 00 00 	mov    0xb0(%rsp),%rax
  403aad:	00 
  403aae:	48 89 44 24 08       	mov    %rax,0x8(%rsp)
  403ab3:	ba 40 00 00 00       	mov    $0x40,%edx
  403ab8:	48 89 df             	mov    %rbx,%rdi
  403abb:	48 8b 74 24 28       	mov    0x28(%rsp),%rsi
  403ac0:	e8 4b e6 ff ff       	call   402110 <strncpy@plt>
  403ac5:	41 c6 45 dd 00       	movb   $0x0,-0x23(%r13)
  403aca:	66 0f ef c0          	pxor   %xmm0,%xmm0
  403ace:	48 8d b4 24 ec 00 00 	lea    0xec(%rsp),%rsi
  403ad5:	00 
  403ad6:	f3 0f 7f 06          	movdqu %xmm0,(%rsi)
  403ada:	f3 0f 7f 46 10       	movdqu %xmm0,0x10(%rsi)
  403adf:	f3 0f 7f 46 20       	movdqu %xmm0,0x20(%rsi)
  403ae4:	f3 0f 7f 46 30       	movdqu %xmm0,0x30(%rsi)
  403ae9:	f3 0f 7f 46 40       	movdqu %xmm0,0x40(%rsi)
  403aee:	66 c7 46 50 00 00    	movw   $0x0,0x50(%rsi)
  403af4:	48 8b 7c 24 08       	mov    0x8(%rsp),%rdi
  403af9:	48 8b 54 24 28       	mov    0x28(%rsp),%rdx
  403afe:	48 8b 4c 24 58       	mov    0x58(%rsp),%rcx
  403b03:	e8 68 0e 00 00       	call   404970 <teavpn_server_auth>
  403b08:	88 44 24 10          	mov    %al,0x10(%rsp)
  403b0c:	be 40 00 00 00       	mov    $0x40,%esi
  403b11:	48 8b 7c 24 58       	mov    0x58(%rsp),%rdi
  403b16:	e8 b5 34 00 00       	call   406fd0 <memzero_explicit>
  403b1b:	80 7c 24 10 00       	cmpb   $0x0,0x10(%rsp)
  403b20:	0f 84 84 01 00 00    	je     403caa <teavpn_server_tcp_handler+0xcba>
  403b26:	48 8b 44 24 08       	mov    0x8(%rsp),%rax
  403b2b:	48 8b 70 20          	mov    0x20(%rax),%rsi
  403b2f:	ba 0f 00 00 00       	mov    $0xf,%edx
  403b34:	48 8d bc 24 2c 01 00 	lea    0x12c(%rsp),%rdi
  403b3b:	00 
  403b3c:	e8 cf e5 ff ff       	call   402110 <strncpy@plt>
  403b41:	48 8b 44 24 08       	mov    0x8(%rsp),%rax
  403b46:	48 8b 70 38          	mov    0x38(%rax),%rsi
  403b4a:	ba 0f 00 00 00       	mov    $0xf,%edx
  403b4f:	48 8d bc 24 fc 00 00 	lea    0xfc(%rsp),%rdi
  403b56:	00 
  403b57:	e8 b4 e5 ff ff       	call   402110 <strncpy@plt>
  403b5c:	66 c1 84 24 3c 01 00 	rolw   $0x8,0x13c(%rsp)
  403b63:	00 08 
  403b65:	e8 c6 e4 ff ff       	call   402030 <__errno_location@plt>
  403b6a:	48 89 44 24 10       	mov    %rax,0x10(%rsp)
  403b6f:	c7 00 00 00 00 00    	movl   $0x0,(%rax)
  403b75:	c7 84 24 20 42 00 00 	movl   $0x0,0x4220(%rsp)
  403b7c:	00 00 00 00 
  403b80:	bf 02 00 00 00       	mov    $0x2,%edi
  403b85:	48 8d b4 24 0c 01 00 	lea    0x10c(%rsp),%rsi
  403b8c:	00 
  403b8d:	48 8d 94 24 20 42 00 	lea    0x4220(%rsp),%rdx
  403b94:	00 
  403b95:	e8 66 e8 ff ff       	call   402400 <inet_pton@plt>
  403b9a:	85 c0                	test   %eax,%eax
  403b9c:	0f 84 26 01 00 00    	je     403cc8 <teavpn_server_tcp_handler+0xcd8>
  403ba2:	8b 84 24 20 42 00 00 	mov    0x4220(%rsp),%eax
  403ba9:	48 89 44 24 08       	mov    %rax,0x8(%rsp)
  403bae:	41 89 45 f4          	mov    %eax,-0xc(%r13)
  403bb2:	c7 84 24 e8 00 00 00 	movl   $0x52000001,0xe8(%rsp)
  403bb9:	01 00 00 52 
  403bbd:	48 8b 44 24 30       	mov    0x30(%rsp),%rax
  403bc2:	8b 38                	mov    (%rax),%edi
  403bc4:	41 83 45 98 01       	addl   $0x1,-0x68(%r13)
  403bc9:	ba 56 00 00 00       	mov    $0x56,%edx
  403bce:	89 7c 24 20          	mov    %edi,0x20(%rsp)
  403bd2:	48 8d b4 24 e8 00 00 	lea    0xe8(%rsp),%rsi
  403bd9:	00 
  403bda:	31 c9                	xor    %ecx,%ecx
  403bdc:	e8 1f e5 ff ff       	call   402100 <send@plt>
  403be1:	48 85 c0             	test   %rax,%rax
  403be4:	0f 88 3c 01 00 00    	js     403d26 <teavpn_server_tcp_handler+0xd36>
  403bea:	41 0f b7 55 f2       	movzwl -0xe(%r13),%edx
  403bef:	0f 84 62 01 00 00    	je     403d57 <teavpn_server_tcp_handler+0xd67>
  403bf5:	0f b6 44 24 08       	movzbl 0x8(%rsp),%eax
  403bfa:	48 89 44 24 20       	mov    %rax,0x20(%rsp)
  403bff:	c7 44 24 10 00 00 00 	movl   $0x0,0x10(%rsp)
  403c06:	00 
  403c07:	48 8d 3d 79 5a 00 00 	lea    0x5a79(%rip),%rdi        # 409687 <_IO_stdin_used+0x687>
  403c0e:	48 8b 74 24 18       	mov    0x18(%rsp),%rsi
  403c13:	48 89 d9             	mov    %rbx,%rcx
  403c16:	31 c0                	xor    %eax,%eax
  403c18:	e8 43 46 00 00       	call   408260 <__pr_notice>
  403c1d:	41 0f b7 4d f2       	movzwl -0xe(%r13),%ecx
  403c22:	48 8d 3d 85 5a 00 00 	lea    0x5a85(%rip),%rdi        # 4096ae <_IO_stdin_used+0x6ae>
  403c29:	48 8d b4 24 0c 01 00 	lea    0x10c(%rsp),%rsi
  403c30:	00 
  403c31:	48 8b 54 24 18       	mov    0x18(%rsp),%rdx
  403c36:	49 89 d8             	mov    %rbx,%r8
  403c39:	31 c0                	xor    %eax,%eax
  403c3b:	e8 20 46 00 00       	call   408260 <__pr_notice>
  403c40:	41 c6 45 de 01       	movb   $0x1,-0x22(%r13)
  403c45:	41 8b 45 9c          	mov    -0x64(%r13),%eax
  403c49:	83 c0 01             	add    $0x1,%eax
  403c4c:	48 8b 4c 24 20       	mov    0x20(%rsp),%rcx
  403c51:	48 c1 e1 09          	shl    $0x9,%rcx
  403c55:	48 03 8c 24 c8 00 00 	add    0xc8(%rsp),%rcx
  403c5c:	00 
  403c5d:	48 89 ca             	mov    %rcx,%rdx
  403c60:	48 8b 4c 24 08       	mov    0x8(%rsp),%rcx
  403c65:	0f b6 cd             	movzbl %ch,%ecx
  403c68:	66 89 04 4a          	mov    %ax,(%rdx,%rcx,2)
  403c6c:	8b 44 24 10          	mov    0x10(%rsp),%eax
  403c70:	e9 41 fd ff ff       	jmp    4039b6 <teavpn_server_tcp_handler+0x9c6>
  403c75:	c7 44 24 10 00 00 00 	movl   $0x0,0x10(%rsp)
  403c7c:	00 
  403c7d:	eb ed                	jmp    403c6c <teavpn_server_tcp_handler+0xc7c>
  403c7f:	41 0f b7 55 f2       	movzwl -0xe(%r13),%edx
  403c84:	41 b8 80 00 00 00    	mov    $0x80,%r8d
  403c8a:	48 8d 3d 39 59 00 00 	lea    0x5939(%rip),%rdi        # 4095ca <_IO_stdin_used+0x5ca>
  403c91:	48 8b 74 24 18       	mov    0x18(%rsp),%rsi
  403c96:	48 89 d9             	mov    %rbx,%rcx
  403c99:	31 c0                	xor    %eax,%eax
  403c9b:	e8 c0 45 00 00       	call   408260 <__pr_notice>
  403ca0:	c7 44 24 10 02 00 00 	movl   $0x2,0x10(%rsp)
  403ca7:	00 
  403ca8:	eb c2                	jmp    403c6c <teavpn_server_tcp_handler+0xc7c>
  403caa:	41 0f b7 55 f2       	movzwl -0xe(%r13),%edx
  403caf:	48 8d 3d 60 59 00 00 	lea    0x5960(%rip),%rdi        # 409616 <_IO_stdin_used+0x616>
  403cb6:	48 8b 74 24 18       	mov    0x18(%rsp),%rsi
  403cbb:	48 89 5c 24 08       	mov    %rbx,0x8(%rsp)
  403cc0:	48 89 d9             	mov    %rbx,%rcx
  403cc3:	e9 a5 00 00 00       	jmp    403d6d <teavpn_server_tcp_handler+0xd7d>
  403cc8:	48 8b 44 24 10       	mov    0x10(%rsp),%rax
  403ccd:	8b 38                	mov    (%rax),%edi
  403ccf:	85 ff                	test   %edi,%edi
  403cd1:	b8 16 00 00 00       	mov    $0x16,%eax
  403cd6:	0f 44 f8             	cmove  %eax,%edi
  403cd9:	89 7c 24 10          	mov    %edi,0x10(%rsp)
  403cdd:	41 0f b7 45 f2       	movzwl -0xe(%r13),%eax
  403ce2:	89 44 24 08          	mov    %eax,0x8(%rsp)
  403ce6:	e8 c5 e3 ff ff       	call   4020b0 <strerror@plt>
  403ceb:	49 89 c2             	mov    %rax,%r10
  403cee:	48 83 ec 08          	sub    $0x8,%rsp
  403cf2:	48 8d 3d 43 59 00 00 	lea    0x5943(%rip),%rdi        # 40963c <_IO_stdin_used+0x63c>
  403cf9:	48 8d b4 24 14 01 00 	lea    0x114(%rsp),%rsi
  403d00:	00 
  403d01:	48 8b 54 24 20       	mov    0x20(%rsp),%rdx
  403d06:	8b 4c 24 10          	mov    0x10(%rsp),%ecx
  403d0a:	48 89 5c 24 10       	mov    %rbx,0x10(%rsp)
  403d0f:	49 89 d8             	mov    %rbx,%r8
  403d12:	44 8b 4c 24 18       	mov    0x18(%rsp),%r9d
  403d17:	31 c0                	xor    %eax,%eax
  403d19:	41 52                	push   %r10
  403d1b:	e8 90 40 00 00       	call   407db0 <__pr_error>
  403d20:	48 83 c4 10          	add    $0x10,%rsp
  403d24:	eb 4e                	jmp    403d74 <teavpn_server_tcp_handler+0xd84>
  403d26:	48 89 5c 24 08       	mov    %rbx,0x8(%rsp)
  403d2b:	48 8b 44 24 10       	mov    0x10(%rsp),%rax
  403d30:	8b 18                	mov    (%rax),%ebx
  403d32:	89 df                	mov    %ebx,%edi
  403d34:	e8 77 e3 ff ff       	call   4020b0 <strerror@plt>
  403d39:	48 8d 3d 77 58 00 00 	lea    0x5877(%rip),%rdi        # 4095b7 <_IO_stdin_used+0x5b7>
  403d40:	8b 74 24 20          	mov    0x20(%rsp),%esi
  403d44:	89 da                	mov    %ebx,%edx
  403d46:	48 89 c1             	mov    %rax,%rcx
  403d49:	31 c0                	xor    %eax,%eax
  403d4b:	e8 60 40 00 00       	call   407db0 <__pr_error>
  403d50:	41 0f b7 55 f2       	movzwl -0xe(%r13),%edx
  403d55:	eb 05                	jmp    403d5c <teavpn_server_tcp_handler+0xd6c>
  403d57:	48 89 5c 24 08       	mov    %rbx,0x8(%rsp)
  403d5c:	48 8d 3d ff 58 00 00 	lea    0x58ff(%rip),%rdi        # 409662 <_IO_stdin_used+0x662>
  403d63:	48 8b 74 24 18       	mov    0x18(%rsp),%rsi
  403d68:	48 8b 4c 24 08       	mov    0x8(%rsp),%rcx
  403d6d:	31 c0                	xor    %eax,%eax
  403d6f:	e8 ec 44 00 00       	call   408260 <__pr_notice>
  403d74:	c7 84 24 e8 00 00 00 	movl   $0x2,0xe8(%rsp)
  403d7b:	02 00 00 00 
  403d7f:	48 8b 44 24 30       	mov    0x30(%rsp),%rax
  403d84:	8b 18                	mov    (%rax),%ebx
  403d86:	41 83 45 98 01       	addl   $0x1,-0x68(%r13)
  403d8b:	ba 04 00 00 00       	mov    $0x4,%edx
  403d90:	89 df                	mov    %ebx,%edi
  403d92:	48 8d b4 24 e8 00 00 	lea    0xe8(%rsp),%rsi
  403d99:	00 
  403d9a:	31 c9                	xor    %ecx,%ecx
  403d9c:	e8 5f e3 ff ff       	call   402100 <send@plt>
  403da1:	c7 44 24 10 02 00 00 	movl   $0x2,0x10(%rsp)
  403da8:	00 
  403da9:	48 85 c0             	test   %rax,%rax
  403dac:	78 0a                	js     403db8 <teavpn_server_tcp_handler+0xdc8>
  403dae:	48 8b 5c 24 08       	mov    0x8(%rsp),%rbx
  403db3:	e9 b4 fe ff ff       	jmp    403c6c <teavpn_server_tcp_handler+0xc7c>
  403db8:	e8 73 e2 ff ff       	call   402030 <__errno_location@plt>
  403dbd:	8b 38                	mov    (%rax),%edi
  403dbf:	89 7c 24 20          	mov    %edi,0x20(%rsp)
  403dc3:	e8 e8 e2 ff ff       	call   4020b0 <strerror@plt>
  403dc8:	48 8d 3d e8 57 00 00 	lea    0x57e8(%rip),%rdi        # 4095b7 <_IO_stdin_used+0x5b7>
  403dcf:	89 de                	mov    %ebx,%esi
  403dd1:	8b 54 24 20          	mov    0x20(%rsp),%edx
  403dd5:	48 89 c1             	mov    %rax,%rcx
  403dd8:	31 c0                	xor    %eax,%eax
  403dda:	e8 d1 3f 00 00       	call   407db0 <__pr_error>
  403ddf:	e9 ca ff ff ff       	jmp    403dae <teavpn_server_tcp_handler+0xdbe>
  403de4:	66 2e 0f 1f 84 00 00 	cs nopw 0x0(%rax,%rax,1)
  403deb:	00 00 00 
  403dee:	66 90                	xchg   %ax,%ax
  403df0:	a8 18                	test   $0x18,%al
  403df2:	0f 85 fe 04 00 00    	jne    4042f6 <teavpn_server_tcp_handler+0x1306>
  403df8:	c7 44 24 7c 10 00 00 	movl   $0x10,0x7c(%rsp)
  403dff:	00 
  403e00:	66 0f ef c0          	pxor   %xmm0,%xmm0
  403e04:	66 0f 7f 84 24 10 42 	movdqa %xmm0,0x4210(%rsp)
  403e0b:	00 00 
  403e0d:	89 ef                	mov    %ebp,%edi
  403e0f:	48 8d b4 24 10 42 00 	lea    0x4210(%rsp),%rsi
  403e16:	00 
  403e17:	48 8d 54 24 7c       	lea    0x7c(%rsp),%rdx
  403e1c:	e8 6f e2 ff ff       	call   402090 <accept@plt>
  403e21:	85 c0                	test   %eax,%eax
  403e23:	0f 88 17 03 00 00    	js     404140 <teavpn_server_tcp_handler+0x1150>
  403e29:	41 89 c5             	mov    %eax,%r13d
  403e2c:	bf 02 00 00 00       	mov    $0x2,%edi
  403e31:	48 8d b4 24 14 42 00 	lea    0x4214(%rsp),%rsi
  403e38:	00 
  403e39:	48 8d 94 24 20 42 00 	lea    0x4220(%rsp),%rdx
  403e40:	00 
  403e41:	b9 10 00 00 00       	mov    $0x10,%ecx
  403e46:	e8 b5 e3 ff ff       	call   402200 <inet_ntop@plt>
  403e4b:	48 85 c0             	test   %rax,%rax
  403e4e:	0f 84 30 03 00 00    	je     404184 <teavpn_server_tcp_handler+0x1194>
  403e54:	49 89 c7             	mov    %rax,%r15
  403e57:	44 0f b7 a4 24 12 42 	movzwl 0x4212(%rsp),%r12d
  403e5e:	00 00 
  403e60:	66 41 c1 c4 08       	rol    $0x8,%r12w
  403e65:	0f b7 84 24 a0 00 00 	movzwl 0xa0(%rsp),%eax
  403e6c:	00 
  403e6d:	66 3b 84 24 a2 00 00 	cmp    0xa2(%rsp),%ax
  403e74:	00 
  403e75:	0f 84 36 03 00 00    	je     4041b1 <teavpn_server_tcp_handler+0x11c1>
  403e7b:	48 8b 8c 24 a8 00 00 	mov    0xa8(%rsp),%rcx
  403e82:	00 
  403e83:	0f b7 2c 41          	movzwl (%rcx,%rax,2),%ebp
  403e87:	83 c0 01             	add    $0x1,%eax
  403e8a:	66 89 84 24 a0 00 00 	mov    %ax,0xa0(%rsp)
  403e91:	00 
  403e92:	8b bc 24 90 00 00 00 	mov    0x90(%rsp),%edi
  403e99:	c7 84 24 88 00 00 00 	movl   $0x0,0x88(%rsp)
  403ea0:	00 00 00 00 
  403ea4:	c7 84 24 80 00 00 00 	movl   $0x3,0x80(%rsp)
  403eab:	03 00 00 00 
  403eaf:	44 89 ac 24 84 00 00 	mov    %r13d,0x84(%rsp)
  403eb6:	00 
  403eb7:	be 01 00 00 00       	mov    $0x1,%esi
  403ebc:	44 89 ea             	mov    %r13d,%edx
  403ebf:	48 8d 8c 24 80 00 00 	lea    0x80(%rsp),%rcx
  403ec6:	00 
  403ec7:	e8 f4 e3 ff ff       	call   4022c0 <epoll_ctl@plt>
  403ecc:	85 c0                	test   %eax,%eax
  403ece:	0f 88 f1 02 00 00    	js     4041c5 <teavpn_server_tcp_handler+0x11d5>
  403ed4:	8d 45 03             	lea    0x3(%rbp),%eax
  403ed7:	48 8b 8c 24 c0 00 00 	mov    0xc0(%rsp),%rcx
  403ede:	00 
  403edf:	44 89 ea             	mov    %r13d,%edx
  403ee2:	66 89 04 51          	mov    %ax,(%rcx,%rdx,2)
  403ee6:	48 8b 9c 24 b8 00 00 	mov    0xb8(%rsp),%rbx
  403eed:	00 
  403eee:	4c 89 fe             	mov    %r15,%rsi
  403ef1:	4c 69 fd 80 40 00 00 	imul   $0x4080,%rbp,%r15
  403ef8:	66 42 c7 44 3b 4f 01 	movw   $0x101,0x4f(%rbx,%r15,1)
  403eff:	01 
  403f00:	46 89 2c 3b          	mov    %r13d,(%rbx,%r15,1)
  403f04:	66 46 89 64 3b 62    	mov    %r12w,0x62(%rbx,%r15,1)
  403f0a:	4a 8d 2c 3b          	lea    (%rbx,%r15,1),%rbp
  403f0e:	48 83 c5 52          	add    $0x52,%rbp
  403f12:	ba 0f 00 00 00       	mov    $0xf,%edx
  403f17:	48 89 ef             	mov    %rbp,%rdi
  403f1a:	e8 f1 e1 ff ff       	call   402110 <strncpy@plt>
  403f1f:	42 c6 44 3b 61 00    	movb   $0x0,0x61(%rbx,%r15,1)
  403f25:	42 0f b7 54 3b 62    	movzwl 0x62(%rbx,%r15,1),%edx
  403f2b:	4a 8d 0c 3b          	lea    (%rbx,%r15,1),%rcx
  403f2f:	48 83 c1 0e          	add    $0xe,%rcx
  403f33:	48 8d 3d 55 54 00 00 	lea    0x5455(%rip),%rdi        # 40938f <_IO_stdin_used+0x38f>
  403f3a:	48 89 ee             	mov    %rbp,%rsi
  403f3d:	45 89 e8             	mov    %r13d,%r8d
  403f40:	31 c0                	xor    %eax,%eax
  403f42:	e8 19 43 00 00       	call   408260 <__pr_notice>
  403f47:	e9 4c f8 ff ff       	jmp    403798 <teavpn_server_tcp_handler+0x7a8>
  403f4c:	0f 1f 40 00          	nopl   0x0(%rax)
  403f50:	41 bc ff ff ff ff    	mov    $0xffffffff,%r12d
  403f56:	a8 18                	test   $0x18,%al
  403f58:	0f 85 9e 03 00 00    	jne    4042fc <teavpn_server_tcp_handler+0x130c>
  403f5e:	83 84 24 d0 00 00 00 	addl   $0x1,0xd0(%rsp)
  403f65:	01 
  403f66:	ba 00 10 00 00       	mov    $0x1000,%edx
  403f6b:	89 ef                	mov    %ebp,%edi
  403f6d:	48 8d b4 24 ec 00 00 	lea    0xec(%rsp),%rsi
  403f74:	00 
  403f75:	e8 b6 e3 ff ff       	call   402330 <read@plt>
  403f7a:	48 85 c0             	test   %rax,%rax
  403f7d:	0f 88 ec 01 00 00    	js     40416f <teavpn_server_tcp_handler+0x117f>
  403f83:	85 c0                	test   %eax,%eax
  403f85:	0f 89 0d f8 ff ff    	jns    403798 <teavpn_server_tcp_handler+0x7a8>
  403f8b:	e9 6c 03 00 00       	jmp    4042fc <teavpn_server_tcp_handler+0x130c>
  403f90:	41 0f b7 55 f2       	movzwl -0xe(%r13),%edx
  403f95:	48 83 ec 08          	sub    $0x8,%rsp
  403f99:	41 b8 04 10 00 00    	mov    $0x1004,%r8d
  403f9f:	48 8d 3d b2 54 00 00 	lea    0x54b2(%rip),%rdi        # 409458 <_IO_stdin_used+0x458>
  403fa6:	48 8b 74 24 20       	mov    0x20(%rsp),%rsi
  403fab:	48 89 d9             	mov    %rbx,%rcx
  403fae:	31 c0                	xor    %eax,%eax
  403fb0:	41 54                	push   %r12
  403fb2:	e8 a9 42 00 00       	call   408260 <__pr_notice>
  403fb7:	48 83 c4 10          	add    $0x10,%rsp
  403fbb:	41 80 7d de 00       	cmpb   $0x0,-0x22(%r13)
  403fc0:	48 8b 6c 24 48       	mov    0x48(%rsp),%rbp
  403fc5:	4c 8b 7c 24 40       	mov    0x40(%rsp),%r15
  403fca:	4c 8b 6c 24 38       	mov    0x38(%rsp),%r13
  403fcf:	74 6b                	je     40403c <teavpn_server_tcp_handler+0x104c>
  403fd1:	48 8b 44 24 60       	mov    0x60(%rsp),%rax
  403fd6:	48 c7 00 00 00 00 00 	movq   $0x0,(%rax)
  403fdd:	43 8a 44 2f 51       	mov    0x51(%r15,%r13,1),%al
  403fe2:	8d 48 01             	lea    0x1(%rax),%ecx
  403fe5:	43 88 4c 2f 51       	mov    %cl,0x51(%r15,%r13,1)
  403fea:	3c 0f                	cmp    $0xf,%al
  403fec:	0f 82 a6 f7 ff ff    	jb     403798 <teavpn_server_tcp_handler+0x7a8>
  403ff2:	4b 8d 34 2f          	lea    (%r15,%r13,1),%rsi
  403ff6:	48 83 c6 52          	add    $0x52,%rsi
  403ffa:	43 0f b7 54 2f 62    	movzwl 0x62(%r15,%r13,1),%edx
  404000:	4b 8d 0c 2f          	lea    (%r15,%r13,1),%rcx
  404004:	48 83 c1 0e          	add    $0xe,%rcx
  404008:	48 8d 3d cc 53 00 00 	lea    0x53cc(%rip),%rdi        # 4093db <_IO_stdin_used+0x3db>
  40400f:	31 c0                	xor    %eax,%eax
  404011:	e8 9a 3d 00 00       	call   407db0 <__pr_error>
  404016:	eb 24                	jmp    40403c <teavpn_server_tcp_handler+0x104c>
  404018:	4b 8d 34 2f          	lea    (%r15,%r13,1),%rsi
  40401c:	48 83 c6 52          	add    $0x52,%rsi
  404020:	43 0f b7 54 2f 62    	movzwl 0x62(%r15,%r13,1),%edx
  404026:	4b 8d 0c 2f          	lea    (%r15,%r13,1),%rcx
  40402a:	48 83 c1 0e          	add    $0xe,%rcx
  40402e:	48 8d 3d 81 53 00 00 	lea    0x5381(%rip),%rdi        # 4093b6 <_IO_stdin_used+0x3b6>
  404035:	31 c0                	xor    %eax,%eax
  404037:	e8 24 42 00 00       	call   408260 <__pr_notice>
  40403c:	8b bc 24 90 00 00 00 	mov    0x90(%rsp),%edi
  404043:	be 02 00 00 00       	mov    $0x2,%esi
  404048:	89 ea                	mov    %ebp,%edx
  40404a:	31 c9                	xor    %ecx,%ecx
  40404c:	e8 6f e2 ff ff       	call   4022c0 <epoll_ctl@plt>
  404051:	85 c0                	test   %eax,%eax
  404053:	0f 88 e1 01 00 00    	js     40423a <teavpn_server_tcp_handler+0x124a>
  404059:	89 ef                	mov    %ebp,%edi
  40405b:	e8 c0 e3 ff ff       	call   402420 <close@plt>
  404060:	4b 8d 34 2f          	lea    (%r15,%r13,1),%rsi
  404064:	48 83 c6 52          	add    $0x52,%rsi
  404068:	43 0f b7 54 2f 62    	movzwl 0x62(%r15,%r13,1),%edx
  40406e:	4b 8d 0c 2f          	lea    (%r15,%r13,1),%rcx
  404072:	48 83 c1 0e          	add    $0xe,%rcx
  404076:	48 8d 3d 95 53 00 00 	lea    0x5395(%rip),%rdi        # 409412 <_IO_stdin_used+0x412>
  40407d:	31 c0                	xor    %eax,%eax
  40407f:	e8 dc 41 00 00       	call   408260 <__pr_notice>
  404084:	43 0f b7 44 2f 0c    	movzwl 0xc(%r15,%r13,1),%eax
  40408a:	8b 8c 24 a0 00 00 00 	mov    0xa0(%rsp),%ecx
  404091:	48 8b 94 24 a8 00 00 	mov    0xa8(%rsp),%rdx
  404098:	00 
  404099:	83 c1 ff             	add    $0xffffffff,%ecx
  40409c:	0f b7 f1             	movzwl %cx,%esi
  40409f:	66 89 04 72          	mov    %ax,(%rdx,%rsi,2)
  4040a3:	66 89 8c 24 a0 00 00 	mov    %cx,0xa0(%rsp)
  4040aa:	00 
  4040ab:	48 8b 44 24 30       	mov    0x30(%rsp),%rax
  4040b0:	c7 00 ff ff ff ff    	movl   $0xffffffff,(%rax)
  4040b6:	4b c7 44 2f 04 00 00 	movq   $0x0,0x4(%r15,%r13,1)
  4040bd:	00 00 
  4040bf:	66 43 c7 44 2f 0e 5f 	movw   $0x5f,0xe(%r15,%r13,1)
  4040c6:	00 
  4040c7:	4b c7 44 2f 68 00 00 	movq   $0x0,0x68(%r15,%r13,1)
  4040ce:	00 00 
  4040d0:	43 c7 44 2f 4e 00 00 	movl   $0x0,0x4e(%r15,%r13,1)
  4040d7:	00 00 
  4040d9:	48 8b 84 24 c0 00 00 	mov    0xc0(%rsp),%rax
  4040e0:	00 
  4040e1:	66 c7 04 68 00 00    	movw   $0x0,(%rax,%rbp,2)
  4040e7:	e9 ac f6 ff ff       	jmp    403798 <teavpn_server_tcp_handler+0x7a8>
  4040ec:	e8 3f df ff ff       	call   402030 <__errno_location@plt>
  4040f1:	44 8b 20             	mov    (%rax),%r12d
  4040f4:	41 83 fc 0b          	cmp    $0xb,%r12d
  4040f8:	0f 84 9a f6 ff ff    	je     403798 <teavpn_server_tcp_handler+0x7a8>
  4040fe:	44 89 e7             	mov    %r12d,%edi
  404101:	e8 aa df ff ff       	call   4020b0 <strerror@plt>
  404106:	4f 8d 04 2f          	lea    (%r15,%r13,1),%r8
  40410a:	49 83 c0 52          	add    $0x52,%r8
  40410e:	47 0f b7 4c 2f 62    	movzwl 0x62(%r15,%r13,1),%r9d
  404114:	4b 8d 1c 2f          	lea    (%r15,%r13,1),%rbx
  404118:	48 83 c3 0e          	add    $0xe,%rbx
  40411c:	48 83 ec 08          	sub    $0x8,%rsp
  404120:	48 8d 3d 11 53 00 00 	lea    0x5311(%rip),%rdi        # 409438 <_IO_stdin_used+0x438>
  404127:	89 ee                	mov    %ebp,%esi
  404129:	44 89 e2             	mov    %r12d,%edx
  40412c:	48 89 c1             	mov    %rax,%rcx
  40412f:	31 c0                	xor    %eax,%eax
  404131:	53                   	push   %rbx
  404132:	e8 79 3c 00 00       	call   407db0 <__pr_error>
  404137:	48 83 c4 10          	add    $0x10,%rsp
  40413b:	e9 91 fe ff ff       	jmp    403fd1 <teavpn_server_tcp_handler+0xfe1>
  404140:	e8 eb de ff ff       	call   402030 <__errno_location@plt>
  404145:	8b 18                	mov    (%rax),%ebx
  404147:	83 fb 0b             	cmp    $0xb,%ebx
  40414a:	0f 84 48 f6 ff ff    	je     403798 <teavpn_server_tcp_handler+0x7a8>
  404150:	89 df                	mov    %ebx,%edi
  404152:	e8 59 df ff ff       	call   4020b0 <strerror@plt>
  404157:	48 8d 3d 76 51 00 00 	lea    0x5176(%rip),%rdi        # 4092d4 <_IO_stdin_used+0x2d4>
  40415e:	89 de                	mov    %ebx,%esi
  404160:	48 89 c2             	mov    %rax,%rdx
  404163:	31 c0                	xor    %eax,%eax
  404165:	e8 46 3c 00 00       	call   407db0 <__pr_error>
  40416a:	e9 29 f6 ff ff       	jmp    403798 <teavpn_server_tcp_handler+0x7a8>
  40416f:	e8 bc de ff ff       	call   402030 <__errno_location@plt>
  404174:	8b 18                	mov    (%rax),%ebx
  404176:	83 fb 0b             	cmp    $0xb,%ebx
  404179:	0f 84 19 f6 ff ff    	je     403798 <teavpn_server_tcp_handler+0x7a8>
  40417f:	e9 68 04 00 00       	jmp    4045ec <teavpn_server_tcp_handler+0x15fc>
  404184:	e8 a7 de ff ff       	call   402030 <__errno_location@plt>
  404189:	8b 28                	mov    (%rax),%ebp
  40418b:	85 ed                	test   %ebp,%ebp
  40418d:	b8 16 00 00 00       	mov    $0x16,%eax
  404192:	0f 44 e8             	cmove  %eax,%ebp
  404195:	89 ef                	mov    %ebp,%edi
  404197:	e8 14 df ff ff       	call   4020b0 <strerror@plt>
  40419c:	48 8d 3d 62 51 00 00 	lea    0x5162(%rip),%rdi        # 409305 <_IO_stdin_used+0x305>
  4041a3:	89 ee                	mov    %ebp,%esi
  4041a5:	48 89 c2             	mov    %rax,%rdx
  4041a8:	31 c0                	xor    %eax,%eax
  4041aa:	e8 01 3c 00 00       	call   407db0 <__pr_error>
  4041af:	eb 5f                	jmp    404210 <teavpn_server_tcp_handler+0x1220>
  4041b1:	48 8d 3d 62 51 00 00 	lea    0x5162(%rip),%rdi        # 40931a <_IO_stdin_used+0x31a>
  4041b8:	31 c0                	xor    %eax,%eax
  4041ba:	e8 a1 40 00 00       	call   408260 <__pr_notice>
  4041bf:	41 0f b7 ec          	movzwl %r12w,%ebp
  4041c3:	eb 38                	jmp    4041fd <teavpn_server_tcp_handler+0x120d>
  4041c5:	e8 66 de ff ff       	call   402030 <__errno_location@plt>
  4041ca:	8b 18                	mov    (%rax),%ebx
  4041cc:	89 df                	mov    %ebx,%edi
  4041ce:	e8 dd de ff ff       	call   4020b0 <strerror@plt>
  4041d3:	48 8d 3d 72 50 00 00 	lea    0x5072(%rip),%rdi        # 40924c <_IO_stdin_used+0x24c>
  4041da:	89 de                	mov    %ebx,%esi
  4041dc:	48 89 c2             	mov    %rax,%rdx
  4041df:	31 c0                	xor    %eax,%eax
  4041e1:	e8 ca 3b 00 00       	call   407db0 <__pr_error>
  4041e6:	41 0f b7 ec          	movzwl %r12w,%ebp
  4041ea:	48 8d 3d 56 51 00 00 	lea    0x5156(%rip),%rdi        # 409347 <_IO_stdin_used+0x347>
  4041f1:	4c 89 fe             	mov    %r15,%rsi
  4041f4:	89 ea                	mov    %ebp,%edx
  4041f6:	31 c0                	xor    %eax,%eax
  4041f8:	e8 b3 3b 00 00       	call   407db0 <__pr_error>
  4041fd:	48 8d 3d e2 50 00 00 	lea    0x50e2(%rip),%rdi        # 4092e6 <_IO_stdin_used+0x2e6>
  404204:	4c 89 fe             	mov    %r15,%rsi
  404207:	89 ea                	mov    %ebp,%edx
  404209:	31 c0                	xor    %eax,%eax
  40420b:	e8 50 40 00 00       	call   408260 <__pr_notice>
  404210:	44 89 ef             	mov    %r13d,%edi
  404213:	e8 08 e2 ff ff       	call   402420 <close@plt>
  404218:	e9 7b f5 ff ff       	jmp    403798 <teavpn_server_tcp_handler+0x7a8>
  40421d:	83 f8 01             	cmp    $0x1,%eax
  404220:	48 8b 6c 24 48       	mov    0x48(%rsp),%rbp
  404225:	4c 8b 7c 24 40       	mov    0x40(%rsp),%r15
  40422a:	4c 8b 6c 24 38       	mov    0x38(%rsp),%r13
  40422f:	0f 85 07 fe ff ff    	jne    40403c <teavpn_server_tcp_handler+0x104c>
  404235:	e9 97 fd ff ff       	jmp    403fd1 <teavpn_server_tcp_handler+0xfe1>
  40423a:	e8 f1 dd ff ff       	call   402030 <__errno_location@plt>
  40423f:	44 8b 20             	mov    (%rax),%r12d
  404242:	44 89 e7             	mov    %r12d,%edi
  404245:	e8 66 de ff ff       	call   4020b0 <strerror@plt>
  40424a:	48 8d 3d 7b 54 00 00 	lea    0x547b(%rip),%rdi        # 4096cc <_IO_stdin_used+0x6cc>
  404251:	44 89 e6             	mov    %r12d,%esi
  404254:	48 89 c2             	mov    %rax,%rdx
  404257:	31 c0                	xor    %eax,%eax
  404259:	e8 52 3b 00 00       	call   407db0 <__pr_error>
  40425e:	e9 f6 fd ff ff       	jmp    404059 <teavpn_server_tcp_handler+0x1069>
  404263:	44 0f b6 c1          	movzbl %cl,%r8d
  404267:	41 0f b7 55 f2       	movzwl -0xe(%r13),%edx
  40426c:	48 8d 3d 61 52 00 00 	lea    0x5261(%rip),%rdi        # 4094d4 <_IO_stdin_used+0x4d4>
  404273:	48 8b 74 24 18       	mov    0x18(%rsp),%rsi
  404278:	48 89 d9             	mov    %rbx,%rcx
  40427b:	31 c0                	xor    %eax,%eax
  40427d:	e8 de 3f 00 00       	call   408260 <__pr_notice>
  404282:	e9 34 fd ff ff       	jmp    403fbb <teavpn_server_tcp_handler+0xfcb>
  404287:	e8 a4 dd ff ff       	call   402030 <__errno_location@plt>
  40428c:	8b 18                	mov    (%rax),%ebx
  40428e:	83 fb 04             	cmp    $0x4,%ebx
  404291:	75 29                	jne    4042bc <teavpn_server_tcp_handler+0x12cc>
  404293:	48 8d 3d d4 4f 00 00 	lea    0x4fd4(%rip),%rdi        # 40926e <_IO_stdin_used+0x26e>
  40429a:	31 c0                	xor    %eax,%eax
  40429c:	e8 bf 3f 00 00       	call   408260 <__pr_notice>
  4042a1:	80 bc 24 9c 00 00 00 	cmpb   $0x1,0x9c(%rsp)
  4042a8:	01 
  4042a9:	48 8d b4 24 50 41 00 	lea    0x4150(%rsp),%rsi
  4042b0:	00 
  4042b1:	0f 85 a5 f4 ff ff    	jne    40375c <teavpn_server_tcp_handler+0x76c>
  4042b7:	e9 51 03 00 00       	jmp    40460d <teavpn_server_tcp_handler+0x161d>
  4042bc:	89 df                	mov    %ebx,%edi
  4042be:	e8 ed dd ff ff       	call   4020b0 <strerror@plt>
  4042c3:	48 8d 3d b1 4f 00 00 	lea    0x4fb1(%rip),%rdi        # 40927b <_IO_stdin_used+0x27b>
  4042ca:	89 de                	mov    %ebx,%esi
  4042cc:	48 89 c2             	mov    %rax,%rdx
  4042cf:	31 c0                	xor    %eax,%eax
  4042d1:	e8 da 3a 00 00       	call   407db0 <__pr_error>
  4042d6:	41 89 dc             	mov    %ebx,%r12d
  4042d9:	41 f7 dc             	neg    %r12d
  4042dc:	85 db                	test   %ebx,%ebx
  4042de:	74 c1                	je     4042a1 <teavpn_server_tcp_handler+0x12b1>
  4042e0:	0f 8e 9a f4 ff ff    	jle    403780 <teavpn_server_tcp_handler+0x790>
  4042e6:	eb 14                	jmp    4042fc <teavpn_server_tcp_handler+0x130c>
  4042e8:	48 8d 3d a2 4f 00 00 	lea    0x4fa2(%rip),%rdi        # 409291 <_IO_stdin_used+0x291>
  4042ef:	31 c0                	xor    %eax,%eax
  4042f1:	e8 ba 3a 00 00       	call   407db0 <__pr_error>
  4042f6:	41 bc ff ff ff ff    	mov    $0xffffffff,%r12d
  4042fc:	80 bc 24 4a 41 00 00 	cmpb   $0x0,0x414a(%rsp)
  404303:	00 
  404304:	74 1b                	je     404321 <teavpn_server_tcp_handler+0x1331>
  404306:	48 8d 3d e1 53 00 00 	lea    0x53e1(%rip),%rdi        # 4096ee <_IO_stdin_used+0x6ee>
  40430d:	31 c0                	xor    %eax,%eax
  40430f:	e8 4c 3f 00 00       	call   408260 <__pr_notice>
  404314:	48 8d bc 24 f8 40 00 	lea    0x40f8(%rsp),%rdi
  40431b:	00 
  40431c:	e8 4f 37 00 00       	call   407a70 <teavpn_iface_down>
  404321:	8b ac 24 98 00 00 00 	mov    0x98(%rsp),%ebp
  404328:	44 8b b4 24 90 00 00 	mov    0x90(%rsp),%r14d
  40432f:	00 
  404330:	8b 9c 24 94 00 00 00 	mov    0x94(%rsp),%ebx
  404337:	83 fd ff             	cmp    $0xffffffff,%ebp
  40433a:	74 17                	je     404353 <teavpn_server_tcp_handler+0x1363>
  40433c:	48 8d 3d c9 53 00 00 	lea    0x53c9(%rip),%rdi        # 40970c <_IO_stdin_used+0x70c>
  404343:	89 ee                	mov    %ebp,%esi
  404345:	31 c0                	xor    %eax,%eax
  404347:	e8 14 3f 00 00       	call   408260 <__pr_notice>
  40434c:	89 ef                	mov    %ebp,%edi
  40434e:	e8 cd e0 ff ff       	call   402420 <close@plt>
  404353:	83 fb ff             	cmp    $0xffffffff,%ebx
  404356:	74 17                	je     40436f <teavpn_server_tcp_handler+0x137f>
  404358:	48 8d 3d c8 53 00 00 	lea    0x53c8(%rip),%rdi        # 409727 <_IO_stdin_used+0x727>
  40435f:	89 de                	mov    %ebx,%esi
  404361:	31 c0                	xor    %eax,%eax
  404363:	e8 f8 3e 00 00       	call   408260 <__pr_notice>
  404368:	89 df                	mov    %ebx,%edi
  40436a:	e8 b1 e0 ff ff       	call   402420 <close@plt>
  40436f:	41 83 fe ff          	cmp    $0xffffffff,%r14d
  404373:	74 19                	je     40438e <teavpn_server_tcp_handler+0x139e>
  404375:	48 8d 3d c6 53 00 00 	lea    0x53c6(%rip),%rdi        # 409742 <_IO_stdin_used+0x742>
  40437c:	44 89 f6             	mov    %r14d,%esi
  40437f:	31 c0                	xor    %eax,%eax
  404381:	e8 da 3e 00 00       	call   408260 <__pr_notice>
  404386:	44 89 f7             	mov    %r14d,%edi
  404389:	e8 92 e0 ff ff       	call   402420 <close@plt>
  40438e:	48 8b 84 24 b0 00 00 	mov    0xb0(%rsp),%rax
  404395:	00 
  404396:	44 0f b7 78 4a       	movzwl 0x4a(%rax),%r15d
  40439b:	66 45 85 ff          	test   %r15w,%r15w
  40439f:	0f 84 57 00 00 00    	je     4043fc <teavpn_server_tcp_handler+0x140c>
  4043a5:	41 8d 47 ff          	lea    -0x1(%r15),%eax
  4043a9:	0f b7 e8             	movzwl %ax,%ebp
  4043ac:	0f b7 c0             	movzwl %ax,%eax
  4043af:	48 69 d8 80 40 00 00 	imul   $0x4080,%rax,%rbx
  4043b6:	48 03 9c 24 b8 00 00 	add    0xb8(%rsp),%rbx
  4043bd:	00 
  4043be:	4c 8d 35 9a 53 00 00 	lea    0x539a(%rip),%r14        # 40975f <_IO_stdin_used+0x75f>
  4043c5:	66 2e 0f 1f 84 00 00 	cs nopw 0x0(%rax,%rax,1)
  4043cc:	00 00 00 
  4043cf:	90                   	nop
  4043d0:	80 7b 4f 00          	cmpb   $0x0,0x4f(%rbx)
  4043d4:	74 15                	je     4043eb <teavpn_server_tcp_handler+0x13fb>
  4043d6:	8b 13                	mov    (%rbx),%edx
  4043d8:	4c 89 f7             	mov    %r14,%rdi
  4043db:	89 ee                	mov    %ebp,%esi
  4043dd:	31 c0                	xor    %eax,%eax
  4043df:	e8 7c 3e 00 00       	call   408260 <__pr_notice>
  4043e4:	8b 3b                	mov    (%rbx),%edi
  4043e6:	e8 35 e0 ff ff       	call   402420 <close@plt>
  4043eb:	83 c5 ff             	add    $0xffffffff,%ebp
  4043ee:	48 81 c3 80 bf ff ff 	add    $0xffffffffffffbf80,%rbx
  4043f5:	66 41 83 c7 ff       	add    $0xffff,%r15w
  4043fa:	75 d4                	jne    4043d0 <teavpn_server_tcp_handler+0x13e0>
  4043fc:	48 8b bc 24 a8 00 00 	mov    0xa8(%rsp),%rdi
  404403:	00 
  404404:	e8 77 de ff ff       	call   402280 <free@plt>
  404409:	48 8b bc 24 b8 00 00 	mov    0xb8(%rsp),%rdi
  404410:	00 
  404411:	e8 6a de ff ff       	call   402280 <free@plt>
  404416:	48 8b bc 24 c0 00 00 	mov    0xc0(%rsp),%rdi
  40441d:	00 
  40441e:	e8 5d de ff ff       	call   402280 <free@plt>
  404423:	48 8b bc 24 c8 00 00 	mov    0xc8(%rsp),%rdi
  40442a:	00 
  40442b:	e8 50 de ff ff       	call   402280 <free@plt>
  404430:	48 8b bc 24 d8 00 00 	mov    0xd8(%rsp),%rdi
  404437:	00 
  404438:	e8 43 de ff ff       	call   402280 <free@plt>
  40443d:	64 48 8b 04 25 28 00 	mov    %fs:0x28,%rax
  404444:	00 00 
  404446:	48 3b 84 24 40 42 00 	cmp    0x4240(%rsp),%rax
  40444d:	00 
  40444e:	0f 85 c1 01 00 00    	jne    404615 <teavpn_server_tcp_handler+0x1625>
  404454:	44 89 e0             	mov    %r12d,%eax
  404457:	48 81 c4 48 42 00 00 	add    $0x4248,%rsp
  40445e:	5b                   	pop    %rbx
  40445f:	41 5c                	pop    %r12
  404461:	41 5d                	pop    %r13
  404463:	41 5e                	pop    %r14
  404465:	41 5f                	pop    %r15
  404467:	5d                   	pop    %rbp
  404468:	c3                   	ret    
  404469:	e8 c2 db ff ff       	call   402030 <__errno_location@plt>
  40446e:	8b 18                	mov    (%rax),%ebx
  404470:	89 df                	mov    %ebx,%edi
  404472:	e8 39 dc ff ff       	call   4020b0 <strerror@plt>
  404477:	48 8d 3d 13 4c 00 00 	lea    0x4c13(%rip),%rdi        # 409091 <_IO_stdin_used+0x91>
  40447e:	89 de                	mov    %ebx,%esi
  404480:	48 89 c2             	mov    %rax,%rdx
  404483:	31 c0                	xor    %eax,%eax
  404485:	e8 26 39 00 00       	call   407db0 <__pr_error>
  40448a:	e9 67 fe ff ff       	jmp    4042f6 <teavpn_server_tcp_handler+0x1306>
  40448f:	e8 9c db ff ff       	call   402030 <__errno_location@plt>
  404494:	8b 28                	mov    (%rax),%ebp
  404496:	89 ef                	mov    %ebp,%edi
  404498:	e8 13 dc ff ff       	call   4020b0 <strerror@plt>
  40449d:	48 8d 3d a8 4d 00 00 	lea    0x4da8(%rip),%rdi        # 40924c <_IO_stdin_used+0x24c>
  4044a4:	89 ee                	mov    %ebp,%esi
  4044a6:	48 89 c2             	mov    %rax,%rdx
  4044a9:	31 c0                	xor    %eax,%eax
  4044ab:	e8 00 39 00 00       	call   407db0 <__pr_error>
  4044b0:	85 db                	test   %ebx,%ebx
  4044b2:	7f 13                	jg     4044c7 <teavpn_server_tcp_handler+0x14d7>
  4044b4:	e9 3d fe ff ff       	jmp    4042f6 <teavpn_server_tcp_handler+0x1306>
  4044b9:	48 8d 3d 24 4c 00 00 	lea    0x4c24(%rip),%rdi        # 4090e4 <_IO_stdin_used+0xe4>
  4044c0:	31 c0                	xor    %eax,%eax
  4044c2:	e8 e9 38 00 00       	call   407db0 <__pr_error>
  4044c7:	89 df                	mov    %ebx,%edi
  4044c9:	e8 52 df ff ff       	call   402420 <close@plt>
  4044ce:	e9 23 fe ff ff       	jmp    4042f6 <teavpn_server_tcp_handler+0x1306>
  4044d3:	e8 58 db ff ff       	call   402030 <__errno_location@plt>
  4044d8:	8b 18                	mov    (%rax),%ebx
  4044da:	41 89 dc             	mov    %ebx,%r12d
  4044dd:	41 f7 dc             	neg    %r12d
  4044e0:	89 df                	mov    %ebx,%edi
  4044e2:	e8 c9 db ff ff       	call   4020b0 <strerror@plt>
  4044e7:	48 8d 3d 37 4c 00 00 	lea    0x4c37(%rip),%rdi        # 409125 <_IO_stdin_used+0x125>
  4044ee:	89 de                	mov    %ebx,%esi
  4044f0:	48 89 c2             	mov    %rax,%rdx
  4044f3:	31 c0                	xor    %eax,%eax
  4044f5:	e8 b6 38 00 00       	call   407db0 <__pr_error>
  4044fa:	e9 df 00 00 00       	jmp    4045de <teavpn_server_tcp_handler+0x15ee>
  4044ff:	e8 2c db ff ff       	call   402030 <__errno_location@plt>
  404504:	8b 18                	mov    (%rax),%ebx
  404506:	89 df                	mov    %ebx,%edi
  404508:	e8 a3 db ff ff       	call   4020b0 <strerror@plt>
  40450d:	48 8d 3d 20 4d 00 00 	lea    0x4d20(%rip),%rdi        # 409234 <_IO_stdin_used+0x234>
  404514:	e9 65 ff ff ff       	jmp    40447e <teavpn_server_tcp_handler+0x148e>
  404519:	41 89 c4             	mov    %eax,%r12d
  40451c:	4c 8d 3d 7c 4c 00 00 	lea    0x4c7c(%rip),%r15        # 40919f <_IO_stdin_used+0x19f>
  404523:	eb 41                	jmp    404566 <teavpn_server_tcp_handler+0x1576>
  404525:	41 89 c4             	mov    %eax,%r12d
  404528:	4c 8d 3d 89 4c 00 00 	lea    0x4c89(%rip),%r15        # 4091b8 <_IO_stdin_used+0x1b8>
  40452f:	4c 8d 35 76 4c 00 00 	lea    0x4c76(%rip),%r14        # 4091ac <_IO_stdin_used+0x1ac>
  404536:	eb 2e                	jmp    404566 <teavpn_server_tcp_handler+0x1576>
  404538:	41 89 c4             	mov    %eax,%r12d
  40453b:	4c 8d 3d 82 4c 00 00 	lea    0x4c82(%rip),%r15        # 4091c4 <_IO_stdin_used+0x1c4>
  404542:	eb 22                	jmp    404566 <teavpn_server_tcp_handler+0x1576>
  404544:	41 89 c4             	mov    %eax,%r12d
  404547:	4c 8d 3d 86 4c 00 00 	lea    0x4c86(%rip),%r15        # 4091d4 <_IO_stdin_used+0x1d4>
  40454e:	eb 16                	jmp    404566 <teavpn_server_tcp_handler+0x1576>
  404550:	41 89 c4             	mov    %eax,%r12d
  404553:	4c 8d 3d 89 4c 00 00 	lea    0x4c89(%rip),%r15        # 4091e3 <_IO_stdin_used+0x1e3>
  40455a:	eb 0a                	jmp    404566 <teavpn_server_tcp_handler+0x1576>
  40455c:	41 89 c4             	mov    %eax,%r12d
  40455f:	4c 8d 3d 8c 4c 00 00 	lea    0x4c8c(%rip),%r15        # 4091f2 <_IO_stdin_used+0x1f2>
  404566:	e8 c5 da ff ff       	call   402030 <__errno_location@plt>
  40456b:	8b 18                	mov    (%rax),%ebx
  40456d:	89 df                	mov    %ebx,%edi
  40456f:	e8 3c db ff ff       	call   4020b0 <strerror@plt>
  404574:	48 8d 3d 84 4c 00 00 	lea    0x4c84(%rip),%rdi        # 4091ff <_IO_stdin_used+0x1ff>
  40457b:	4c 89 f6             	mov    %r14,%rsi
  40457e:	4c 89 fa             	mov    %r15,%rdx
  404581:	89 d9                	mov    %ebx,%ecx
  404583:	49 89 c0             	mov    %rax,%r8
  404586:	31 c0                	xor    %eax,%eax
  404588:	e8 23 38 00 00       	call   407db0 <__pr_error>
  40458d:	eb 44                	jmp    4045d3 <teavpn_server_tcp_handler+0x15e3>
  40458f:	e8 9c da ff ff       	call   402030 <__errno_location@plt>
  404594:	8b 18                	mov    (%rax),%ebx
  404596:	41 89 dc             	mov    %ebx,%r12d
  404599:	41 f7 dc             	neg    %r12d
  40459c:	89 df                	mov    %ebx,%edi
  40459e:	e8 0d db ff ff       	call   4020b0 <strerror@plt>
  4045a3:	48 8d 3d b2 4b 00 00 	lea    0x4bb2(%rip),%rdi        # 40915c <_IO_stdin_used+0x15c>
  4045aa:	eb 1b                	jmp    4045c7 <teavpn_server_tcp_handler+0x15d7>
  4045ac:	e8 7f da ff ff       	call   402030 <__errno_location@plt>
  4045b1:	8b 18                	mov    (%rax),%ebx
  4045b3:	41 89 dc             	mov    %ebx,%r12d
  4045b6:	41 f7 dc             	neg    %r12d
  4045b9:	89 df                	mov    %ebx,%edi
  4045bb:	e8 f0 da ff ff       	call   4020b0 <strerror@plt>
  4045c0:	48 8d 3d a5 4b 00 00 	lea    0x4ba5(%rip),%rdi        # 40916c <_IO_stdin_used+0x16c>
  4045c7:	89 de                	mov    %ebx,%esi
  4045c9:	48 89 c2             	mov    %rax,%rdx
  4045cc:	31 c0                	xor    %eax,%eax
  4045ce:	e8 dd 37 00 00       	call   407db0 <__pr_error>
  4045d3:	85 ed                	test   %ebp,%ebp
  4045d5:	7e 07                	jle    4045de <teavpn_server_tcp_handler+0x15ee>
  4045d7:	89 ef                	mov    %ebp,%edi
  4045d9:	e8 42 de ff ff       	call   402420 <close@plt>
  4045de:	45 85 e4             	test   %r12d,%r12d
  4045e1:	0f 89 fd ef ff ff    	jns    4035e4 <teavpn_server_tcp_handler+0x5f4>
  4045e7:	e9 10 fd ff ff       	jmp    4042fc <teavpn_server_tcp_handler+0x130c>
  4045ec:	89 df                	mov    %ebx,%edi
  4045ee:	e8 bd da ff ff       	call   4020b0 <strerror@plt>
  4045f3:	48 8d 3d ba 4c 00 00 	lea    0x4cba(%rip),%rdi        # 4092b4 <_IO_stdin_used+0x2b4>
  4045fa:	89 ee                	mov    %ebp,%esi
  4045fc:	89 da                	mov    %ebx,%edx
  4045fe:	48 89 c1             	mov    %rax,%rcx
  404601:	31 c0                	xor    %eax,%eax
  404603:	e8 a8 37 00 00       	call   407db0 <__pr_error>
  404608:	e9 ef fc ff ff       	jmp    4042fc <teavpn_server_tcp_handler+0x130c>
  40460d:	45 31 e4             	xor    %r12d,%r12d
  404610:	e9 e7 fc ff ff       	jmp    4042fc <teavpn_server_tcp_handler+0x130c>
  404615:	e8 26 dc ff ff       	call   402240 <__stack_chk_fail@plt>
  40461a:	66 0f 1f 44 00 00    	nopw   0x0(%rax,%rax,1)

0000000000404620 <handle_interrupt>:
  404620:	53                   	push   %rbx
  404621:	89 fb                	mov    %edi,%ebx
  404623:	48 8b 05 8e 9c 00 00 	mov    0x9c8e(%rip),%rax        # 40e2b8 <g_state>
  40462a:	c6 40 0c 01          	movb   $0x1,0xc(%rax)
  40462e:	48 8b 05 9b 99 00 00 	mov    0x999b(%rip),%rax        # 40dfd0 <stdout@GLIBC_2.2.5>
  404635:	48 8b 30             	mov    (%rax),%rsi
  404638:	bf 0a 00 00 00       	mov    $0xa,%edi
  40463d:	e8 ce dd ff ff       	call   402410 <putc@plt>
  404642:	89 df                	mov    %ebx,%edi
  404644:	e8 87 dd ff ff       	call   4023d0 <strsignal@plt>
  404649:	48 8d 3d 22 4a 00 00 	lea    0x4a22(%rip),%rdi        # 409072 <_IO_stdin_used+0x72>
  404650:	89 de                	mov    %ebx,%esi
  404652:	48 89 c2             	mov    %rax,%rdx
  404655:	31 c0                	xor    %eax,%eax
  404657:	5b                   	pop    %rbx
  404658:	e9 03 3c 00 00       	jmp    408260 <__pr_notice>
  40465d:	0f 1f 00             	nopl   (%rax)

0000000000404660 <teavpn_server_argv_parse>:
  404660:	55                   	push   %rbp
  404661:	41 57                	push   %r15
  404663:	41 56                	push   %r14
  404665:	41 55                	push   %r13
  404667:	41 54                	push   %r12
  404669:	53                   	push   %rbx
  40466a:	48 83 ec 18          	sub    $0x18,%rsp
  40466e:	48 89 d3             	mov    %rdx,%rbx
  404671:	49 89 f6             	mov    %rsi,%r14
  404674:	89 fd                	mov    %edi,%ebp
  404676:	64 48 8b 04 25 28 00 	mov    %fs:0x28,%rax
  40467d:	00 00 
  40467f:	48 89 44 24 10       	mov    %rax,0x10(%rsp)
  404684:	48 8b 06             	mov    (%rsi),%rax
  404687:	48 89 04 24          	mov    %rax,(%rsp)
  40468b:	48 8d 05 9e 9b 00 00 	lea    0x9b9e(%rip),%rax        # 40e230 <d_srv_cfg_file>
  404692:	48 89 02             	mov    %rax,(%rdx)
  404695:	48 c7 42 08 00 00 00 	movq   $0x0,0x8(%rdx)
  40469c:	00 
  40469d:	0f b7 05 9e 9b 00 00 	movzwl 0x9b9e(%rip),%eax        # 40e242 <d_srv_mtu>
  4046a4:	66 89 42 10          	mov    %ax,0x10(%rdx)
  4046a8:	48 8d 05 95 9b 00 00 	lea    0x9b95(%rip),%rax        # 40e244 <d_srv_dev>
  4046af:	48 89 42 18          	mov    %rax,0x18(%rdx)
  4046b3:	48 8d 05 92 9b 00 00 	lea    0x9b92(%rip),%rax        # 40e24c <d_srv_ipv4>
  4046ba:	48 89 42 20          	mov    %rax,0x20(%rdx)
  4046be:	48 8d 05 90 9b 00 00 	lea    0x9b90(%rip),%rax        # 40e255 <d_srv_ipv4_netmask>
  4046c5:	48 89 42 28          	mov    %rax,0x28(%rdx)
  4046c9:	8b 05 f1 9b 00 00    	mov    0x9bf1(%rip),%eax        # 40e2c0 <d_srv_sock_type>
  4046cf:	89 42 30             	mov    %eax,0x30(%rdx)
  4046d2:	48 8d 05 8a 9b 00 00 	lea    0x9b8a(%rip),%rax        # 40e263 <d_srv_bind_addr>
  4046d9:	48 89 42 40          	mov    %rax,0x40(%rdx)
  4046dd:	0f b7 05 88 9b 00 00 	movzwl 0x9b88(%rip),%eax        # 40e26c <d_srv_bind_port>
  4046e4:	66 89 42 48          	mov    %ax,0x48(%rdx)
  4046e8:	0f b7 05 7f 9b 00 00 	movzwl 0x9b7f(%rip),%eax        # 40e26e <d_srv_max_conn>
  4046ef:	66 89 42 4a          	mov    %ax,0x4a(%rdx)
  4046f3:	8b 05 77 9b 00 00    	mov    0x9b77(%rip),%eax        # 40e270 <d_srv_backlog>
  4046f9:	89 42 4c             	mov    %eax,0x4c(%rdx)
  4046fc:	83 c5 ff             	add    $0xffffffff,%ebp
  4046ff:	49 83 c6 08          	add    $0x8,%r14
  404703:	4c 8d 2d 86 93 00 00 	lea    0x9386(%rip),%r13        # 40da90 <long_opt>
  40470a:	4c 8d 7c 24 0c       	lea    0xc(%rsp),%r15
  40470f:	4c 8d 25 7a 50 00 00 	lea    0x507a(%rip),%r12        # 409790 <_IO_stdin_used+0x790>
  404716:	66 2e 0f 1f 84 00 00 	cs nopw 0x0(%rax,%rax,1)
  40471d:	00 00 00 
  404720:	c7 44 24 0c 00 00 00 	movl   $0x0,0xc(%rsp)
  404727:	00 
  404728:	89 ef                	mov    %ebp,%edi
  40472a:	4c 89 f6             	mov    %r14,%rsi
  40472d:	48 8d 15 3c 52 00 00 	lea    0x523c(%rip),%rdx        # 409970 <short_opt>
  404734:	4c 89 e9             	mov    %r13,%rcx
  404737:	4d 89 f8             	mov    %r15,%r8
  40473a:	e8 71 dc ff ff       	call   4023b0 <getopt_long@plt>
  40473f:	83 c0 01             	add    $0x1,%eax
  404742:	83 f8 77             	cmp    $0x77,%eax
  404745:	0f 87 c8 01 00 00    	ja     404913 <teavpn_server_argv_parse+0x2b3>
  40474b:	49 63 04 84          	movslq (%r12,%rax,4),%rax
  40474f:	4c 01 e0             	add    %r12,%rax
  404752:	ff e0                	jmp    *%rax
  404754:	48 8b 05 7d 98 00 00 	mov    0x987d(%rip),%rax        # 40dfd8 <optarg@GLIBC_2.2.5>
  40475b:	48 8b 38             	mov    (%rax),%rdi
  40475e:	be 20 00 00 00       	mov    $0x20,%esi
  404763:	e8 38 28 00 00       	call   406fa0 <trunc_str>
  404768:	48 89 43 20          	mov    %rax,0x20(%rbx)
  40476c:	eb b2                	jmp    404720 <teavpn_server_argv_parse+0xc0>
  40476e:	48 8b 05 63 98 00 00 	mov    0x9863(%rip),%rax        # 40dfd8 <optarg@GLIBC_2.2.5>
  404775:	48 8b 38             	mov    (%rax),%rdi
  404778:	be 20 00 00 00       	mov    $0x20,%esi
  40477d:	e8 1e 28 00 00       	call   406fa0 <trunc_str>
  404782:	48 89 43 18          	mov    %rax,0x18(%rbx)
  404786:	eb 98                	jmp    404720 <teavpn_server_argv_parse+0xc0>
  404788:	48 8b 05 49 98 00 00 	mov    0x9849(%rip),%rax        # 40dfd8 <optarg@GLIBC_2.2.5>
  40478f:	48 8b 38             	mov    (%rax),%rdi
  404792:	be 06 00 00 00       	mov    $0x6,%esi
  404797:	e8 04 28 00 00       	call   406fa0 <trunc_str>
  40479c:	48 89 c7             	mov    %rax,%rdi
  40479f:	31 f6                	xor    %esi,%esi
  4047a1:	ba 0a 00 00 00       	mov    $0xa,%edx
  4047a6:	e8 45 db ff ff       	call   4022f0 <strtol@plt>
  4047ab:	66 89 43 10          	mov    %ax,0x10(%rbx)
  4047af:	e9 6c ff ff ff       	jmp    404720 <teavpn_server_argv_parse+0xc0>
  4047b4:	48 8b 05 1d 98 00 00 	mov    0x981d(%rip),%rax        # 40dfd8 <optarg@GLIBC_2.2.5>
  4047bb:	48 8b 38             	mov    (%rax),%rdi
  4047be:	be ff 00 00 00       	mov    $0xff,%esi
  4047c3:	e8 d8 27 00 00       	call   406fa0 <trunc_str>
  4047c8:	48 89 43 40          	mov    %rax,0x40(%rbx)
  4047cc:	e9 4f ff ff ff       	jmp    404720 <teavpn_server_argv_parse+0xc0>
  4047d1:	48 8b 05 00 98 00 00 	mov    0x9800(%rip),%rax        # 40dfd8 <optarg@GLIBC_2.2.5>
  4047d8:	48 8b 38             	mov    (%rax),%rdi
  4047db:	be 20 00 00 00       	mov    $0x20,%esi
  4047e0:	e8 bb 27 00 00       	call   406fa0 <trunc_str>
  4047e5:	48 89 43 28          	mov    %rax,0x28(%rbx)
  4047e9:	e9 32 ff ff ff       	jmp    404720 <teavpn_server_argv_parse+0xc0>
  4047ee:	48 8b 05 e3 97 00 00 	mov    0x97e3(%rip),%rax        # 40dfd8 <optarg@GLIBC_2.2.5>
  4047f5:	48 8b 38             	mov    (%rax),%rdi
  4047f8:	be ff 00 00 00       	mov    $0xff,%esi
  4047fd:	e8 9e 27 00 00       	call   406fa0 <trunc_str>
  404802:	48 89 43 08          	mov    %rax,0x8(%rbx)
  404806:	e9 15 ff ff ff       	jmp    404720 <teavpn_server_argv_parse+0xc0>
  40480b:	48 8b 05 c6 97 00 00 	mov    0x97c6(%rip),%rax        # 40dfd8 <optarg@GLIBC_2.2.5>
  404812:	48 8b 38             	mov    (%rax),%rdi
  404815:	be ff 00 00 00       	mov    $0xff,%esi
  40481a:	e8 81 27 00 00       	call   406fa0 <trunc_str>
  40481f:	48 89 03             	mov    %rax,(%rbx)
  404822:	e9 f9 fe ff ff       	jmp    404720 <teavpn_server_argv_parse+0xc0>
  404827:	48 8b 05 aa 97 00 00 	mov    0x97aa(%rip),%rax        # 40dfd8 <optarg@GLIBC_2.2.5>
  40482e:	48 8b 38             	mov    (%rax),%rdi
  404831:	be 06 00 00 00       	mov    $0x6,%esi
  404836:	e8 65 27 00 00       	call   406fa0 <trunc_str>
  40483b:	48 89 c7             	mov    %rax,%rdi
  40483e:	31 f6                	xor    %esi,%esi
  404840:	ba 0a 00 00 00       	mov    $0xa,%edx
  404845:	e8 a6 da ff ff       	call   4022f0 <strtol@plt>
  40484a:	89 43 4c             	mov    %eax,0x4c(%rbx)
  40484d:	e9 ce fe ff ff       	jmp    404720 <teavpn_server_argv_parse+0xc0>
  404852:	48 8b 05 7f 97 00 00 	mov    0x977f(%rip),%rax        # 40dfd8 <optarg@GLIBC_2.2.5>
  404859:	48 8b 38             	mov    (%rax),%rdi
  40485c:	be 06 00 00 00       	mov    $0x6,%esi
  404861:	e8 3a 27 00 00       	call   406fa0 <trunc_str>
  404866:	48 89 c7             	mov    %rax,%rdi
  404869:	31 f6                	xor    %esi,%esi
  40486b:	ba 0a 00 00 00       	mov    $0xa,%edx
  404870:	e8 7b da ff ff       	call   4022f0 <strtol@plt>
  404875:	66 89 43 4a          	mov    %ax,0x4a(%rbx)
  404879:	e9 a2 fe ff ff       	jmp    404720 <teavpn_server_argv_parse+0xc0>
  40487e:	c7 44 24 08 00 00 00 	movl   $0x0,0x8(%rsp)
  404885:	00 
  404886:	48 8b 05 4b 97 00 00 	mov    0x974b(%rip),%rax        # 40dfd8 <optarg@GLIBC_2.2.5>
  40488d:	48 8b 30             	mov    (%rax),%rsi
  404890:	ba 03 00 00 00       	mov    $0x3,%edx
  404895:	48 8d 7c 24 08       	lea    0x8(%rsp),%rdi
  40489a:	e8 71 d8 ff ff       	call   402110 <strncpy@plt>
  40489f:	81 4c 24 08 20 20 20 	orl    $0x20202020,0x8(%rsp)
  4048a6:	20 
  4048a7:	c6 44 24 0b 00       	movb   $0x0,0xb(%rsp)
  4048ac:	31 c0                	xor    %eax,%eax
  4048ae:	8b 4c 24 08          	mov    0x8(%rsp),%ecx
  4048b2:	81 f9 74 63 70 00    	cmp    $0x706374,%ecx
  4048b8:	74 0d                	je     4048c7 <teavpn_server_argv_parse+0x267>
  4048ba:	81 f9 75 64 70 00    	cmp    $0x706475,%ecx
  4048c0:	75 39                	jne    4048fb <teavpn_server_argv_parse+0x29b>
  4048c2:	b8 01 00 00 00       	mov    $0x1,%eax
  4048c7:	89 43 30             	mov    %eax,0x30(%rbx)
  4048ca:	e9 51 fe ff ff       	jmp    404720 <teavpn_server_argv_parse+0xc0>
  4048cf:	48 8b 05 02 97 00 00 	mov    0x9702(%rip),%rax        # 40dfd8 <optarg@GLIBC_2.2.5>
  4048d6:	48 8b 38             	mov    (%rax),%rdi
  4048d9:	be 06 00 00 00       	mov    $0x6,%esi
  4048de:	e8 bd 26 00 00       	call   406fa0 <trunc_str>
  4048e3:	48 89 c7             	mov    %rax,%rdi
  4048e6:	31 f6                	xor    %esi,%esi
  4048e8:	ba 0a 00 00 00       	mov    $0xa,%edx
  4048ed:	e8 fe d9 ff ff       	call   4022f0 <strtol@plt>
  4048f2:	66 89 43 48          	mov    %ax,0x48(%rbx)
  4048f6:	e9 25 fe ff ff       	jmp    404720 <teavpn_server_argv_parse+0xc0>
  4048fb:	48 8b 05 d6 96 00 00 	mov    0x96d6(%rip),%rax        # 40dfd8 <optarg@GLIBC_2.2.5>
  404902:	48 8b 30             	mov    (%rax),%rsi
  404905:	48 8d 3d 7d 50 00 00 	lea    0x507d(%rip),%rdi        # 409989 <short_opt+0x19>
  40490c:	31 c0                	xor    %eax,%eax
  40490e:	e8 9d 34 00 00       	call   407db0 <__pr_error>
  404913:	b8 ff ff ff ff       	mov    $0xffffffff,%eax
  404918:	64 48 8b 0c 25 28 00 	mov    %fs:0x28,%rcx
  40491f:	00 00 
  404921:	48 3b 4c 24 10       	cmp    0x10(%rsp),%rcx
  404926:	75 21                	jne    404949 <teavpn_server_argv_parse+0x2e9>
  404928:	48 83 c4 18          	add    $0x18,%rsp
  40492c:	5b                   	pop    %rbx
  40492d:	41 5c                	pop    %r12
  40492f:	41 5d                	pop    %r13
  404931:	41 5e                	pop    %r14
  404933:	41 5f                	pop    %r15
  404935:	5d                   	pop    %rbp
  404936:	c3                   	ret    
  404937:	31 c0                	xor    %eax,%eax
  404939:	64 48 8b 0c 25 28 00 	mov    %fs:0x28,%rcx
  404940:	00 00 
  404942:	48 3b 4c 24 10       	cmp    0x10(%rsp),%rcx
  404947:	74 df                	je     404928 <teavpn_server_argv_parse+0x2c8>
  404949:	e8 f2 d8 ff ff       	call   402240 <__stack_chk_fail@plt>
  40494e:	e8 4d 34 00 00       	call   407da0 <teavpn_print_version>
  404953:	31 ff                	xor    %edi,%edi
  404955:	e8 36 d9 ff ff       	call   402290 <exit@plt>
  40495a:	48 8b 3c 24          	mov    (%rsp),%rdi
  40495e:	e8 6d 09 00 00       	call   4052d0 <teavpn_server_show_help>
  404963:	31 ff                	xor    %edi,%edi
  404965:	e8 26 d9 ff ff       	call   402290 <exit@plt>
  40496a:	66 0f 1f 44 00 00    	nopw   0x0(%rax,%rax,1)

0000000000404970 <teavpn_server_auth>:
  404970:	55                   	push   %rbp
  404971:	41 57                	push   %r15
  404973:	41 56                	push   %r14
  404975:	41 55                	push   %r13
  404977:	41 54                	push   %r12
  404979:	53                   	push   %rbx
  40497a:	48 81 ec 98 04 00 00 	sub    $0x498,%rsp
  404981:	49 89 ce             	mov    %rcx,%r14
  404984:	48 89 d3             	mov    %rdx,%rbx
  404987:	49 89 f7             	mov    %rsi,%r15
  40498a:	64 48 8b 04 25 28 00 	mov    %fs:0x28,%rax
  404991:	00 00 
  404993:	48 89 84 24 90 04 00 	mov    %rax,0x490(%rsp)
  40499a:	00 
  40499b:	4c 8b 67 08          	mov    0x8(%rdi),%r12
  40499f:	48 8d 7c 24 08       	lea    0x8(%rsp),%rdi
  4049a4:	31 ed                	xor    %ebp,%ebp
  4049a6:	ba 88 04 00 00       	mov    $0x488,%edx
  4049ab:	31 f6                	xor    %esi,%esi
  4049ad:	e8 6e d7 ff ff       	call   402120 <memset@plt>
  4049b2:	48 b8 03 00 00 00 00 	movabs $0x4000000000003,%rax
  4049b9:	00 04 00 
  4049bc:	eb 0c                	jmp    4049ca <teavpn_server_auth+0x5a>
  4049be:	66 90                	xchg   %ax,%ax
  4049c0:	48 83 c5 02          	add    $0x2,%rbp
  4049c4:	66 83 fd 40          	cmp    $0x40,%bp
  4049c8:	74 63                	je     404a2d <teavpn_server_auth+0xbd>
  4049ca:	0f b6 0c 2b          	movzbl (%rbx,%rbp,1),%ecx
  4049ce:	84 c9                	test   %cl,%cl
  4049d0:	0f 84 8a 00 00 00    	je     404a60 <teavpn_server_auth+0xf0>
  4049d6:	8d 51 d0             	lea    -0x30(%rcx),%edx
  4049d9:	80 fa 0a             	cmp    $0xa,%dl
  4049dc:	72 0d                	jb     4049eb <teavpn_server_auth+0x7b>
  4049de:	89 ca                	mov    %ecx,%edx
  4049e0:	80 e2 df             	and    $0xdf,%dl
  4049e3:	80 c2 bf             	add    $0xbf,%dl
  4049e6:	80 fa 1a             	cmp    $0x1a,%dl
  4049e9:	73 31                	jae    404a1c <teavpn_server_auth+0xac>
  4049eb:	0f b6 4c 2b 01       	movzbl 0x1(%rbx,%rbp,1),%ecx
  4049f0:	84 c9                	test   %cl,%cl
  4049f2:	74 6c                	je     404a60 <teavpn_server_auth+0xf0>
  4049f4:	8d 51 d0             	lea    -0x30(%rcx),%edx
  4049f7:	80 fa 0a             	cmp    $0xa,%dl
  4049fa:	72 c4                	jb     4049c0 <teavpn_server_auth+0x50>
  4049fc:	89 ca                	mov    %ecx,%edx
  4049fe:	80 e2 df             	and    $0xdf,%dl
  404a01:	80 c2 bf             	add    $0xbf,%dl
  404a04:	80 fa 1a             	cmp    $0x1a,%dl
  404a07:	72 b7                	jb     4049c0 <teavpn_server_auth+0x50>
  404a09:	80 c1 d3             	add    $0xd3,%cl
  404a0c:	80 f9 32             	cmp    $0x32,%cl
  404a0f:	77 1c                	ja     404a2d <teavpn_server_auth+0xbd>
  404a11:	0f b6 c9             	movzbl %cl,%ecx
  404a14:	48 0f a3 c8          	bt     %rcx,%rax
  404a18:	72 a6                	jb     4049c0 <teavpn_server_auth+0x50>
  404a1a:	eb 11                	jmp    404a2d <teavpn_server_auth+0xbd>
  404a1c:	80 c1 d3             	add    $0xd3,%cl
  404a1f:	80 f9 32             	cmp    $0x32,%cl
  404a22:	77 09                	ja     404a2d <teavpn_server_auth+0xbd>
  404a24:	0f b6 c9             	movzbl %cl,%ecx
  404a27:	48 0f a3 c8          	bt     %rcx,%rax
  404a2b:	72 be                	jb     4049eb <teavpn_server_auth+0x7b>
  404a2d:	c6 43 3f 00          	movb   $0x0,0x3f(%rbx)
  404a31:	48 8d 3d c8 4f 00 00 	lea    0x4fc8(%rip),%rdi        # 409a00 <short_opt+0x90>
  404a38:	31 ed                	xor    %ebp,%ebp
  404a3a:	48 89 de             	mov    %rbx,%rsi
  404a3d:	31 c0                	xor    %eax,%eax
  404a3f:	e8 1c 38 00 00       	call   408260 <__pr_notice>
  404a44:	64 48 8b 04 25 28 00 	mov    %fs:0x28,%rax
  404a4b:	00 00 
  404a4d:	48 3b 84 24 90 04 00 	cmp    0x490(%rsp),%rax
  404a54:	00 
  404a55:	0f 84 af 00 00 00    	je     404b0a <teavpn_server_auth+0x19a>
  404a5b:	e9 f7 00 00 00       	jmp    404b57 <teavpn_server_auth+0x1e7>
  404a60:	4c 8d 6c 24 10       	lea    0x10(%rsp),%r13
  404a65:	48 8d 15 ab 4f 00 00 	lea    0x4fab(%rip),%rdx        # 409a17 <short_opt+0xa7>
  404a6c:	be ff 03 00 00       	mov    $0x3ff,%esi
  404a71:	4c 89 ef             	mov    %r13,%rdi
  404a74:	4c 89 e1             	mov    %r12,%rcx
  404a77:	49 89 d8             	mov    %rbx,%r8
  404a7a:	31 c0                	xor    %eax,%eax
  404a7c:	e8 0f d9 ff ff       	call   402390 <snprintf@plt>
  404a81:	48 8d 35 5b 4f 00 00 	lea    0x4f5b(%rip),%rsi        # 4099e3 <short_opt+0x73>
  404a88:	4c 89 ef             	mov    %r13,%rdi
  404a8b:	e8 d0 d7 ff ff       	call   402260 <fopen@plt>
  404a90:	48 85 c0             	test   %rax,%rax
  404a93:	0f 84 85 00 00 00    	je     404b1e <teavpn_server_auth+0x1ae>
  404a99:	49 89 c4             	mov    %rax,%r12
  404a9c:	4c 89 7c 24 08       	mov    %r15,0x8(%rsp)
  404aa1:	48 8d 35 e8 00 00 00 	lea    0xe8(%rip),%rsi        # 404b90 <auth_parser_handler>
  404aa8:	48 8d 54 24 08       	lea    0x8(%rsp),%rdx
  404aad:	48 89 c7             	mov    %rax,%rdi
  404ab0:	e8 eb e3 ff ff       	call   402ea0 <ini_parse_file>
  404ab5:	85 c0                	test   %eax,%eax
  404ab7:	0f 88 9f 00 00 00    	js     404b5c <teavpn_server_auth+0x1ec>
  404abd:	48 8d bc 24 50 04 00 	lea    0x450(%rsp),%rdi
  404ac4:	00 
  404ac5:	ba 40 00 00 00       	mov    $0x40,%edx
  404aca:	4c 89 f6             	mov    %r14,%rsi
  404acd:	e8 0e d6 ff ff       	call   4020e0 <strncmp@plt>
  404ad2:	40 b5 01             	mov    $0x1,%bpl
  404ad5:	85 c0                	test   %eax,%eax
  404ad7:	0f 85 8d 00 00 00    	jne    404b6a <teavpn_server_auth+0x1fa>
  404add:	48 8d bc 24 50 04 00 	lea    0x450(%rsp),%rdi
  404ae4:	00 
  404ae5:	be 40 00 00 00       	mov    $0x40,%esi
  404aea:	e8 e1 24 00 00       	call   406fd0 <memzero_explicit>
  404aef:	4c 89 e7             	mov    %r12,%rdi
  404af2:	e8 e9 d6 ff ff       	call   4021e0 <fclose@plt>
  404af7:	64 48 8b 04 25 28 00 	mov    %fs:0x28,%rax
  404afe:	00 00 
  404b00:	48 3b 84 24 90 04 00 	cmp    0x490(%rsp),%rax
  404b07:	00 
  404b08:	75 4d                	jne    404b57 <teavpn_server_auth+0x1e7>
  404b0a:	89 e8                	mov    %ebp,%eax
  404b0c:	48 81 c4 98 04 00 00 	add    $0x498,%rsp
  404b13:	5b                   	pop    %rbx
  404b14:	41 5c                	pop    %r12
  404b16:	41 5d                	pop    %r13
  404b18:	41 5e                	pop    %r14
  404b1a:	41 5f                	pop    %r15
  404b1c:	5d                   	pop    %rbp
  404b1d:	c3                   	ret    
  404b1e:	e8 0d d5 ff ff       	call   402030 <__errno_location@plt>
  404b23:	8b 18                	mov    (%rax),%ebx
  404b25:	89 df                	mov    %ebx,%edi
  404b27:	e8 84 d5 ff ff       	call   4020b0 <strerror@plt>
  404b2c:	48 8d 3d f4 4e 00 00 	lea    0x4ef4(%rip),%rdi        # 409a27 <short_opt+0xb7>
  404b33:	31 ed                	xor    %ebp,%ebp
  404b35:	89 de                	mov    %ebx,%esi
  404b37:	48 89 c2             	mov    %rax,%rdx
  404b3a:	4c 89 e9             	mov    %r13,%rcx
  404b3d:	31 c0                	xor    %eax,%eax
  404b3f:	e8 1c 37 00 00       	call   408260 <__pr_notice>
  404b44:	64 48 8b 04 25 28 00 	mov    %fs:0x28,%rax
  404b4b:	00 00 
  404b4d:	48 3b 84 24 90 04 00 	cmp    0x490(%rsp),%rax
  404b54:	00 
  404b55:	74 b3                	je     404b0a <teavpn_server_auth+0x19a>
  404b57:	e8 e4 d6 ff ff       	call   402240 <__stack_chk_fail@plt>
  404b5c:	48 8d 3d e8 4e 00 00 	lea    0x4ee8(%rip),%rdi        # 409a4b <short_opt+0xdb>
  404b63:	31 ed                	xor    %ebp,%ebp
  404b65:	4c 89 ee             	mov    %r13,%rsi
  404b68:	eb 0c                	jmp    404b76 <teavpn_server_auth+0x206>
  404b6a:	48 8d 3d f1 4e 00 00 	lea    0x4ef1(%rip),%rdi        # 409a62 <short_opt+0xf2>
  404b71:	31 ed                	xor    %ebp,%ebp
  404b73:	48 89 de             	mov    %rbx,%rsi
  404b76:	31 c0                	xor    %eax,%eax
  404b78:	e8 e3 36 00 00       	call   408260 <__pr_notice>
  404b7d:	e9 5b ff ff ff       	jmp    404add <teavpn_server_auth+0x16d>
  404b82:	66 2e 0f 1f 84 00 00 	cs nopw 0x0(%rax,%rax,1)
  404b89:	00 00 00 
  404b8c:	0f 1f 40 00          	nopl   0x0(%rax)

0000000000404b90 <auth_parser_handler>:
  404b90:	55                   	push   %rbp
  404b91:	41 57                	push   %r15
  404b93:	41 56                	push   %r14
  404b95:	41 55                	push   %r13
  404b97:	41 54                	push   %r12
  404b99:	53                   	push   %rbx
  404b9a:	50                   	push   %rax
  404b9b:	45 89 c7             	mov    %r8d,%r15d
  404b9e:	49 89 ce             	mov    %rcx,%r14
  404ba1:	49 89 d4             	mov    %rdx,%r12
  404ba4:	48 89 f5             	mov    %rsi,%rbp
  404ba7:	48 89 fb             	mov    %rdi,%rbx
  404baa:	4c 8b 2f             	mov    (%rdi),%r13
  404bad:	48 8d 35 cd 4e 00 00 	lea    0x4ecd(%rip),%rsi        # 409a81 <short_opt+0x111>
  404bb4:	48 89 ef             	mov    %rbp,%rdi
  404bb7:	e8 24 d7 ff ff       	call   4022e0 <strcmp@plt>
  404bbc:	85 c0                	test   %eax,%eax
  404bbe:	74 43                	je     404c03 <auth_parser_handler+0x73>
  404bc0:	48 8d 35 d1 4e 00 00 	lea    0x4ed1(%rip),%rsi        # 409a98 <short_opt+0x128>
  404bc7:	48 89 ef             	mov    %rbp,%rdi
  404bca:	e8 11 d7 ff ff       	call   4022e0 <strcmp@plt>
  404bcf:	85 c0                	test   %eax,%eax
  404bd1:	0f 84 90 00 00 00    	je     404c67 <auth_parser_handler+0xd7>
  404bd7:	48 8d 3d cd 4e 00 00 	lea    0x4ecd(%rip),%rdi        # 409aab <short_opt+0x13b>
  404bde:	48 89 ee             	mov    %rbp,%rsi
  404be1:	44 89 fa             	mov    %r15d,%edx
  404be4:	31 c0                	xor    %eax,%eax
  404be6:	e8 c5 31 00 00       	call   407db0 <__pr_error>
  404beb:	c6 83 07 04 00 00 00 	movb   $0x0,0x407(%rbx)
  404bf2:	31 c0                	xor    %eax,%eax
  404bf4:	48 83 c4 08          	add    $0x8,%rsp
  404bf8:	5b                   	pop    %rbx
  404bf9:	41 5c                	pop    %r12
  404bfb:	41 5d                	pop    %r13
  404bfd:	41 5e                	pop    %r14
  404bff:	41 5f                	pop    %r15
  404c01:	5d                   	pop    %rbp
  404c02:	c3                   	ret    
  404c03:	48 8d 35 7c 4e 00 00 	lea    0x4e7c(%rip),%rsi        # 409a86 <short_opt+0x116>
  404c0a:	4c 89 e7             	mov    %r12,%rdi
  404c0d:	e8 ce d6 ff ff       	call   4022e0 <strcmp@plt>
  404c12:	85 c0                	test   %eax,%eax
  404c14:	0f 84 a6 00 00 00    	je     404cc0 <auth_parser_handler+0x130>
  404c1a:	48 8d 35 6e 4e 00 00 	lea    0x4e6e(%rip),%rsi        # 409a8f <short_opt+0x11f>
  404c21:	4c 89 e7             	mov    %r12,%rdi
  404c24:	e8 b7 d6 ff ff       	call   4022e0 <strcmp@plt>
  404c29:	85 c0                	test   %eax,%eax
  404c2b:	75 73                	jne    404ca0 <auth_parser_handler+0x110>
  404c2d:	48 8d bb 48 04 00 00 	lea    0x448(%rbx),%rdi
  404c34:	ba 3f 00 00 00       	mov    $0x3f,%edx
  404c39:	4c 89 f6             	mov    %r14,%rsi
  404c3c:	e8 cf d4 ff ff       	call   402110 <strncpy@plt>
  404c41:	c6 83 87 04 00 00 00 	movb   $0x0,0x487(%rbx)
  404c48:	be 40 00 00 00       	mov    $0x40,%esi
  404c4d:	4c 89 f7             	mov    %r14,%rdi
  404c50:	e8 2b d7 ff ff       	call   402380 <strnlen@plt>
  404c55:	4c 89 f7             	mov    %r14,%rdi
  404c58:	48 89 c6             	mov    %rax,%rsi
  404c5b:	e8 70 23 00 00       	call   406fd0 <memzero_explicit>
  404c60:	b8 01 00 00 00       	mov    $0x1,%eax
  404c65:	eb 8d                	jmp    404bf4 <auth_parser_handler+0x64>
  404c67:	48 8d 35 51 4d 00 00 	lea    0x4d51(%rip),%rsi        # 4099bf <short_opt+0x4f>
  404c6e:	4c 89 e7             	mov    %r12,%rdi
  404c71:	e8 6a d6 ff ff       	call   4022e0 <strcmp@plt>
  404c76:	85 c0                	test   %eax,%eax
  404c78:	74 6b                	je     404ce5 <auth_parser_handler+0x155>
  404c7a:	48 8d 35 1d 4e 00 00 	lea    0x4e1d(%rip),%rsi        # 409a9e <short_opt+0x12e>
  404c81:	4c 89 e7             	mov    %r12,%rdi
  404c84:	e8 57 d6 ff ff       	call   4022e0 <strcmp@plt>
  404c89:	85 c0                	test   %eax,%eax
  404c8b:	74 5e                	je     404ceb <auth_parser_handler+0x15b>
  404c8d:	48 8d 35 23 4d 00 00 	lea    0x4d23(%rip),%rsi        # 4099b7 <short_opt+0x47>
  404c94:	4c 89 e7             	mov    %r12,%rdi
  404c97:	e8 44 d6 ff ff       	call   4022e0 <strcmp@plt>
  404c9c:	85 c0                	test   %eax,%eax
  404c9e:	74 69                	je     404d09 <auth_parser_handler+0x179>
  404ca0:	4c 8d 43 08          	lea    0x8(%rbx),%r8
  404ca4:	48 8d 3d 20 4e 00 00 	lea    0x4e20(%rip),%rdi        # 409acb <short_opt+0x15b>
  404cab:	4c 89 e6             	mov    %r12,%rsi
  404cae:	48 89 ea             	mov    %rbp,%rdx
  404cb1:	44 89 f9             	mov    %r15d,%ecx
  404cb4:	31 c0                	xor    %eax,%eax
  404cb6:	e8 f5 30 00 00       	call   407db0 <__pr_error>
  404cbb:	e9 2b ff ff ff       	jmp    404beb <auth_parser_handler+0x5b>
  404cc0:	48 8d bb 08 04 00 00 	lea    0x408(%rbx),%rdi
  404cc7:	ba 3f 00 00 00       	mov    $0x3f,%edx
  404ccc:	4c 89 f6             	mov    %r14,%rsi
  404ccf:	e8 3c d4 ff ff       	call   402110 <strncpy@plt>
  404cd4:	c6 83 47 04 00 00 00 	movb   $0x0,0x447(%rbx)
  404cdb:	b8 01 00 00 00       	mov    $0x1,%eax
  404ce0:	e9 0f ff ff ff       	jmp    404bf4 <auth_parser_handler+0x64>
  404ce5:	49 83 c5 20          	add    $0x20,%r13
  404ce9:	eb 04                	jmp    404cef <auth_parser_handler+0x15f>
  404ceb:	49 83 c5 30          	add    $0x30,%r13
  404cef:	ba 0f 00 00 00       	mov    $0xf,%edx
  404cf4:	4c 89 ef             	mov    %r13,%rdi
  404cf7:	4c 89 f6             	mov    %r14,%rsi
  404cfa:	e8 11 d4 ff ff       	call   402110 <strncpy@plt>
  404cff:	b8 01 00 00 00       	mov    $0x1,%eax
  404d04:	e9 eb fe ff ff       	jmp    404bf4 <auth_parser_handler+0x64>
  404d09:	4c 89 f7             	mov    %r14,%rdi
  404d0c:	31 f6                	xor    %esi,%esi
  404d0e:	ba 0a 00 00 00       	mov    $0xa,%edx
  404d13:	e8 d8 d5 ff ff       	call   4022f0 <strtol@plt>
  404d18:	66 41 89 45 50       	mov    %ax,0x50(%r13)
  404d1d:	b8 01 00 00 00       	mov    $0x1,%eax
  404d22:	e9 cd fe ff ff       	jmp    404bf4 <auth_parser_handler+0x64>
  404d27:	66 0f 1f 84 00 00 00 	nopw   0x0(%rax,%rax,1)
  404d2e:	00 00 

0000000000404d30 <teavpn_server_cfg_parse>:
  404d30:	55                   	push   %rbp
  404d31:	41 56                	push   %r14
  404d33:	53                   	push   %rbx
  404d34:	48 83 ec 20          	sub    $0x20,%rsp
  404d38:	64 48 8b 04 25 28 00 	mov    %fs:0x28,%rax
  404d3f:	00 00 
  404d41:	48 89 44 24 18       	mov    %rax,0x18(%rsp)
  404d46:	48 8b 1f             	mov    (%rdi),%rbx
  404d49:	c6 44 24 08 01       	movb   $0x1,0x8(%rsp)
  404d4e:	48 89 7c 24 10       	mov    %rdi,0x10(%rsp)
  404d53:	31 ed                	xor    %ebp,%ebp
  404d55:	48 85 db             	test   %rbx,%rbx
  404d58:	0f 84 a1 00 00 00    	je     404dff <teavpn_server_cfg_parse+0xcf>
  404d5e:	80 3b 00             	cmpb   $0x0,(%rbx)
  404d61:	0f 84 98 00 00 00    	je     404dff <teavpn_server_cfg_parse+0xcf>
  404d67:	48 8d 35 75 4c 00 00 	lea    0x4c75(%rip),%rsi        # 4099e3 <short_opt+0x73>
  404d6e:	48 89 df             	mov    %rbx,%rdi
  404d71:	e8 ea d4 ff ff       	call   402260 <fopen@plt>
  404d76:	48 85 c0             	test   %rax,%rax
  404d79:	74 3c                	je     404db7 <teavpn_server_cfg_parse+0x87>
  404d7b:	49 89 c6             	mov    %rax,%r14
  404d7e:	48 8d 35 9b 00 00 00 	lea    0x9b(%rip),%rsi        # 404e20 <parser_handler>
  404d85:	48 8d 54 24 08       	lea    0x8(%rsp),%rdx
  404d8a:	48 89 c7             	mov    %rax,%rdi
  404d8d:	e8 0e e1 ff ff       	call   402ea0 <ini_parse_file>
  404d92:	85 c0                	test   %eax,%eax
  404d94:	78 5c                	js     404df2 <teavpn_server_cfg_parse+0xc2>
  404d96:	31 ed                	xor    %ebp,%ebp
  404d98:	80 7c 24 08 00       	cmpb   $0x0,0x8(%rsp)
  404d9d:	75 58                	jne    404df7 <teavpn_server_cfg_parse+0xc7>
  404d9f:	48 8d 3d 7d 4d 00 00 	lea    0x4d7d(%rip),%rdi        # 409b23 <short_opt+0x1b3>
  404da6:	48 89 de             	mov    %rbx,%rsi
  404da9:	31 c0                	xor    %eax,%eax
  404dab:	e8 00 30 00 00       	call   407db0 <__pr_error>
  404db0:	bd ea ff ff ff       	mov    $0xffffffea,%ebp
  404db5:	eb 40                	jmp    404df7 <teavpn_server_cfg_parse+0xc7>
  404db7:	48 8d 35 72 94 00 00 	lea    0x9472(%rip),%rsi        # 40e230 <d_srv_cfg_file>
  404dbe:	48 89 df             	mov    %rbx,%rdi
  404dc1:	e8 1a d5 ff ff       	call   4022e0 <strcmp@plt>
  404dc6:	85 c0                	test   %eax,%eax
  404dc8:	74 35                	je     404dff <teavpn_server_cfg_parse+0xcf>
  404dca:	e8 61 d2 ff ff       	call   402030 <__errno_location@plt>
  404dcf:	8b 28                	mov    (%rax),%ebp
  404dd1:	89 ef                	mov    %ebp,%edi
  404dd3:	e8 d8 d2 ff ff       	call   4020b0 <strerror@plt>
  404dd8:	48 8d 3d 1f 4d 00 00 	lea    0x4d1f(%rip),%rdi        # 409afe <short_opt+0x18e>
  404ddf:	48 89 de             	mov    %rbx,%rsi
  404de2:	89 ea                	mov    %ebp,%edx
  404de4:	48 89 c1             	mov    %rax,%rcx
  404de7:	31 c0                	xor    %eax,%eax
  404de9:	e8 c2 2f 00 00       	call   407db0 <__pr_error>
  404dee:	f7 dd                	neg    %ebp
  404df0:	eb 0d                	jmp    404dff <teavpn_server_cfg_parse+0xcf>
  404df2:	bd ff ff ff ff       	mov    $0xffffffff,%ebp
  404df7:	4c 89 f7             	mov    %r14,%rdi
  404dfa:	e8 e1 d3 ff ff       	call   4021e0 <fclose@plt>
  404dff:	64 48 8b 04 25 28 00 	mov    %fs:0x28,%rax
  404e06:	00 00 
  404e08:	48 3b 44 24 18       	cmp    0x18(%rsp),%rax
  404e0d:	75 0b                	jne    404e1a <teavpn_server_cfg_parse+0xea>
  404e0f:	89 e8                	mov    %ebp,%eax
  404e11:	48 83 c4 20          	add    $0x20,%rsp
  404e15:	5b                   	pop    %rbx
  404e16:	41 5e                	pop    %r14
  404e18:	5d                   	pop    %rbp
  404e19:	c3                   	ret    
  404e1a:	e8 21 d4 ff ff       	call   402240 <__stack_chk_fail@plt>
  404e1f:	90                   	nop

0000000000404e20 <parser_handler>:
  404e20:	55                   	push   %rbp
  404e21:	41 57                	push   %r15
  404e23:	41 56                	push   %r14
  404e25:	41 55                	push   %r13
  404e27:	41 54                	push   %r12
  404e29:	53                   	push   %rbx
  404e2a:	48 83 ec 18          	sub    $0x18,%rsp
  404e2e:	45 89 c7             	mov    %r8d,%r15d
  404e31:	49 89 ce             	mov    %rcx,%r14
  404e34:	49 89 d4             	mov    %rdx,%r12
  404e37:	48 89 f5             	mov    %rsi,%rbp
  404e3a:	48 89 fb             	mov    %rdi,%rbx
  404e3d:	64 48 8b 04 25 28 00 	mov    %fs:0x28,%rax
  404e44:	00 00 
  404e46:	48 89 44 24 10       	mov    %rax,0x10(%rsp)
  404e4b:	4c 8b 6f 08          	mov    0x8(%rdi),%r13
  404e4f:	48 8d 35 ed 4c 00 00 	lea    0x4ced(%rip),%rsi        # 409b43 <short_opt+0x1d3>
  404e56:	48 89 ef             	mov    %rbp,%rdi
  404e59:	e8 82 d4 ff ff       	call   4022e0 <strcmp@plt>
  404e5e:	85 c0                	test   %eax,%eax
  404e60:	74 6a                	je     404ecc <parser_handler+0xac>
  404e62:	48 8d 35 f7 4c 00 00 	lea    0x4cf7(%rip),%rsi        # 409b60 <short_opt+0x1f0>
  404e69:	48 89 ef             	mov    %rbp,%rdi
  404e6c:	e8 6f d4 ff ff       	call   4022e0 <strcmp@plt>
  404e71:	85 c0                	test   %eax,%eax
  404e73:	0f 84 a0 00 00 00    	je     404f19 <parser_handler+0xf9>
  404e79:	48 8d 35 18 4c 00 00 	lea    0x4c18(%rip),%rsi        # 409a98 <short_opt+0x128>
  404e80:	48 89 ef             	mov    %rbp,%rdi
  404e83:	e8 58 d4 ff ff       	call   4022e0 <strcmp@plt>
  404e88:	85 c0                	test   %eax,%eax
  404e8a:	0f 84 2a 01 00 00    	je     404fba <parser_handler+0x19a>
  404e90:	48 8d 3d 14 4c 00 00 	lea    0x4c14(%rip),%rdi        # 409aab <short_opt+0x13b>
  404e97:	48 89 ee             	mov    %rbp,%rsi
  404e9a:	44 89 fa             	mov    %r15d,%edx
  404e9d:	31 c0                	xor    %eax,%eax
  404e9f:	e8 0c 2f 00 00       	call   407db0 <__pr_error>
  404ea4:	c6 03 00             	movb   $0x0,(%rbx)
  404ea7:	31 c0                	xor    %eax,%eax
  404ea9:	64 48 8b 0c 25 28 00 	mov    %fs:0x28,%rcx
  404eb0:	00 00 
  404eb2:	48 3b 4c 24 10       	cmp    0x10(%rsp),%rcx
  404eb7:	0f 85 18 03 00 00    	jne    4051d5 <parser_handler+0x3b5>
  404ebd:	48 83 c4 18          	add    $0x18,%rsp
  404ec1:	5b                   	pop    %rbx
  404ec2:	41 5c                	pop    %r12
  404ec4:	41 5d                	pop    %r13
  404ec6:	41 5e                	pop    %r14
  404ec8:	41 5f                	pop    %r15
  404eca:	5d                   	pop    %rbp
  404ecb:	c3                   	ret    
  404ecc:	48 8d 35 76 4c 00 00 	lea    0x4c76(%rip),%rsi        # 409b49 <short_opt+0x1d9>
  404ed3:	4c 89 e7             	mov    %r12,%rdi
  404ed6:	e8 05 d4 ff ff       	call   4022e0 <strcmp@plt>
  404edb:	85 c0                	test   %eax,%eax
  404edd:	0f 84 4f 01 00 00    	je     405032 <parser_handler+0x212>
  404ee3:	48 8d 35 68 4c 00 00 	lea    0x4c68(%rip),%rsi        # 409b52 <short_opt+0x1e2>
  404eea:	4c 89 e7             	mov    %r12,%rdi
  404eed:	e8 ee d3 ff ff       	call   4022e0 <strcmp@plt>
  404ef2:	85 c0                	test   %eax,%eax
  404ef4:	0f 85 1c 01 00 00    	jne    405016 <parser_handler+0x1f6>
  404efa:	4c 89 f7             	mov    %r14,%rdi
  404efd:	31 f6                	xor    %esi,%esi
  404eff:	ba 0a 00 00 00       	mov    $0xa,%edx
  404f04:	e8 e7 d3 ff ff       	call   4022f0 <strtol@plt>
  404f09:	48 8d 0d 98 93 00 00 	lea    0x9398(%rip),%rcx        # 40e2a8 <__notice_level>
  404f10:	88 01                	mov    %al,(%rcx)
  404f12:	b8 01 00 00 00       	mov    $0x1,%eax
  404f17:	eb 90                	jmp    404ea9 <parser_handler+0x89>
  404f19:	48 8d 35 47 4c 00 00 	lea    0x4c47(%rip),%rsi        # 409b67 <short_opt+0x1f7>
  404f20:	4c 89 e7             	mov    %r12,%rdi
  404f23:	e8 b8 d3 ff ff       	call   4022e0 <strcmp@plt>
  404f28:	85 c0                	test   %eax,%eax
  404f2a:	0f 84 1d 01 00 00    	je     40504d <parser_handler+0x22d>
  404f30:	48 8d 35 3a 4c 00 00 	lea    0x4c3a(%rip),%rsi        # 409b71 <short_opt+0x201>
  404f37:	4c 89 e7             	mov    %r12,%rdi
  404f3a:	e8 a1 d3 ff ff       	call   4022e0 <strcmp@plt>
  404f3f:	85 c0                	test   %eax,%eax
  404f41:	0f 84 51 01 00 00    	je     405098 <parser_handler+0x278>
  404f47:	48 8d 35 2d 4c 00 00 	lea    0x4c2d(%rip),%rsi        # 409b7b <short_opt+0x20b>
  404f4e:	4c 89 e7             	mov    %r12,%rdi
  404f51:	e8 8a d3 ff ff       	call   4022e0 <strcmp@plt>
  404f56:	85 c0                	test   %eax,%eax
  404f58:	0f 84 70 01 00 00    	je     4050ce <parser_handler+0x2ae>
  404f5e:	48 8d 35 20 4c 00 00 	lea    0x4c20(%rip),%rsi        # 409b85 <short_opt+0x215>
  404f65:	4c 89 e7             	mov    %r12,%rdi
  404f68:	e8 73 d3 ff ff       	call   4022e0 <strcmp@plt>
  404f6d:	85 c0                	test   %eax,%eax
  404f6f:	0f 84 af 01 00 00    	je     405124 <parser_handler+0x304>
  404f75:	48 8d 35 7c 4a 00 00 	lea    0x4a7c(%rip),%rsi        # 4099f8 <short_opt+0x88>
  404f7c:	4c 89 e7             	mov    %r12,%rdi
  404f7f:	e8 5c d3 ff ff       	call   4022e0 <strcmp@plt>
  404f84:	85 c0                	test   %eax,%eax
  404f86:	0f 84 de 01 00 00    	je     40516a <parser_handler+0x34a>
  404f8c:	48 8d 35 fb 4b 00 00 	lea    0x4bfb(%rip),%rsi        # 409b8e <short_opt+0x21e>
  404f93:	4c 89 e7             	mov    %r12,%rdi
  404f96:	e8 45 d3 ff ff       	call   4022e0 <strcmp@plt>
  404f9b:	85 c0                	test   %eax,%eax
  404f9d:	75 77                	jne    405016 <parser_handler+0x1f6>
  404f9f:	be 11 00 00 00       	mov    $0x11,%esi
  404fa4:	4c 89 f7             	mov    %r14,%rdi
  404fa7:	e8 14 1b 00 00       	call   406ac0 <ar_strndup>
  404fac:	49 89 45 38          	mov    %rax,0x38(%r13)
  404fb0:	b8 01 00 00 00       	mov    $0x1,%eax
  404fb5:	e9 ef fe ff ff       	jmp    404ea9 <parser_handler+0x89>
  404fba:	48 8d 35 fa 49 00 00 	lea    0x49fa(%rip),%rsi        # 4099bb <short_opt+0x4b>
  404fc1:	4c 89 e7             	mov    %r12,%rdi
  404fc4:	e8 17 d3 ff ff       	call   4022e0 <strcmp@plt>
  404fc9:	85 c0                	test   %eax,%eax
  404fcb:	0f 84 e2 00 00 00    	je     4050b3 <parser_handler+0x293>
  404fd1:	48 8d 35 df 49 00 00 	lea    0x49df(%rip),%rsi        # 4099b7 <short_opt+0x47>
  404fd8:	4c 89 e7             	mov    %r12,%rdi
  404fdb:	e8 00 d3 ff ff       	call   4022e0 <strcmp@plt>
  404fe0:	85 c0                	test   %eax,%eax
  404fe2:	0f 84 11 01 00 00    	je     4050f9 <parser_handler+0x2d9>
  404fe8:	48 8d 35 d0 49 00 00 	lea    0x49d0(%rip),%rsi        # 4099bf <short_opt+0x4f>
  404fef:	4c 89 e7             	mov    %r12,%rdi
  404ff2:	e8 e9 d2 ff ff       	call   4022e0 <strcmp@plt>
  404ff7:	85 c0                	test   %eax,%eax
  404ff9:	0f 84 50 01 00 00    	je     40514f <parser_handler+0x32f>
  404fff:	48 8d 35 98 4a 00 00 	lea    0x4a98(%rip),%rsi        # 409a9e <short_opt+0x12e>
  405006:	4c 89 e7             	mov    %r12,%rdi
  405009:	e8 d2 d2 ff ff       	call   4022e0 <strcmp@plt>
  40500e:	85 c0                	test   %eax,%eax
  405010:	0f 84 7e 01 00 00    	je     405194 <parser_handler+0x374>
  405016:	48 8d 3d 7e 4b 00 00 	lea    0x4b7e(%rip),%rdi        # 409b9b <short_opt+0x22b>
  40501d:	4c 89 e6             	mov    %r12,%rsi
  405020:	48 89 ea             	mov    %rbp,%rdx
  405023:	44 89 f9             	mov    %r15d,%ecx
  405026:	31 c0                	xor    %eax,%eax
  405028:	e8 83 2d 00 00       	call   407db0 <__pr_error>
  40502d:	e9 72 fe ff ff       	jmp    404ea4 <parser_handler+0x84>
  405032:	be ff 00 00 00       	mov    $0xff,%esi
  405037:	4c 89 f7             	mov    %r14,%rdi
  40503a:	e8 81 1a 00 00       	call   406ac0 <ar_strndup>
  40503f:	49 89 45 08          	mov    %rax,0x8(%r13)
  405043:	b8 01 00 00 00       	mov    $0x1,%eax
  405048:	e9 5c fe ff ff       	jmp    404ea9 <parser_handler+0x89>
  40504d:	c7 44 24 08 00 00 00 	movl   $0x0,0x8(%rsp)
  405054:	00 
  405055:	48 8d 7c 24 08       	lea    0x8(%rsp),%rdi
  40505a:	ba 03 00 00 00       	mov    $0x3,%edx
  40505f:	4c 89 f6             	mov    %r14,%rsi
  405062:	e8 a9 d0 ff ff       	call   402110 <strncpy@plt>
  405067:	81 4c 24 08 20 20 20 	orl    $0x20202020,0x8(%rsp)
  40506e:	20 
  40506f:	c6 44 24 0b 00       	movb   $0x0,0xb(%rsp)
  405074:	8b 44 24 08          	mov    0x8(%rsp),%eax
  405078:	3d 74 63 70 00       	cmp    $0x706374,%eax
  40507d:	0f 84 2c 01 00 00    	je     4051af <parser_handler+0x38f>
  405083:	3d 75 64 70 00       	cmp    $0x706475,%eax
  405088:	0f 85 31 01 00 00    	jne    4051bf <parser_handler+0x39f>
  40508e:	b8 01 00 00 00       	mov    $0x1,%eax
  405093:	e9 19 01 00 00       	jmp    4051b1 <parser_handler+0x391>
  405098:	be 20 00 00 00       	mov    $0x20,%esi
  40509d:	4c 89 f7             	mov    %r14,%rdi
  4050a0:	e8 1b 1a 00 00       	call   406ac0 <ar_strndup>
  4050a5:	49 89 45 40          	mov    %rax,0x40(%r13)
  4050a9:	b8 01 00 00 00       	mov    $0x1,%eax
  4050ae:	e9 f6 fd ff ff       	jmp    404ea9 <parser_handler+0x89>
  4050b3:	be 10 00 00 00       	mov    $0x10,%esi
  4050b8:	4c 89 f7             	mov    %r14,%rdi
  4050bb:	e8 00 1a 00 00       	call   406ac0 <ar_strndup>
  4050c0:	49 89 45 18          	mov    %rax,0x18(%r13)
  4050c4:	b8 01 00 00 00       	mov    $0x1,%eax
  4050c9:	e9 db fd ff ff       	jmp    404ea9 <parser_handler+0x89>
  4050ce:	be 06 00 00 00       	mov    $0x6,%esi
  4050d3:	4c 89 f7             	mov    %r14,%rdi
  4050d6:	e8 e5 19 00 00       	call   406ac0 <ar_strndup>
  4050db:	48 89 c7             	mov    %rax,%rdi
  4050de:	31 f6                	xor    %esi,%esi
  4050e0:	ba 0a 00 00 00       	mov    $0xa,%edx
  4050e5:	e8 06 d2 ff ff       	call   4022f0 <strtol@plt>
  4050ea:	66 41 89 45 48       	mov    %ax,0x48(%r13)
  4050ef:	b8 01 00 00 00       	mov    $0x1,%eax
  4050f4:	e9 b0 fd ff ff       	jmp    404ea9 <parser_handler+0x89>
  4050f9:	be 06 00 00 00       	mov    $0x6,%esi
  4050fe:	4c 89 f7             	mov    %r14,%rdi
  405101:	e8 ba 19 00 00       	call   406ac0 <ar_strndup>
  405106:	48 89 c7             	mov    %rax,%rdi
  405109:	31 f6                	xor    %esi,%esi
  40510b:	ba 0a 00 00 00       	mov    $0xa,%edx
  405110:	e8 db d1 ff ff       	call   4022f0 <strtol@plt>
  405115:	66 41 89 45 10       	mov    %ax,0x10(%r13)
  40511a:	b8 01 00 00 00       	mov    $0x1,%eax
  40511f:	e9 85 fd ff ff       	jmp    404ea9 <parser_handler+0x89>
  405124:	be 06 00 00 00       	mov    $0x6,%esi
  405129:	4c 89 f7             	mov    %r14,%rdi
  40512c:	e8 8f 19 00 00       	call   406ac0 <ar_strndup>
  405131:	48 89 c7             	mov    %rax,%rdi
  405134:	31 f6                	xor    %esi,%esi
  405136:	ba 0a 00 00 00       	mov    $0xa,%edx
  40513b:	e8 b0 d1 ff ff       	call   4022f0 <strtol@plt>
  405140:	66 41 89 45 4a       	mov    %ax,0x4a(%r13)
  405145:	b8 01 00 00 00       	mov    $0x1,%eax
  40514a:	e9 5a fd ff ff       	jmp    404ea9 <parser_handler+0x89>
  40514f:	be 11 00 00 00       	mov    $0x11,%esi
  405154:	4c 89 f7             	mov    %r14,%rdi
  405157:	e8 64 19 00 00       	call   406ac0 <ar_strndup>
  40515c:	49 89 45 20          	mov    %rax,0x20(%r13)
  405160:	b8 01 00 00 00       	mov    $0x1,%eax
  405165:	e9 3f fd ff ff       	jmp    404ea9 <parser_handler+0x89>
  40516a:	be 06 00 00 00       	mov    $0x6,%esi
  40516f:	4c 89 f7             	mov    %r14,%rdi
  405172:	e8 49 19 00 00       	call   406ac0 <ar_strndup>
  405177:	48 89 c7             	mov    %rax,%rdi
  40517a:	31 f6                	xor    %esi,%esi
  40517c:	ba 0a 00 00 00       	mov    $0xa,%edx
  405181:	e8 6a d1 ff ff       	call   4022f0 <strtol@plt>
  405186:	41 89 45 4c          	mov    %eax,0x4c(%r13)
  40518a:	b8 01 00 00 00       	mov    $0x1,%eax
  40518f:	e9 15 fd ff ff       	jmp    404ea9 <parser_handler+0x89>
  405194:	be 11 00 00 00       	mov    $0x11,%esi
  405199:	4c 89 f7             	mov    %r14,%rdi
  40519c:	e8 1f 19 00 00       	call   406ac0 <ar_strndup>
  4051a1:	49 89 45 28          	mov    %rax,0x28(%r13)
  4051a5:	b8 01 00 00 00       	mov    $0x1,%eax
  4051aa:	e9 fa fc ff ff       	jmp    404ea9 <parser_handler+0x89>
  4051af:	31 c0                	xor    %eax,%eax
  4051b1:	41 89 45 30          	mov    %eax,0x30(%r13)
  4051b5:	b8 01 00 00 00       	mov    $0x1,%eax
  4051ba:	e9 ea fc ff ff       	jmp    404ea9 <parser_handler+0x89>
  4051bf:	48 8d 3d c3 47 00 00 	lea    0x47c3(%rip),%rdi        # 409989 <short_opt+0x19>
  4051c6:	4c 89 f6             	mov    %r14,%rsi
  4051c9:	31 c0                	xor    %eax,%eax
  4051cb:	e8 e0 2b 00 00       	call   407db0 <__pr_error>
  4051d0:	e9 cf fc ff ff       	jmp    404ea4 <parser_handler+0x84>
  4051d5:	e8 66 d0 ff ff       	call   402240 <__stack_chk_fail@plt>
  4051da:	66 0f 1f 44 00 00    	nopw   0x0(%rax,%rax,1)

00000000004051e0 <teavpn_server_entry>:
  4051e0:	53                   	push   %rbx
  4051e1:	48 83 ec 60          	sub    $0x60,%rsp
  4051e5:	64 48 8b 04 25 28 00 	mov    %fs:0x28,%rax
  4051ec:	00 00 
  4051ee:	48 89 44 24 58       	mov    %rax,0x58(%rsp)
  4051f3:	0f 57 c0             	xorps  %xmm0,%xmm0
  4051f6:	0f 29 44 24 40       	movaps %xmm0,0x40(%rsp)
  4051fb:	0f 29 44 24 30       	movaps %xmm0,0x30(%rsp)
  405200:	0f 29 44 24 20       	movaps %xmm0,0x20(%rsp)
  405205:	0f 29 44 24 10       	movaps %xmm0,0x10(%rsp)
  40520a:	0f 29 04 24          	movaps %xmm0,(%rsp)
  40520e:	48 89 e2             	mov    %rsp,%rdx
  405211:	e8 4a f4 ff ff       	call   404660 <teavpn_server_argv_parse>
  405216:	bb 01 00 00 00       	mov    $0x1,%ebx
  40521b:	85 c0                	test   %eax,%eax
  40521d:	78 75                	js     405294 <teavpn_server_entry+0xb4>
  40521f:	48 89 e7             	mov    %rsp,%rdi
  405222:	e8 09 fb ff ff       	call   404d30 <teavpn_server_cfg_parse>
  405227:	85 c0                	test   %eax,%eax
  405229:	78 69                	js     405294 <teavpn_server_entry+0xb4>
  40522b:	48 83 7c 24 08 00    	cmpq   $0x0,0x8(%rsp)
  405231:	74 79                	je     4052ac <teavpn_server_entry+0xcc>
  405233:	8b 74 24 30          	mov    0x30(%rsp),%esi
  405237:	83 fe 01             	cmp    $0x1,%esi
  40523a:	74 20                	je     40525c <teavpn_server_entry+0x7c>
  40523c:	85 f6                	test   %esi,%esi
  40523e:	75 41                	jne    405281 <teavpn_server_entry+0xa1>
  405240:	48 89 e7             	mov    %rsp,%rdi
  405243:	e8 38 02 00 00       	call   405480 <teavpn_server_tcp>
  405248:	89 c3                	mov    %eax,%ebx
  40524a:	64 48 8b 04 25 28 00 	mov    %fs:0x28,%rax
  405251:	00 00 
  405253:	48 3b 44 24 58       	cmp    0x58(%rsp),%rax
  405258:	74 4a                	je     4052a4 <teavpn_server_entry+0xc4>
  40525a:	eb 6e                	jmp    4052ca <teavpn_server_entry+0xea>
  40525c:	48 8d 3d 65 49 00 00 	lea    0x4965(%rip),%rdi        # 409bc8 <short_opt+0x258>
  405263:	31 c0                	xor    %eax,%eax
  405265:	e8 46 2b 00 00       	call   407db0 <__pr_error>
  40526a:	bb a2 ff ff ff       	mov    $0xffffffa2,%ebx
  40526f:	64 48 8b 04 25 28 00 	mov    %fs:0x28,%rax
  405276:	00 00 
  405278:	48 3b 44 24 58       	cmp    0x58(%rsp),%rax
  40527d:	74 25                	je     4052a4 <teavpn_server_entry+0xc4>
  40527f:	eb 49                	jmp    4052ca <teavpn_server_entry+0xea>
  405281:	48 8d 3d 6a 49 00 00 	lea    0x496a(%rip),%rdi        # 409bf2 <short_opt+0x282>
  405288:	31 c0                	xor    %eax,%eax
  40528a:	e8 21 2b 00 00       	call   407db0 <__pr_error>
  40528f:	bb ea ff ff ff       	mov    $0xffffffea,%ebx
  405294:	64 48 8b 04 25 28 00 	mov    %fs:0x28,%rax
  40529b:	00 00 
  40529d:	48 3b 44 24 58       	cmp    0x58(%rsp),%rax
  4052a2:	75 26                	jne    4052ca <teavpn_server_entry+0xea>
  4052a4:	89 d8                	mov    %ebx,%eax
  4052a6:	48 83 c4 60          	add    $0x60,%rsp
  4052aa:	5b                   	pop    %rbx
  4052ab:	c3                   	ret    
  4052ac:	48 8d 3d 57 49 00 00 	lea    0x4957(%rip),%rdi        # 409c0a <short_opt+0x29a>
  4052b3:	31 c0                	xor    %eax,%eax
  4052b5:	e8 f6 2a 00 00       	call   407db0 <__pr_error>
  4052ba:	64 48 8b 04 25 28 00 	mov    %fs:0x28,%rax
  4052c1:	00 00 
  4052c3:	48 3b 44 24 58       	cmp    0x58(%rsp),%rax
  4052c8:	74 da                	je     4052a4 <teavpn_server_entry+0xc4>
  4052ca:	e8 71 cf ff ff       	call   402240 <__stack_chk_fail@plt>
  4052cf:	90                   	nop

00000000004052d0 <teavpn_server_show_help>:
  4052d0:	50                   	push   %rax
  4052d1:	48 89 fe             	mov    %rdi,%rsi
  4052d4:	48 8d 3d 49 49 00 00 	lea    0x4949(%rip),%rdi        # 409c24 <short_opt+0x2b4>
  4052db:	31 c0                	xor    %eax,%eax
  4052dd:	e8 5e cd ff ff       	call   402040 <printf@plt>
  4052e2:	bf 0a 00 00 00       	mov    $0xa,%edi
  4052e7:	e8 e4 cf ff ff       	call   4022d0 <putchar@plt>
  4052ec:	48 8d 3d 08 4b 00 00 	lea    0x4b08(%rip),%rdi        # 409dfb <short_opt+0x48b>
  4052f3:	e8 78 d0 ff ff       	call   402370 <puts@plt>
  4052f8:	bf 0a 00 00 00       	mov    $0xa,%edi
  4052fd:	e8 ce cf ff ff       	call   4022d0 <putchar@plt>
  405302:	48 8d 3d 0c 4b 00 00 	lea    0x4b0c(%rip),%rdi        # 409e15 <short_opt+0x4a5>
  405309:	e8 62 d0 ff ff       	call   402370 <puts@plt>
  40530e:	48 8d 3d 13 4b 00 00 	lea    0x4b13(%rip),%rdi        # 409e28 <short_opt+0x4b8>
  405315:	e8 56 d0 ff ff       	call   402370 <puts@plt>
  40531a:	48 8d 3d 2e 4b 00 00 	lea    0x4b2e(%rip),%rdi        # 409e4f <short_opt+0x4df>
  405321:	e8 4a d0 ff ff       	call   402370 <puts@plt>
  405326:	48 8d 3d 13 49 00 00 	lea    0x4913(%rip),%rdi        # 409c40 <short_opt+0x2d0>
  40532d:	48 8d 35 fc 8e 00 00 	lea    0x8efc(%rip),%rsi        # 40e230 <d_srv_cfg_file>
  405334:	31 c0                	xor    %eax,%eax
  405336:	e8 05 cd ff ff       	call   402040 <printf@plt>
  40533b:	48 8d 3d 39 4b 00 00 	lea    0x4b39(%rip),%rdi        # 409e7b <short_opt+0x50b>
  405342:	e8 29 d0 ff ff       	call   402370 <puts@plt>
  405347:	bf 0a 00 00 00       	mov    $0xa,%edi
  40534c:	e8 7f cf ff ff       	call   4022d0 <putchar@plt>
  405351:	48 8d 3d 49 4b 00 00 	lea    0x4b49(%rip),%rdi        # 409ea1 <short_opt+0x531>
  405358:	e8 13 d0 ff ff       	call   402370 <puts@plt>
  40535d:	48 8d 3d 4e 4b 00 00 	lea    0x4b4e(%rip),%rdi        # 409eb2 <short_opt+0x542>
  405364:	e8 07 d0 ff ff       	call   402370 <puts@plt>
  405369:	48 8d 3d 05 49 00 00 	lea    0x4905(%rip),%rdi        # 409c75 <short_opt+0x305>
  405370:	48 8d 35 cd 8e 00 00 	lea    0x8ecd(%rip),%rsi        # 40e244 <d_srv_dev>
  405377:	31 c0                	xor    %eax,%eax
  405379:	e8 c2 cc ff ff       	call   402040 <printf@plt>
  40537e:	48 8d 05 bd 8e 00 00 	lea    0x8ebd(%rip),%rax        # 40e242 <d_srv_mtu>
  405385:	0f b7 30             	movzwl (%rax),%esi
  405388:	48 8d 3d 2b 49 00 00 	lea    0x492b(%rip),%rdi        # 409cba <short_opt+0x34a>
  40538f:	31 c0                	xor    %eax,%eax
  405391:	e8 aa cc ff ff       	call   402040 <printf@plt>
  405396:	48 8d 3d 4d 49 00 00 	lea    0x494d(%rip),%rdi        # 409cea <short_opt+0x37a>
  40539d:	48 8d 35 a8 8e 00 00 	lea    0x8ea8(%rip),%rsi        # 40e24c <d_srv_ipv4>
  4053a4:	31 c0                	xor    %eax,%eax
  4053a6:	e8 95 cc ff ff       	call   402040 <printf@plt>
  4053ab:	48 8d 3d 63 49 00 00 	lea    0x4963(%rip),%rdi        # 409d15 <short_opt+0x3a5>
  4053b2:	48 8d 35 9c 8e 00 00 	lea    0x8e9c(%rip),%rsi        # 40e255 <d_srv_ipv4_netmask>
  4053b9:	31 c0                	xor    %eax,%eax
  4053bb:	e8 80 cc ff ff       	call   402040 <printf@plt>
  4053c0:	bf 0a 00 00 00       	mov    $0xa,%edi
  4053c5:	e8 06 cf ff ff       	call   4022d0 <putchar@plt>
  4053ca:	48 8d 3d fd 4a 00 00 	lea    0x4afd(%rip),%rdi        # 409ece <short_opt+0x55e>
  4053d1:	e8 9a cf ff ff       	call   402370 <puts@plt>
  4053d6:	48 8d 3d fa 4a 00 00 	lea    0x4afa(%rip),%rdi        # 409ed7 <short_opt+0x567>
  4053dd:	e8 8e cf ff ff       	call   402370 <puts@plt>
  4053e2:	48 8d 3d 3b 4b 00 00 	lea    0x4b3b(%rip),%rdi        # 409f24 <short_opt+0x5b4>
  4053e9:	e8 82 cf ff ff       	call   402370 <puts@plt>
  4053ee:	48 8d 05 77 8e 00 00 	lea    0x8e77(%rip),%rax        # 40e26c <d_srv_bind_port>
  4053f5:	0f b7 30             	movzwl (%rax),%esi
  4053f8:	48 8d 3d 51 49 00 00 	lea    0x4951(%rip),%rdi        # 409d50 <short_opt+0x3e0>
  4053ff:	31 c0                	xor    %eax,%eax
  405401:	e8 3a cc ff ff       	call   402040 <printf@plt>
  405406:	48 8d 05 61 8e 00 00 	lea    0x8e61(%rip),%rax        # 40e26e <d_srv_max_conn>
  40540d:	0f b7 30             	movzwl (%rax),%esi
  405410:	48 8d 3d 6f 49 00 00 	lea    0x496f(%rip),%rdi        # 409d86 <short_opt+0x416>
  405417:	31 c0                	xor    %eax,%eax
  405419:	e8 22 cc ff ff       	call   402040 <printf@plt>
  40541e:	48 8d 05 4b 8e 00 00 	lea    0x8e4b(%rip),%rax        # 40e270 <d_srv_backlog>
  405425:	8b 30                	mov    (%rax),%esi
  405427:	48 8d 3d 90 49 00 00 	lea    0x4990(%rip),%rdi        # 409dbe <short_opt+0x44e>
  40542e:	31 c0                	xor    %eax,%eax
  405430:	e8 0b cc ff ff       	call   402040 <printf@plt>
  405435:	bf 0a 00 00 00       	mov    $0xa,%edi
  40543a:	e8 91 ce ff ff       	call   4022d0 <putchar@plt>
  40543f:	bf 0a 00 00 00       	mov    $0xa,%edi
  405444:	e8 87 ce ff ff       	call   4022d0 <putchar@plt>
  405449:	48 8d 3d 0e 4b 00 00 	lea    0x4b0e(%rip),%rdi        # 409f5e <short_opt+0x5ee>
  405450:	e8 1b cf ff ff       	call   402370 <puts@plt>
  405455:	48 8d 3d 40 4b 00 00 	lea    0x4b40(%rip),%rdi        # 409f9c <short_opt+0x62c>
  40545c:	e8 0f cf ff ff       	call   402370 <puts@plt>
  405461:	bf 0a 00 00 00       	mov    $0xa,%edi
  405466:	e8 65 ce ff ff       	call   4022d0 <putchar@plt>
  40546b:	48 8d 3d 62 4b 00 00 	lea    0x4b62(%rip),%rdi        # 409fd4 <short_opt+0x664>
  405472:	58                   	pop    %rax
  405473:	e9 f8 ce ff ff       	jmp    402370 <puts@plt>
  405478:	0f 1f 84 00 00 00 00 	nopl   0x0(%rax,%rax,1)
  40547f:	00 

0000000000405480 <teavpn_server_tcp>:
  405480:	e9 6b db ff ff       	jmp    402ff0 <teavpn_server_tcp_handler>
  405485:	66 2e 0f 1f 84 00 00 	cs nopw 0x0(%rax,%rax,1)
  40548c:	00 00 00 
  40548f:	90                   	nop

0000000000405490 <teavpn_client_tcp_handler>:
  405490:	55                   	push   %rbp
  405491:	41 57                	push   %r15
  405493:	41 56                	push   %r14
  405495:	41 55                	push   %r13
  405497:	41 54                	push   %r12
  405499:	53                   	push   %rbx
  40549a:	48 81 ec 08 81 00 00 	sub    $0x8108,%rsp
  4054a1:	48 89 fb             	mov    %rdi,%rbx
  4054a4:	64 48 8b 04 25 28 00 	mov    %fs:0x28,%rax
  4054ab:	00 00 
  4054ad:	48 89 84 24 00 81 00 	mov    %rax,0x8100(%rsp)
  4054b4:	00 
  4054b5:	48 8d 6c 24 28       	lea    0x28(%rsp),%rbp
  4054ba:	ba a8 80 00 00       	mov    $0x80a8,%edx
  4054bf:	48 89 ef             	mov    %rbp,%rdi
  4054c2:	31 f6                	xor    %esi,%esi
  4054c4:	e8 57 cc ff ff       	call   402120 <memset@plt>
  4054c9:	48 89 5c 24 38       	mov    %rbx,0x38(%rsp)
  4054ce:	48 89 2d f3 8d 00 00 	mov    %rbp,0x8df3(%rip)        # 40e2c8 <g_state>
  4054d5:	48 8d 1d 94 0b 00 00 	lea    0xb94(%rip),%rbx        # 406070 <handle_interrupt>
  4054dc:	bf 01 00 00 00       	mov    $0x1,%edi
  4054e1:	48 89 de             	mov    %rbx,%rsi
  4054e4:	e8 87 cd ff ff       	call   402270 <signal@plt>
  4054e9:	bf 02 00 00 00       	mov    $0x2,%edi
  4054ee:	48 89 de             	mov    %rbx,%rsi
  4054f1:	e8 7a cd ff ff       	call   402270 <signal@plt>
  4054f6:	bf 0f 00 00 00       	mov    $0xf,%edi
  4054fb:	48 89 de             	mov    %rbx,%rsi
  4054fe:	e8 6d cd ff ff       	call   402270 <signal@plt>
  405503:	bf 03 00 00 00       	mov    $0x3,%edi
  405508:	48 89 de             	mov    %rbx,%rsi
  40550b:	e8 60 cd ff ff       	call   402270 <signal@plt>
  405510:	be 01 00 00 00       	mov    $0x1,%esi
  405515:	bf 0d 00 00 00       	mov    $0xd,%edi
  40551a:	e8 51 cd ff ff       	call   402270 <signal@plt>
  40551f:	48 c7 44 24 28 ff ff 	movq   $0xffffffffffffffff,0x28(%rsp)
  405526:	ff ff 
  405528:	c7 44 24 30 ff ff ff 	movl   $0xffffffff,0x30(%rsp)
  40552f:	ff 
  405530:	c6 44 24 34 00       	movb   $0x0,0x34(%rsp)
  405535:	c6 44 24 36 00       	movb   $0x0,0x36(%rsp)
  40553a:	c6 84 24 ca 80 00 00 	movb   $0x0,0x80ca(%rsp)
  405541:	00 
  405542:	0f 57 c0             	xorps  %xmm0,%xmm0
  405545:	0f 11 44 24 40       	movups %xmm0,0x40(%rsp)
  40554a:	48 8b 5c 24 38       	mov    0x38(%rsp),%rbx
  40554f:	48 8b 73 10          	mov    0x10(%rbx),%rsi
  405553:	48 8d 3d 5e 3b 00 00 	lea    0x3b5e(%rip),%rdi        # 4090b8 <_IO_stdin_used+0xb8>
  40555a:	31 c0                	xor    %eax,%eax
  40555c:	e8 ff 2c 00 00       	call   408260 <__pr_notice>
  405561:	48 8b 7b 10          	mov    0x10(%rbx),%rdi
  405565:	be 01 10 00 00       	mov    $0x1001,%esi
  40556a:	e8 71 1a 00 00       	call   406fe0 <tun_alloc>
  40556f:	85 c0                	test   %eax,%eax
  405571:	0f 88 de 0a 00 00    	js     406055 <teavpn_client_tcp_handler+0xbc5>
  405577:	89 c3                	mov    %eax,%ebx
  405579:	89 c7                	mov    %eax,%edi
  40557b:	e8 00 1c 00 00       	call   407180 <fd_set_nonblock>
  405580:	85 c0                	test   %eax,%eax
  405582:	0f 88 d7 09 00 00    	js     405f5f <teavpn_client_tcp_handler+0xacf>
  405588:	89 5c 24 30          	mov    %ebx,0x30(%rsp)
  40558c:	48 8b 44 24 38       	mov    0x38(%rsp),%rax
  405591:	48 8b 68 28          	mov    0x28(%rax),%rbp
  405595:	44 0f b7 78 24       	movzwl 0x24(%rax),%r15d
  40559a:	48 8d 3d 6d 3b 00 00 	lea    0x3b6d(%rip),%rdi        # 40910e <_IO_stdin_used+0x10e>
  4055a1:	31 c0                	xor    %eax,%eax
  4055a3:	e8 b8 2c 00 00       	call   408260 <__pr_notice>
  4055a8:	bf 02 00 00 00       	mov    $0x2,%edi
  4055ad:	be 01 08 00 00       	mov    $0x801,%esi
  4055b2:	ba 06 00 00 00       	mov    $0x6,%edx
  4055b7:	e8 b4 ca ff ff       	call   402070 <socket@plt>
  4055bc:	85 c0                	test   %eax,%eax
  4055be:	0f 88 a7 09 00 00    	js     405f6b <teavpn_client_tcp_handler+0xadb>
  4055c4:	41 89 c5             	mov    %eax,%r13d
  4055c7:	48 8d 3d 69 3b 00 00 	lea    0x3b69(%rip),%rdi        # 409137 <_IO_stdin_used+0x137>
  4055ce:	31 c0                	xor    %eax,%eax
  4055d0:	e8 8b 2c 00 00       	call   408260 <__pr_notice>
  4055d5:	c7 44 24 24 01 00 00 	movl   $0x1,0x24(%rsp)
  4055dc:	00 
  4055dd:	48 8d 4c 24 24       	lea    0x24(%rsp),%rcx
  4055e2:	44 89 ef             	mov    %r13d,%edi
  4055e5:	be 01 00 00 00       	mov    $0x1,%esi
  4055ea:	ba 02 00 00 00       	mov    $0x2,%edx
  4055ef:	41 b8 04 00 00 00    	mov    $0x4,%r8d
  4055f5:	e8 e6 cd ff ff       	call   4023e0 <setsockopt@plt>
  4055fa:	4c 8d 25 93 3b 00 00 	lea    0x3b93(%rip),%r12        # 409194 <_IO_stdin_used+0x194>
  405601:	85 c0                	test   %eax,%eax
  405603:	0f 88 b4 09 00 00    	js     405fbd <teavpn_client_tcp_handler+0xb2d>
  405609:	c7 44 24 24 01 00 00 	movl   $0x1,0x24(%rsp)
  405610:	00 
  405611:	48 8d 4c 24 24       	lea    0x24(%rsp),%rcx
  405616:	44 89 ef             	mov    %r13d,%edi
  405619:	be 06 00 00 00       	mov    $0x6,%esi
  40561e:	ba 01 00 00 00       	mov    $0x1,%edx
  405623:	41 b8 04 00 00 00    	mov    $0x4,%r8d
  405629:	e8 b2 cd ff ff       	call   4023e0 <setsockopt@plt>
  40562e:	85 c0                	test   %eax,%eax
  405630:	0f 88 93 09 00 00    	js     405fc9 <teavpn_client_tcp_handler+0xb39>
  405636:	c7 44 24 24 01 00 00 	movl   $0x1,0x24(%rsp)
  40563d:	00 
  40563e:	48 8d 4c 24 24       	lea    0x24(%rsp),%rcx
  405643:	44 89 ef             	mov    %r13d,%edi
  405646:	be 01 00 00 00       	mov    $0x1,%esi
  40564b:	ba 31 00 00 00       	mov    $0x31,%edx
  405650:	41 b8 04 00 00 00    	mov    $0x4,%r8d
  405656:	e8 85 cd ff ff       	call   4023e0 <setsockopt@plt>
  40565b:	85 c0                	test   %eax,%eax
  40565d:	0f 88 79 09 00 00    	js     405fdc <teavpn_client_tcp_handler+0xb4c>
  405663:	c7 44 24 24 00 00 20 	movl   $0x200000,0x24(%rsp)
  40566a:	00 
  40566b:	48 8d 4c 24 24       	lea    0x24(%rsp),%rcx
  405670:	44 89 ef             	mov    %r13d,%edi
  405673:	be 01 00 00 00       	mov    $0x1,%esi
  405678:	ba 21 00 00 00       	mov    $0x21,%edx
  40567d:	41 b8 04 00 00 00    	mov    $0x4,%r8d
  405683:	e8 58 cd ff ff       	call   4023e0 <setsockopt@plt>
  405688:	85 c0                	test   %eax,%eax
  40568a:	0f 88 58 09 00 00    	js     405fe8 <teavpn_client_tcp_handler+0xb58>
  405690:	c7 44 24 24 00 00 20 	movl   $0x200000,0x24(%rsp)
  405697:	00 
  405698:	48 8d 4c 24 24       	lea    0x24(%rsp),%rcx
  40569d:	44 89 ef             	mov    %r13d,%edi
  4056a0:	be 01 00 00 00       	mov    $0x1,%esi
  4056a5:	ba 20 00 00 00       	mov    $0x20,%edx
  4056aa:	41 b8 04 00 00 00    	mov    $0x4,%r8d
  4056b0:	e8 2b cd ff ff       	call   4023e0 <setsockopt@plt>
  4056b5:	85 c0                	test   %eax,%eax
  4056b7:	0f 88 37 09 00 00    	js     405ff4 <teavpn_client_tcp_handler+0xb64>
  4056bd:	c7 44 24 24 30 75 00 	movl   $0x7530,0x24(%rsp)
  4056c4:	00 
  4056c5:	48 8d 4c 24 24       	lea    0x24(%rsp),%rcx
  4056ca:	44 89 ef             	mov    %r13d,%edi
  4056cd:	be 01 00 00 00       	mov    $0x1,%esi
  4056d2:	ba 2e 00 00 00       	mov    $0x2e,%edx
  4056d7:	41 b8 04 00 00 00    	mov    $0x4,%r8d
  4056dd:	e8 fe cc ff ff       	call   4023e0 <setsockopt@plt>
  4056e2:	85 c0                	test   %eax,%eax
  4056e4:	0f 88 16 09 00 00    	js     406000 <teavpn_client_tcp_handler+0xb70>
  4056ea:	66 c7 84 24 d0 80 00 	movw   $0x2,0x80d0(%rsp)
  4056f1:	00 02 00 
  4056f4:	44 89 f8             	mov    %r15d,%eax
  4056f7:	66 c1 c0 08          	rol    $0x8,%ax
  4056fb:	66 89 84 24 d2 80 00 	mov    %ax,0x80d2(%rsp)
  405702:	00 
  405703:	48 8d 94 24 d4 80 00 	lea    0x80d4(%rsp),%rdx
  40570a:	00 
  40570b:	bf 02 00 00 00       	mov    $0x2,%edi
  405710:	48 89 ee             	mov    %rbp,%rsi
  405713:	e8 e8 cc ff ff       	call   402400 <inet_pton@plt>
  405718:	85 c0                	test   %eax,%eax
  40571a:	0f 84 80 00 00 00    	je     4057a0 <teavpn_client_tcp_handler+0x310>
  405720:	48 8d 3d 22 49 00 00 	lea    0x4922(%rip),%rdi        # 40a049 <short_opt+0x6d9>
  405727:	48 89 ee             	mov    %rbp,%rsi
  40572a:	44 89 fa             	mov    %r15d,%edx
  40572d:	31 c0                	xor    %eax,%eax
  40572f:	e8 2c 2b 00 00       	call   408260 <__pr_notice>
  405734:	48 8d b4 24 d0 80 00 	lea    0x80d0(%rsp),%rsi
  40573b:	00 
  40573c:	44 89 ef             	mov    %r13d,%edi
  40573f:	ba 10 00 00 00       	mov    $0x10,%edx
  405744:	e8 67 ca ff ff       	call   4021b0 <connect@plt>
  405749:	85 c0                	test   %eax,%eax
  40574b:	79 3e                	jns    40578b <teavpn_client_tcp_handler+0x2fb>
  40574d:	e8 de c8 ff ff       	call   402030 <__errno_location@plt>
  405752:	48 89 c5             	mov    %rax,%rbp
  405755:	4c 8d b4 24 d0 80 00 	lea    0x80d0(%rsp),%r14
  40575c:	00 
  40575d:	0f 1f 00             	nopl   (%rax)
  405760:	8b 5d 00             	mov    0x0(%rbp),%ebx
  405763:	89 d8                	mov    %ebx,%eax
  405765:	83 e0 fe             	and    $0xfffffffe,%eax
  405768:	83 f8 72             	cmp    $0x72,%eax
  40576b:	75 63                	jne    4057d0 <teavpn_client_tcp_handler+0x340>
  40576d:	bf 88 13 00 00       	mov    $0x1388,%edi
  405772:	e8 99 cb ff ff       	call   402310 <usleep@plt>
  405777:	44 89 ef             	mov    %r13d,%edi
  40577a:	4c 89 f6             	mov    %r14,%rsi
  40577d:	ba 10 00 00 00       	mov    $0x10,%edx
  405782:	e8 29 ca ff ff       	call   4021b0 <connect@plt>
  405787:	85 c0                	test   %eax,%eax
  405789:	78 d5                	js     405760 <teavpn_client_tcp_handler+0x2d0>
  40578b:	44 89 6c 24 2c       	mov    %r13d,0x2c(%rsp)
  405790:	48 8d 3d dc 48 00 00 	lea    0x48dc(%rip),%rdi        # 40a073 <short_opt+0x703>
  405797:	31 c0                	xor    %eax,%eax
  405799:	e8 c2 2a 00 00       	call   408260 <__pr_notice>
  40579e:	eb 66                	jmp    405806 <teavpn_client_tcp_handler+0x376>
  4057a0:	bf 16 00 00 00       	mov    $0x16,%edi
  4057a5:	e8 06 c9 ff ff       	call   4020b0 <strerror@plt>
  4057aa:	48 8d 3d 81 48 00 00 	lea    0x4881(%rip),%rdi        # 40a032 <short_opt+0x6c2>
  4057b1:	48 89 ee             	mov    %rbp,%rsi
  4057b4:	ba 16 00 00 00       	mov    $0x16,%edx
  4057b9:	48 89 c1             	mov    %rax,%rcx
  4057bc:	31 c0                	xor    %eax,%eax
  4057be:	e8 ed 25 00 00       	call   407db0 <__pr_error>
  4057c3:	41 be ea ff ff ff    	mov    $0xffffffea,%r14d
  4057c9:	45 85 ed             	test   %r13d,%r13d
  4057cc:	7f 27                	jg     4057f5 <teavpn_client_tcp_handler+0x365>
  4057ce:	eb 2d                	jmp    4057fd <teavpn_client_tcp_handler+0x36d>
  4057d0:	41 89 de             	mov    %ebx,%r14d
  4057d3:	41 f7 de             	neg    %r14d
  4057d6:	89 df                	mov    %ebx,%edi
  4057d8:	e8 d3 c8 ff ff       	call   4020b0 <strerror@plt>
  4057dd:	48 8d 3d 7c 48 00 00 	lea    0x487c(%rip),%rdi        # 40a060 <short_opt+0x6f0>
  4057e4:	89 de                	mov    %ebx,%esi
  4057e6:	48 89 c2             	mov    %rax,%rdx
  4057e9:	31 c0                	xor    %eax,%eax
  4057eb:	e8 c0 25 00 00       	call   407db0 <__pr_error>
  4057f0:	45 85 ed             	test   %r13d,%r13d
  4057f3:	7e 08                	jle    4057fd <teavpn_client_tcp_handler+0x36d>
  4057f5:	44 89 ef             	mov    %r13d,%edi
  4057f8:	e8 23 cc ff ff       	call   402420 <close@plt>
  4057fd:	45 85 f6             	test   %r14d,%r14d
  405800:	0f 88 7b 06 00 00    	js     405e81 <teavpn_client_tcp_handler+0x9f1>
  405806:	44 8b 74 24 2c       	mov    0x2c(%rsp),%r14d
  40580b:	8b 6c 24 30          	mov    0x30(%rsp),%ebp
  40580f:	48 8d 3d 05 3a 00 00 	lea    0x3a05(%rip),%rdi        # 40921b <_IO_stdin_used+0x21b>
  405816:	31 c0                	xor    %eax,%eax
  405818:	e8 43 2a 00 00       	call   408260 <__pr_notice>
  40581d:	bf 03 00 00 00       	mov    $0x3,%edi
  405822:	e8 c9 cb ff ff       	call   4023f0 <epoll_create@plt>
  405827:	85 c0                	test   %eax,%eax
  405829:	0f 88 68 07 00 00    	js     405f97 <teavpn_client_tcp_handler+0xb07>
  40582f:	89 c3                	mov    %eax,%ebx
  405831:	c7 84 24 d8 80 00 00 	movl   $0x0,0x80d8(%rsp)
  405838:	00 00 00 00 
  40583c:	c7 84 24 d0 80 00 00 	movl   $0x3,0x80d0(%rsp)
  405843:	03 00 00 00 
  405847:	89 ac 24 d4 80 00 00 	mov    %ebp,0x80d4(%rsp)
  40584e:	48 8d 8c 24 d0 80 00 	lea    0x80d0(%rsp),%rcx
  405855:	00 
  405856:	89 c7                	mov    %eax,%edi
  405858:	be 01 00 00 00       	mov    $0x1,%esi
  40585d:	89 ea                	mov    %ebp,%edx
  40585f:	e8 5c ca ff ff       	call   4022c0 <epoll_ctl@plt>
  405864:	85 c0                	test   %eax,%eax
  405866:	0f 88 ca 06 00 00    	js     405f36 <teavpn_client_tcp_handler+0xaa6>
  40586c:	c7 84 24 d8 80 00 00 	movl   $0x0,0x80d8(%rsp)
  405873:	00 00 00 00 
  405877:	c7 84 24 d0 80 00 00 	movl   $0x3,0x80d0(%rsp)
  40587e:	03 00 00 00 
  405882:	44 89 b4 24 d4 80 00 	mov    %r14d,0x80d4(%rsp)
  405889:	00 
  40588a:	48 8d 8c 24 d0 80 00 	lea    0x80d0(%rsp),%rcx
  405891:	00 
  405892:	89 df                	mov    %ebx,%edi
  405894:	be 01 00 00 00       	mov    $0x1,%esi
  405899:	44 89 f2             	mov    %r14d,%edx
  40589c:	e8 1f ca ff ff       	call   4022c0 <epoll_ctl@plt>
  4058a1:	85 c0                	test   %eax,%eax
  4058a3:	0f 88 8d 06 00 00    	js     405f36 <teavpn_client_tcp_handler+0xaa6>
  4058a9:	89 5c 24 28          	mov    %ebx,0x28(%rsp)
  4058ad:	48 8d 05 f4 89 00 00 	lea    0x89f4(%rip),%rax        # 40e2a8 <__notice_level>
  4058b4:	80 38 03             	cmpb   $0x3,(%rax)
  4058b7:	72 0e                	jb     4058c7 <teavpn_client_tcp_handler+0x437>
  4058b9:	48 8d 3d cb 47 00 00 	lea    0x47cb(%rip),%rdi        # 40a08b <short_opt+0x71b>
  4058c0:	31 c0                	xor    %eax,%eax
  4058c2:	e8 99 29 00 00       	call   408260 <__pr_notice>
  4058c7:	48 8d 5c 24 58       	lea    0x58(%rsp),%rbx
  4058cc:	48 c7 44 24 5c 00 00 	movq   $0x0,0x5c(%rsp)
  4058d3:	00 00 
  4058d5:	c7 44 24 63 00 00 00 	movl   $0x0,0x63(%rsp)
  4058dc:	00 
  4058dd:	c6 44 24 5e 01       	movb   $0x1,0x5e(%rsp)
  4058e2:	48 8d 7c 24 5f       	lea    0x5f(%rsp),%rdi
  4058e7:	48 8d 35 d6 59 00 00 	lea    0x59d6(%rip),%rsi        # 40b2c4 <invalid+0x24>
  4058ee:	ba 07 00 00 00       	mov    $0x7,%edx
  4058f3:	e8 18 c8 ff ff       	call   402110 <strncpy@plt>
  4058f8:	c6 44 24 66 00       	movb   $0x0,0x66(%rsp)
  4058fd:	c7 44 24 58 00 00 00 	movl   $0xb000000,0x58(%rsp)
  405904:	0b 
  405905:	48 8d 7c 24 28       	lea    0x28(%rsp),%rdi
  40590a:	ba 0f 00 00 00       	mov    $0xf,%edx
  40590f:	48 89 de             	mov    %rbx,%rsi
  405912:	e8 99 07 00 00       	call   4060b0 <send_to_server>
  405917:	41 be ff ff ff ff    	mov    $0xffffffff,%r14d
  40591d:	48 85 c0             	test   %rax,%rax
  405920:	0f 8e 5b 05 00 00    	jle    405e81 <teavpn_client_tcp_handler+0x9f1>
  405926:	48 8d 3d db 46 00 00 	lea    0x46db(%rip),%rdi        # 40a008 <short_opt+0x698>
  40592d:	45 31 f6             	xor    %r14d,%r14d
  405930:	31 c0                	xor    %eax,%eax
  405932:	e8 29 29 00 00       	call   408260 <__pr_notice>
  405937:	8b 44 24 28          	mov    0x28(%rsp),%eax
  40593b:	89 44 24 14          	mov    %eax,0x14(%rsp)
  40593f:	0f 57 c0             	xorps  %xmm0,%xmm0
  405942:	0f 29 84 24 e0 80 00 	movaps %xmm0,0x80e0(%rsp)
  405949:	00 
  40594a:	0f 29 84 24 d0 80 00 	movaps %xmm0,0x80d0(%rsp)
  405951:	00 
  405952:	c7 84 24 f0 80 00 00 	movl   $0x0,0x80f0(%rsp)
  405959:	00 00 00 00 
  40595d:	80 7c 24 34 01       	cmpb   $0x1,0x34(%rsp)
  405962:	0f 84 19 05 00 00    	je     405e81 <teavpn_client_tcp_handler+0x9f1>
  405968:	48 8d 5c 24 5c       	lea    0x5c(%rsp),%rbx
  40596d:	48 8d b4 24 d0 80 00 	lea    0x80d0(%rsp),%rsi
  405974:	00 
  405975:	8b 7c 24 14          	mov    0x14(%rsp),%edi
  405979:	ba 03 00 00 00       	mov    $0x3,%edx
  40597e:	b9 b8 0b 00 00       	mov    $0xbb8,%ecx
  405983:	e8 68 c7 ff ff       	call   4020f0 <epoll_wait@plt>
  405988:	85 c0                	test   %eax,%eax
  40598a:	0f 84 90 04 00 00    	je     405e20 <teavpn_client_tcp_handler+0x990>
  405990:	41 89 c6             	mov    %eax,%r14d
  405993:	0f 88 61 04 00 00    	js     405dfa <teavpn_client_tcp_handler+0x96a>
  405999:	45 89 f7             	mov    %r14d,%r15d
  40599c:	45 31 e4             	xor    %r12d,%r12d
  40599f:	90                   	nop
  4059a0:	4b 8d 0c 64          	lea    (%r12,%r12,2),%rcx
  4059a4:	8b 84 8c d0 80 00 00 	mov    0x80d0(%rsp,%rcx,4),%eax
  4059ab:	44 8b ac 8c d4 80 00 	mov    0x80d4(%rsp,%rcx,4),%r13d
  4059b2:	00 
  4059b3:	44 3b 6c 24 30       	cmp    0x30(%rsp),%r13d
  4059b8:	75 42                	jne    4059fc <teavpn_client_tcp_handler+0x56c>
  4059ba:	41 be ff ff ff ff    	mov    $0xffffffff,%r14d
  4059c0:	a8 18                	test   $0x18,%al
  4059c2:	0f 85 b9 04 00 00    	jne    405e81 <teavpn_client_tcp_handler+0x9f1>
  4059c8:	83 44 24 48 01       	addl   $0x1,0x48(%rsp)
  4059cd:	ba 00 10 00 00       	mov    $0x1000,%edx
  4059d2:	44 89 ef             	mov    %r13d,%edi
  4059d5:	48 89 de             	mov    %rbx,%rsi
  4059d8:	e8 53 c9 ff ff       	call   402330 <read@plt>
  4059dd:	48 85 c0             	test   %rax,%rax
  4059e0:	0f 88 a4 02 00 00    	js     405c8a <teavpn_client_tcp_handler+0x7fa>
  4059e6:	85 c0                	test   %eax,%eax
  4059e8:	0f 88 93 04 00 00    	js     405e81 <teavpn_client_tcp_handler+0x9f1>
  4059ee:	49 83 c4 01          	add    $0x1,%r12
  4059f2:	4d 39 fc             	cmp    %r15,%r12
  4059f5:	75 a9                	jne    4059a0 <teavpn_client_tcp_handler+0x510>
  4059f7:	e9 24 04 00 00       	jmp    405e20 <teavpn_client_tcp_handler+0x990>
  4059fc:	44 3b 6c 24 2c       	cmp    0x2c(%rsp),%r13d
  405a01:	0f 85 40 06 00 00    	jne    406047 <teavpn_client_tcp_handler+0xbb7>
  405a07:	a8 18                	test   $0x18,%al
  405a09:	0f 85 46 06 00 00    	jne    406055 <teavpn_client_tcp_handler+0xbc5>
  405a0f:	48 8b 5c 24 50       	mov    0x50(%rsp),%rbx
  405a14:	ba 10 40 00 00       	mov    $0x4010,%edx
  405a19:	48 29 da             	sub    %rbx,%rdx
  405a1c:	83 44 24 40 01       	addl   $0x1,0x40(%rsp)
  405a21:	48 8d 84 24 68 40 00 	lea    0x4068(%rsp),%rax
  405a28:	00 
  405a29:	48 8d 34 18          	lea    (%rax,%rbx,1),%rsi
  405a2d:	44 89 ef             	mov    %r13d,%edi
  405a30:	31 c9                	xor    %ecx,%ecx
  405a32:	e8 69 c6 ff ff       	call   4020a0 <recv@plt>
  405a37:	48 85 c0             	test   %rax,%rax
  405a3a:	0f 88 d1 02 00 00    	js     405d11 <teavpn_client_tcp_handler+0x881>
  405a40:	0f 84 ff 02 00 00    	je     405d45 <teavpn_client_tcp_handler+0x8b5>
  405a46:	48 89 c5             	mov    %rax,%rbp
  405a49:	48 01 dd             	add    %rbx,%rbp
  405a4c:	48 83 fd 04          	cmp    $0x4,%rbp
  405a50:	0f 82 49 02 00 00    	jb     405c9f <teavpn_client_tcp_handler+0x80f>
  405a56:	66 2e 0f 1f 84 00 00 	cs nopw 0x0(%rax,%rax,1)
  405a5d:	00 00 00 
  405a60:	0f b7 84 24 6a 40 00 	movzwl 0x406a(%rsp),%eax
  405a67:	00 
  405a68:	89 c1                	mov    %eax,%ecx
  405a6a:	66 c1 c1 08          	rol    $0x8,%cx
  405a6e:	0f b7 d1             	movzwl %cx,%edx
  405a71:	81 fa 05 10 00 00    	cmp    $0x1005,%edx
  405a77:	0f 83 31 02 00 00    	jae    405cae <teavpn_client_tcp_handler+0x81e>
  405a7d:	44 0f b6 b4 24 69 40 	movzbl 0x4069(%rsp),%r14d
  405a84:	00 00 
  405a86:	49 01 d6             	add    %rdx,%r14
  405a89:	48 8d 5d fc          	lea    -0x4(%rbp),%rbx
  405a8d:	4c 39 f3             	cmp    %r14,%rbx
  405a90:	0f 82 09 02 00 00    	jb     405c9f <teavpn_client_tcp_handler+0x80f>
  405a96:	0f b6 8c 24 68 40 00 	movzbl 0x4068(%rsp),%ecx
  405a9d:	00 
  405a9e:	8d 71 fe             	lea    -0x2(%rcx),%esi
  405aa1:	40 80 fe 05          	cmp    $0x5,%sil
  405aa5:	73 38                	jae    405adf <teavpn_client_tcp_handler+0x64f>
  405aa7:	4c 39 f3             	cmp    %r14,%rbx
  405aaa:	0f 86 50 02 00 00    	jbe    405d00 <teavpn_client_tcp_handler+0x870>
  405ab0:	49 8d 46 04          	lea    0x4(%r14),%rax
  405ab4:	48 29 c5             	sub    %rax,%rbp
  405ab7:	48 8d bc 24 68 40 00 	lea    0x4068(%rsp),%rdi
  405abe:	00 
  405abf:	4a 8d 34 37          	lea    (%rdi,%r14,1),%rsi
  405ac3:	48 83 c6 04          	add    $0x4,%rsi
  405ac7:	48 89 ea             	mov    %rbp,%rdx
  405aca:	e8 d1 c8 ff ff       	call   4023a0 <memmove@plt>
  405acf:	48 83 fd 03          	cmp    $0x3,%rbp
  405ad3:	48 8d 5c 24 5c       	lea    0x5c(%rsp),%rbx
  405ad8:	77 86                	ja     405a60 <teavpn_client_tcp_handler+0x5d0>
  405ada:	e9 28 02 00 00       	jmp    405d07 <teavpn_client_tcp_handler+0x877>
  405adf:	84 c9                	test   %cl,%cl
  405ae1:	0f 85 cb 00 00 00    	jne    405bb2 <teavpn_client_tcp_handler+0x722>
  405ae7:	80 7c 24 35 00       	cmpb   $0x0,0x35(%rsp)
  405aec:	75 b9                	jne    405aa7 <teavpn_client_tcp_handler+0x617>
  405aee:	66 85 c0             	test   %ax,%ax
  405af1:	0f 85 98 02 00 00    	jne    405d8f <teavpn_client_tcp_handler+0x8ff>
  405af7:	48 8d 3d 91 47 00 00 	lea    0x4791(%rip),%rdi        # 40a28f <short_opt+0x91f>
  405afe:	31 c0                	xor    %eax,%eax
  405b00:	e8 5b 27 00 00       	call   408260 <__pr_notice>
  405b05:	48 8b 44 24 38       	mov    0x38(%rsp),%rax
  405b0a:	48 8b 70 30          	mov    0x30(%rax),%rsi
  405b0e:	48 8b 40 38          	mov    0x38(%rax),%rax
  405b12:	48 89 44 24 18       	mov    %rax,0x18(%rsp)
  405b17:	48 8d 05 8a 87 00 00 	lea    0x878a(%rip),%rax        # 40e2a8 <__notice_level>
  405b1e:	80 38 03             	cmpb   $0x3,(%rax)
  405b21:	72 1d                	jb     405b40 <teavpn_client_tcp_handler+0x6b0>
  405b23:	48 8d 3d 84 47 00 00 	lea    0x4784(%rip),%rdi        # 40a2ae <short_opt+0x93e>
  405b2a:	48 89 74 24 08       	mov    %rsi,0x8(%rsp)
  405b2f:	48 8b 74 24 08       	mov    0x8(%rsp),%rsi
  405b34:	31 c0                	xor    %eax,%eax
  405b36:	e8 25 27 00 00       	call   408260 <__pr_notice>
  405b3b:	48 8b 74 24 08       	mov    0x8(%rsp),%rsi
  405b40:	0f 57 c0             	xorps  %xmm0,%xmm0
  405b43:	48 8d 7c 24 5c       	lea    0x5c(%rsp),%rdi
  405b48:	0f 11 47 70          	movups %xmm0,0x70(%rdi)
  405b4c:	0f 11 47 60          	movups %xmm0,0x60(%rdi)
  405b50:	0f 11 47 50          	movups %xmm0,0x50(%rdi)
  405b54:	0f 11 47 40          	movups %xmm0,0x40(%rdi)
  405b58:	0f 11 47 30          	movups %xmm0,0x30(%rdi)
  405b5c:	0f 11 47 20          	movups %xmm0,0x20(%rdi)
  405b60:	0f 11 47 10          	movups %xmm0,0x10(%rdi)
  405b64:	0f 11 07             	movups %xmm0,(%rdi)
  405b67:	ba 3f 00 00 00       	mov    $0x3f,%edx
  405b6c:	e8 9f c5 ff ff       	call   402110 <strncpy@plt>
  405b71:	ba 3f 00 00 00       	mov    $0x3f,%edx
  405b76:	48 8d bc 24 9c 00 00 	lea    0x9c(%rsp),%rdi
  405b7d:	00 
  405b7e:	48 8b 74 24 18       	mov    0x18(%rsp),%rsi
  405b83:	e8 88 c5 ff ff       	call   402110 <strncpy@plt>
  405b88:	c7 44 24 58 01 00 00 	movl   $0x80000001,0x58(%rsp)
  405b8f:	80 
  405b90:	ba 84 00 00 00       	mov    $0x84,%edx
  405b95:	48 8d 7c 24 28       	lea    0x28(%rsp),%rdi
  405b9a:	48 8d 74 24 58       	lea    0x58(%rsp),%rsi
  405b9f:	e8 0c 05 00 00       	call   4060b0 <send_to_server>
  405ba4:	48 85 c0             	test   %rax,%rax
  405ba7:	0f 8f fa fe ff ff    	jg     405aa7 <teavpn_client_tcp_handler+0x617>
  405bad:	e9 a1 01 00 00       	jmp    405d53 <teavpn_client_tcp_handler+0x8c3>
  405bb2:	80 f9 01             	cmp    $0x1,%cl
  405bb5:	0f 85 1e 02 00 00    	jne    405dd9 <teavpn_client_tcp_handler+0x949>
  405bbb:	0f b7 c0             	movzwl %ax,%eax
  405bbe:	3d 00 52 00 00       	cmp    $0x5200,%eax
  405bc3:	0f 85 fb 01 00 00    	jne    405dc4 <teavpn_client_tcp_handler+0x934>
  405bc9:	48 8b 44 24 38       	mov    0x38(%rsp),%rax
  405bce:	0f b6 48 18          	movzbl 0x18(%rax),%ecx
  405bd2:	88 4c 24 08          	mov    %cl,0x8(%rsp)
  405bd6:	48 8b 70 10          	mov    0x10(%rax),%rsi
  405bda:	ba 10 00 00 00       	mov    $0x10,%edx
  405bdf:	48 8d bc 24 6c 40 00 	lea    0x406c(%rsp),%rdi
  405be6:	00 
  405be7:	e8 24 c5 ff ff       	call   402110 <strncpy@plt>
  405bec:	c6 84 24 7b 40 00 00 	movb   $0x0,0x407b(%rsp)
  405bf3:	00 
  405bf4:	66 c1 84 24 bc 40 00 	rolw   $0x8,0x40bc(%rsp)
  405bfb:	00 08 
  405bfd:	48 8d 3d 06 47 00 00 	lea    0x4706(%rip),%rdi        # 40a30a <short_opt+0x99a>
  405c04:	31 c0                	xor    %eax,%eax
  405c06:	e8 55 26 00 00       	call   408260 <__pr_notice>
  405c0b:	80 7c 24 08 00       	cmpb   $0x0,0x8(%rsp)
  405c10:	75 10                	jne    405c22 <teavpn_client_tcp_handler+0x792>
  405c12:	c6 84 24 7c 40 00 00 	movb   $0x0,0x407c(%rsp)
  405c19:	00 
  405c1a:	c6 84 24 ac 40 00 00 	movb   $0x0,0x40ac(%rsp)
  405c21:	00 
  405c22:	48 8d bc 24 6c 40 00 	lea    0x406c(%rsp),%rdi
  405c29:	00 
  405c2a:	0f b7 47 50          	movzwl 0x50(%rdi),%eax
  405c2e:	48 8d 4c 24 5c       	lea    0x5c(%rsp),%rcx
  405c33:	66 89 81 6c 80 00 00 	mov    %ax,0x806c(%rcx)
  405c3a:	0f 10 47 40          	movups 0x40(%rdi),%xmm0
  405c3e:	0f 11 81 5c 80 00 00 	movups %xmm0,0x805c(%rcx)
  405c45:	0f 10 07             	movups (%rdi),%xmm0
  405c48:	0f 10 4f 10          	movups 0x10(%rdi),%xmm1
  405c4c:	0f 10 57 20          	movups 0x20(%rdi),%xmm2
  405c50:	0f 10 5f 30          	movups 0x30(%rdi),%xmm3
  405c54:	0f 11 99 4c 80 00 00 	movups %xmm3,0x804c(%rcx)
  405c5b:	0f 11 91 3c 80 00 00 	movups %xmm2,0x803c(%rcx)
  405c62:	0f 11 89 2c 80 00 00 	movups %xmm1,0x802c(%rcx)
  405c69:	0f 11 81 1c 80 00 00 	movups %xmm0,0x801c(%rcx)
  405c70:	e8 ab 15 00 00       	call   407220 <teavpn_iface_up>
  405c75:	84 c0                	test   %al,%al
  405c77:	0f 84 50 01 00 00    	je     405dcd <teavpn_client_tcp_handler+0x93d>
  405c7d:	c6 84 24 ca 80 00 00 	movb   $0x1,0x80ca(%rsp)
  405c84:	01 
  405c85:	e9 1d fe ff ff       	jmp    405aa7 <teavpn_client_tcp_handler+0x617>
  405c8a:	e8 a1 c3 ff ff       	call   402030 <__errno_location@plt>
  405c8f:	8b 28                	mov    (%rax),%ebp
  405c91:	83 fd 0b             	cmp    $0xb,%ebp
  405c94:	0f 84 54 fd ff ff    	je     4059ee <teavpn_client_tcp_handler+0x55e>
  405c9a:	e9 c5 01 00 00       	jmp    405e64 <teavpn_client_tcp_handler+0x9d4>
  405c9f:	48 8d 5c 24 5c       	lea    0x5c(%rsp),%rbx
  405ca4:	48 89 6c 24 50       	mov    %rbp,0x50(%rsp)
  405ca9:	e9 40 fd ff ff       	jmp    4059ee <teavpn_client_tcp_handler+0x55e>
  405cae:	be 04 10 00 00       	mov    $0x1004,%esi
  405cb3:	48 8d 3d e6 44 00 00 	lea    0x44e6(%rip),%rdi        # 40a1a0 <short_opt+0x830>
  405cba:	48 89 e9             	mov    %rbp,%rcx
  405cbd:	31 c0                	xor    %eax,%eax
  405cbf:	e8 9c 25 00 00       	call   408260 <__pr_notice>
  405cc4:	80 7c 24 35 00       	cmpb   $0x0,0x35(%rsp)
  405cc9:	0f 84 84 00 00 00    	je     405d53 <teavpn_client_tcp_handler+0x8c3>
  405ccf:	48 c7 44 24 50 00 00 	movq   $0x0,0x50(%rsp)
  405cd6:	00 00 
  405cd8:	8a 44 24 36          	mov    0x36(%rsp),%al
  405cdc:	8d 48 01             	lea    0x1(%rax),%ecx
  405cdf:	88 4c 24 36          	mov    %cl,0x36(%rsp)
  405ce3:	3c 0f                	cmp    $0xf,%al
  405ce5:	48 8d 5c 24 5c       	lea    0x5c(%rsp),%rbx
  405cea:	0f 82 fe fc ff ff    	jb     4059ee <teavpn_client_tcp_handler+0x55e>
  405cf0:	48 8d 3d 3c 44 00 00 	lea    0x443c(%rip),%rdi        # 40a133 <short_opt+0x7c3>
  405cf7:	31 c0                	xor    %eax,%eax
  405cf9:	e8 b2 20 00 00       	call   407db0 <__pr_error>
  405cfe:	eb 53                	jmp    405d53 <teavpn_client_tcp_handler+0x8c3>
  405d00:	31 ed                	xor    %ebp,%ebp
  405d02:	48 8d 5c 24 5c       	lea    0x5c(%rsp),%rbx
  405d07:	48 89 6c 24 50       	mov    %rbp,0x50(%rsp)
  405d0c:	e9 dd fc ff ff       	jmp    4059ee <teavpn_client_tcp_handler+0x55e>
  405d11:	e8 1a c3 ff ff       	call   402030 <__errno_location@plt>
  405d16:	8b 28                	mov    (%rax),%ebp
  405d18:	83 fd 0b             	cmp    $0xb,%ebp
  405d1b:	48 8d 5c 24 5c       	lea    0x5c(%rsp),%rbx
  405d20:	0f 84 c8 fc ff ff    	je     4059ee <teavpn_client_tcp_handler+0x55e>
  405d26:	89 ef                	mov    %ebp,%edi
  405d28:	e8 83 c3 ff ff       	call   4020b0 <strerror@plt>
  405d2d:	48 8d 3d 36 44 00 00 	lea    0x4436(%rip),%rdi        # 40a16a <short_opt+0x7fa>
  405d34:	44 89 ee             	mov    %r13d,%esi
  405d37:	89 ea                	mov    %ebp,%edx
  405d39:	48 89 c1             	mov    %rax,%rcx
  405d3c:	31 c0                	xor    %eax,%eax
  405d3e:	e8 6d 20 00 00       	call   407db0 <__pr_error>
  405d43:	eb 8a                	jmp    405ccf <teavpn_client_tcp_handler+0x83f>
  405d45:	48 8d 3d 33 44 00 00 	lea    0x4433(%rip),%rdi        # 40a17f <short_opt+0x80f>
  405d4c:	31 c0                	xor    %eax,%eax
  405d4e:	e8 0d 25 00 00       	call   408260 <__pr_notice>
  405d53:	c6 44 24 34 01       	movb   $0x1,0x34(%rsp)
  405d58:	8b 7c 24 28          	mov    0x28(%rsp),%edi
  405d5c:	be 02 00 00 00       	mov    $0x2,%esi
  405d61:	44 89 ea             	mov    %r13d,%edx
  405d64:	31 c9                	xor    %ecx,%ecx
  405d66:	e8 55 c5 ff ff       	call   4022c0 <epoll_ctl@plt>
  405d6b:	85 c0                	test   %eax,%eax
  405d6d:	78 32                	js     405da1 <teavpn_client_tcp_handler+0x911>
  405d6f:	44 89 ef             	mov    %r13d,%edi
  405d72:	e8 a9 c6 ff ff       	call   402420 <close@plt>
  405d77:	48 8d 3d d6 43 00 00 	lea    0x43d6(%rip),%rdi        # 40a154 <short_opt+0x7e4>
  405d7e:	31 c0                	xor    %eax,%eax
  405d80:	e8 db 24 00 00       	call   408260 <__pr_notice>
  405d85:	48 8d 5c 24 5c       	lea    0x5c(%rsp),%rbx
  405d8a:	e9 5f fc ff ff       	jmp    4059ee <teavpn_client_tcp_handler+0x55e>
  405d8f:	48 8d 3d b9 44 00 00 	lea    0x44b9(%rip),%rdi        # 40a24f <short_opt+0x8df>
  405d96:	89 d6                	mov    %edx,%esi
  405d98:	31 c0                	xor    %eax,%eax
  405d9a:	e8 c1 24 00 00       	call   408260 <__pr_notice>
  405d9f:	eb b2                	jmp    405d53 <teavpn_client_tcp_handler+0x8c3>
  405da1:	e8 8a c2 ff ff       	call   402030 <__errno_location@plt>
  405da6:	8b 28                	mov    (%rax),%ebp
  405da8:	89 ef                	mov    %ebp,%edi
  405daa:	e8 01 c3 ff ff       	call   4020b0 <strerror@plt>
  405daf:	48 8d 3d 16 39 00 00 	lea    0x3916(%rip),%rdi        # 4096cc <_IO_stdin_used+0x6cc>
  405db6:	89 ee                	mov    %ebp,%esi
  405db8:	48 89 c2             	mov    %rax,%rdx
  405dbb:	31 c0                	xor    %eax,%eax
  405dbd:	e8 ee 1f 00 00       	call   407db0 <__pr_error>
  405dc2:	eb ab                	jmp    405d6f <teavpn_client_tcp_handler+0x8df>
  405dc4:	48 8d 3d fb 44 00 00 	lea    0x44fb(%rip),%rdi        # 40a2c6 <short_opt+0x956>
  405dcb:	eb c9                	jmp    405d96 <teavpn_client_tcp_handler+0x906>
  405dcd:	48 8d 3d 10 33 00 00 	lea    0x3310(%rip),%rdi        # 4090e4 <_IO_stdin_used+0xe4>
  405dd4:	e9 1e ff ff ff       	jmp    405cf7 <teavpn_client_tcp_handler+0x867>
  405dd9:	0f b6 f1             	movzbl %cl,%esi
  405ddc:	48 8d 3d 2e 44 00 00 	lea    0x442e(%rip),%rdi        # 40a211 <short_opt+0x8a1>
  405de3:	31 c0                	xor    %eax,%eax
  405de5:	e8 76 24 00 00       	call   408260 <__pr_notice>
  405dea:	80 7c 24 35 00       	cmpb   $0x0,0x35(%rsp)
  405def:	0f 85 da fe ff ff    	jne    405ccf <teavpn_client_tcp_handler+0x83f>
  405df5:	e9 59 ff ff ff       	jmp    405d53 <teavpn_client_tcp_handler+0x8c3>
  405dfa:	e8 31 c2 ff ff       	call   402030 <__errno_location@plt>
  405dff:	8b 28                	mov    (%rax),%ebp
  405e01:	83 fd 04             	cmp    $0x4,%ebp
  405e04:	0f 85 2e 00 00 00    	jne    405e38 <teavpn_client_tcp_handler+0x9a8>
  405e0a:	48 8d 3d 5d 34 00 00 	lea    0x345d(%rip),%rdi        # 40926e <_IO_stdin_used+0x26e>
  405e11:	31 c0                	xor    %eax,%eax
  405e13:	e8 48 24 00 00       	call   408260 <__pr_notice>
  405e18:	0f 1f 84 00 00 00 00 	nopl   0x0(%rax,%rax,1)
  405e1f:	00 
  405e20:	80 7c 24 34 01       	cmpb   $0x1,0x34(%rsp)
  405e25:	48 8d b4 24 d0 80 00 	lea    0x80d0(%rsp),%rsi
  405e2c:	00 
  405e2d:	0f 85 42 fb ff ff    	jne    405975 <teavpn_client_tcp_handler+0x4e5>
  405e33:	e9 07 02 00 00       	jmp    40603f <teavpn_client_tcp_handler+0xbaf>
  405e38:	89 ef                	mov    %ebp,%edi
  405e3a:	e8 71 c2 ff ff       	call   4020b0 <strerror@plt>
  405e3f:	48 8d 3d 35 34 00 00 	lea    0x3435(%rip),%rdi        # 40927b <_IO_stdin_used+0x27b>
  405e46:	89 ee                	mov    %ebp,%esi
  405e48:	48 89 c2             	mov    %rax,%rdx
  405e4b:	31 c0                	xor    %eax,%eax
  405e4d:	e8 5e 1f 00 00       	call   407db0 <__pr_error>
  405e52:	41 89 ee             	mov    %ebp,%r14d
  405e55:	41 f7 de             	neg    %r14d
  405e58:	85 ed                	test   %ebp,%ebp
  405e5a:	74 c4                	je     405e20 <teavpn_client_tcp_handler+0x990>
  405e5c:	0f 8e 37 fb ff ff    	jle    405999 <teavpn_client_tcp_handler+0x509>
  405e62:	eb 1d                	jmp    405e81 <teavpn_client_tcp_handler+0x9f1>
  405e64:	89 ef                	mov    %ebp,%edi
  405e66:	e8 45 c2 ff ff       	call   4020b0 <strerror@plt>
  405e6b:	48 8d 3d 42 34 00 00 	lea    0x3442(%rip),%rdi        # 4092b4 <_IO_stdin_used+0x2b4>
  405e72:	44 89 ee             	mov    %r13d,%esi
  405e75:	89 ea                	mov    %ebp,%edx
  405e77:	48 89 c1             	mov    %rax,%rcx
  405e7a:	31 c0                	xor    %eax,%eax
  405e7c:	e8 2f 1f 00 00       	call   407db0 <__pr_error>
  405e81:	80 bc 24 ca 80 00 00 	cmpb   $0x0,0x80ca(%rsp)
  405e88:	00 
  405e89:	74 1b                	je     405ea6 <teavpn_client_tcp_handler+0xa16>
  405e8b:	48 8d 3d 5c 38 00 00 	lea    0x385c(%rip),%rdi        # 4096ee <_IO_stdin_used+0x6ee>
  405e92:	31 c0                	xor    %eax,%eax
  405e94:	e8 c7 23 00 00       	call   408260 <__pr_notice>
  405e99:	48 8d bc 24 78 80 00 	lea    0x8078(%rsp),%rdi
  405ea0:	00 
  405ea1:	e8 ca 1b 00 00       	call   407a70 <teavpn_iface_down>
  405ea6:	44 8b 7c 24 28       	mov    0x28(%rsp),%r15d
  405eab:	8b 6c 24 2c          	mov    0x2c(%rsp),%ebp
  405eaf:	8b 5c 24 30          	mov    0x30(%rsp),%ebx
  405eb3:	83 fb ff             	cmp    $0xffffffff,%ebx
  405eb6:	74 17                	je     405ecf <teavpn_client_tcp_handler+0xa3f>
  405eb8:	48 8d 3d 4d 38 00 00 	lea    0x384d(%rip),%rdi        # 40970c <_IO_stdin_used+0x70c>
  405ebf:	89 de                	mov    %ebx,%esi
  405ec1:	31 c0                	xor    %eax,%eax
  405ec3:	e8 98 23 00 00       	call   408260 <__pr_notice>
  405ec8:	89 df                	mov    %ebx,%edi
  405eca:	e8 51 c5 ff ff       	call   402420 <close@plt>
  405ecf:	83 fd ff             	cmp    $0xffffffff,%ebp
  405ed2:	74 17                	je     405eeb <teavpn_client_tcp_handler+0xa5b>
  405ed4:	48 8d 3d 4c 38 00 00 	lea    0x384c(%rip),%rdi        # 409727 <_IO_stdin_used+0x727>
  405edb:	89 ee                	mov    %ebp,%esi
  405edd:	31 c0                	xor    %eax,%eax
  405edf:	e8 7c 23 00 00       	call   408260 <__pr_notice>
  405ee4:	89 ef                	mov    %ebp,%edi
  405ee6:	e8 35 c5 ff ff       	call   402420 <close@plt>
  405eeb:	41 83 ff ff          	cmp    $0xffffffff,%r15d
  405eef:	74 19                	je     405f0a <teavpn_client_tcp_handler+0xa7a>
  405ef1:	48 8d 3d 4a 38 00 00 	lea    0x384a(%rip),%rdi        # 409742 <_IO_stdin_used+0x742>
  405ef8:	44 89 fe             	mov    %r15d,%esi
  405efb:	31 c0                	xor    %eax,%eax
  405efd:	e8 5e 23 00 00       	call   408260 <__pr_notice>
  405f02:	44 89 ff             	mov    %r15d,%edi
  405f05:	e8 16 c5 ff ff       	call   402420 <close@plt>
  405f0a:	64 48 8b 04 25 28 00 	mov    %fs:0x28,%rax
  405f11:	00 00 
  405f13:	48 3b 84 24 00 81 00 	cmp    0x8100(%rsp),%rax
  405f1a:	00 
  405f1b:	0f 85 3f 01 00 00    	jne    406060 <teavpn_client_tcp_handler+0xbd0>
  405f21:	44 89 f0             	mov    %r14d,%eax
  405f24:	48 81 c4 08 81 00 00 	add    $0x8108,%rsp
  405f2b:	5b                   	pop    %rbx
  405f2c:	41 5c                	pop    %r12
  405f2e:	41 5d                	pop    %r13
  405f30:	41 5e                	pop    %r14
  405f32:	41 5f                	pop    %r15
  405f34:	5d                   	pop    %rbp
  405f35:	c3                   	ret    
  405f36:	e8 f5 c0 ff ff       	call   402030 <__errno_location@plt>
  405f3b:	8b 28                	mov    (%rax),%ebp
  405f3d:	89 ef                	mov    %ebp,%edi
  405f3f:	e8 6c c1 ff ff       	call   4020b0 <strerror@plt>
  405f44:	48 8d 3d 01 33 00 00 	lea    0x3301(%rip),%rdi        # 40924c <_IO_stdin_used+0x24c>
  405f4b:	89 ee                	mov    %ebp,%esi
  405f4d:	48 89 c2             	mov    %rax,%rdx
  405f50:	31 c0                	xor    %eax,%eax
  405f52:	e8 59 1e 00 00       	call   407db0 <__pr_error>
  405f57:	85 db                	test   %ebx,%ebx
  405f59:	0f 8e f6 00 00 00    	jle    406055 <teavpn_client_tcp_handler+0xbc5>
  405f5f:	89 df                	mov    %ebx,%edi
  405f61:	e8 ba c4 ff ff       	call   402420 <close@plt>
  405f66:	e9 ea 00 00 00       	jmp    406055 <teavpn_client_tcp_handler+0xbc5>
  405f6b:	e8 c0 c0 ff ff       	call   402030 <__errno_location@plt>
  405f70:	8b 18                	mov    (%rax),%ebx
  405f72:	41 89 de             	mov    %ebx,%r14d
  405f75:	41 f7 de             	neg    %r14d
  405f78:	89 df                	mov    %ebx,%edi
  405f7a:	e8 31 c1 ff ff       	call   4020b0 <strerror@plt>
  405f7f:	48 8d 3d 9f 31 00 00 	lea    0x319f(%rip),%rdi        # 409125 <_IO_stdin_used+0x125>
  405f86:	89 de                	mov    %ebx,%esi
  405f88:	48 89 c2             	mov    %rax,%rdx
  405f8b:	31 c0                	xor    %eax,%eax
  405f8d:	e8 1e 1e 00 00       	call   407db0 <__pr_error>
  405f92:	e9 66 f8 ff ff       	jmp    4057fd <teavpn_client_tcp_handler+0x36d>
  405f97:	e8 94 c0 ff ff       	call   402030 <__errno_location@plt>
  405f9c:	8b 18                	mov    (%rax),%ebx
  405f9e:	89 df                	mov    %ebx,%edi
  405fa0:	e8 0b c1 ff ff       	call   4020b0 <strerror@plt>
  405fa5:	48 8d 3d 88 32 00 00 	lea    0x3288(%rip),%rdi        # 409234 <_IO_stdin_used+0x234>
  405fac:	89 de                	mov    %ebx,%esi
  405fae:	48 89 c2             	mov    %rax,%rdx
  405fb1:	31 c0                	xor    %eax,%eax
  405fb3:	e8 f8 1d 00 00       	call   407db0 <__pr_error>
  405fb8:	e9 98 00 00 00       	jmp    406055 <teavpn_client_tcp_handler+0xbc5>
  405fbd:	41 89 c6             	mov    %eax,%r14d
  405fc0:	48 8d 2d d8 31 00 00 	lea    0x31d8(%rip),%rbp        # 40919f <_IO_stdin_used+0x19f>
  405fc7:	eb 41                	jmp    40600a <teavpn_client_tcp_handler+0xb7a>
  405fc9:	41 89 c6             	mov    %eax,%r14d
  405fcc:	48 8d 2d e5 31 00 00 	lea    0x31e5(%rip),%rbp        # 4091b8 <_IO_stdin_used+0x1b8>
  405fd3:	4c 8d 25 d2 31 00 00 	lea    0x31d2(%rip),%r12        # 4091ac <_IO_stdin_used+0x1ac>
  405fda:	eb 2e                	jmp    40600a <teavpn_client_tcp_handler+0xb7a>
  405fdc:	41 89 c6             	mov    %eax,%r14d
  405fdf:	48 8d 2d de 31 00 00 	lea    0x31de(%rip),%rbp        # 4091c4 <_IO_stdin_used+0x1c4>
  405fe6:	eb 22                	jmp    40600a <teavpn_client_tcp_handler+0xb7a>
  405fe8:	41 89 c6             	mov    %eax,%r14d
  405feb:	48 8d 2d e2 31 00 00 	lea    0x31e2(%rip),%rbp        # 4091d4 <_IO_stdin_used+0x1d4>
  405ff2:	eb 16                	jmp    40600a <teavpn_client_tcp_handler+0xb7a>
  405ff4:	41 89 c6             	mov    %eax,%r14d
  405ff7:	48 8d 2d e5 31 00 00 	lea    0x31e5(%rip),%rbp        # 4091e3 <_IO_stdin_used+0x1e3>
  405ffe:	eb 0a                	jmp    40600a <teavpn_client_tcp_handler+0xb7a>
  406000:	41 89 c6             	mov    %eax,%r14d
  406003:	48 8d 2d e8 31 00 00 	lea    0x31e8(%rip),%rbp        # 4091f2 <_IO_stdin_used+0x1f2>
  40600a:	e8 21 c0 ff ff       	call   402030 <__errno_location@plt>
  40600f:	8b 18                	mov    (%rax),%ebx
  406011:	89 df                	mov    %ebx,%edi
  406013:	e8 98 c0 ff ff       	call   4020b0 <strerror@plt>
  406018:	48 8d 3d e0 31 00 00 	lea    0x31e0(%rip),%rdi        # 4091ff <_IO_stdin_used+0x1ff>
  40601f:	4c 89 e6             	mov    %r12,%rsi
  406022:	48 89 ea             	mov    %rbp,%rdx
  406025:	89 d9                	mov    %ebx,%ecx
  406027:	49 89 c0             	mov    %rax,%r8
  40602a:	31 c0                	xor    %eax,%eax
  40602c:	e8 7f 1d 00 00       	call   407db0 <__pr_error>
  406031:	45 85 ed             	test   %r13d,%r13d
  406034:	0f 8f bb f7 ff ff    	jg     4057f5 <teavpn_client_tcp_handler+0x365>
  40603a:	e9 be f7 ff ff       	jmp    4057fd <teavpn_client_tcp_handler+0x36d>
  40603f:	45 31 f6             	xor    %r14d,%r14d
  406042:	e9 3a fe ff ff       	jmp    405e81 <teavpn_client_tcp_handler+0x9f1>
  406047:	48 8d 3d bc 40 00 00 	lea    0x40bc(%rip),%rdi        # 40a10a <short_opt+0x79a>
  40604e:	31 c0                	xor    %eax,%eax
  406050:	e8 5b 1d 00 00       	call   407db0 <__pr_error>
  406055:	41 be ff ff ff ff    	mov    $0xffffffff,%r14d
  40605b:	e9 21 fe ff ff       	jmp    405e81 <teavpn_client_tcp_handler+0x9f1>
  406060:	e8 db c1 ff ff       	call   402240 <__stack_chk_fail@plt>
  406065:	66 2e 0f 1f 84 00 00 	cs nopw 0x0(%rax,%rax,1)
  40606c:	00 00 00 
  40606f:	90                   	nop

0000000000406070 <handle_interrupt>:
  406070:	53                   	push   %rbx
  406071:	89 fb                	mov    %edi,%ebx
  406073:	48 8b 05 4e 82 00 00 	mov    0x824e(%rip),%rax        # 40e2c8 <g_state>
  40607a:	c6 40 0c 01          	movb   $0x1,0xc(%rax)
  40607e:	48 8b 05 4b 7f 00 00 	mov    0x7f4b(%rip),%rax        # 40dfd0 <stdout@GLIBC_2.2.5>
  406085:	48 8b 30             	mov    (%rax),%rsi
  406088:	bf 0a 00 00 00       	mov    $0xa,%edi
  40608d:	e8 7e c3 ff ff       	call   402410 <putc@plt>
  406092:	89 df                	mov    %ebx,%edi
  406094:	e8 37 c3 ff ff       	call   4023d0 <strsignal@plt>
  406099:	48 8d 3d d2 2f 00 00 	lea    0x2fd2(%rip),%rdi        # 409072 <_IO_stdin_used+0x72>
  4060a0:	89 de                	mov    %ebx,%esi
  4060a2:	48 89 c2             	mov    %rax,%rdx
  4060a5:	31 c0                	xor    %eax,%eax
  4060a7:	5b                   	pop    %rbx
  4060a8:	e9 b3 21 00 00       	jmp    408260 <__pr_notice>
  4060ad:	0f 1f 00             	nopl   (%rax)

00000000004060b0 <send_to_server>:
  4060b0:	55                   	push   %rbp
  4060b1:	41 56                	push   %r14
  4060b3:	53                   	push   %rbx
  4060b4:	48 89 d3             	mov    %rdx,%rbx
  4060b7:	44 8b 77 04          	mov    0x4(%rdi),%r14d
  4060bb:	0f b6 46 01          	movzbl 0x1(%rsi),%eax
  4060bf:	48 01 c3             	add    %rax,%rbx
  4060c2:	83 47 1c 01          	addl   $0x1,0x1c(%rdi)
  4060c6:	44 89 f7             	mov    %r14d,%edi
  4060c9:	48 89 da             	mov    %rbx,%rdx
  4060cc:	31 c9                	xor    %ecx,%ecx
  4060ce:	e8 2d c0 ff ff       	call   402100 <send@plt>
  4060d3:	48 85 c0             	test   %rax,%rax
  4060d6:	78 10                	js     4060e8 <send_to_server+0x38>
  4060d8:	48 89 c5             	mov    %rax,%rbp
  4060db:	48 39 c3             	cmp    %rax,%rbx
  4060de:	75 26                	jne    406106 <send_to_server+0x56>
  4060e0:	48 89 d8             	mov    %rbx,%rax
  4060e3:	5b                   	pop    %rbx
  4060e4:	41 5e                	pop    %r14
  4060e6:	5d                   	pop    %rbp
  4060e7:	c3                   	ret    
  4060e8:	e8 43 bf ff ff       	call   402030 <__errno_location@plt>
  4060ed:	8b 18                	mov    (%rax),%ebx
  4060ef:	83 fb 0b             	cmp    $0xb,%ebx
  4060f2:	75 2b                	jne    40611f <send_to_server+0x6f>
  4060f4:	48 8d 3d b2 3f 00 00 	lea    0x3fb2(%rip),%rdi        # 40a0ad <short_opt+0x73d>
  4060fb:	31 db                	xor    %ebx,%ebx
  4060fd:	31 c0                	xor    %eax,%eax
  4060ff:	e8 ac 1c 00 00       	call   407db0 <__pr_error>
  406104:	eb da                	jmp    4060e0 <send_to_server+0x30>
  406106:	48 8d 3d c0 3f 00 00 	lea    0x3fc0(%rip),%rdi        # 40a0cd <short_opt+0x75d>
  40610d:	48 89 de             	mov    %rbx,%rsi
  406110:	48 89 ea             	mov    %rbp,%rdx
  406113:	31 c0                	xor    %eax,%eax
  406115:	e8 96 1c 00 00       	call   407db0 <__pr_error>
  40611a:	48 89 eb             	mov    %rbp,%rbx
  40611d:	eb c1                	jmp    4060e0 <send_to_server+0x30>
  40611f:	89 df                	mov    %ebx,%edi
  406121:	e8 8a bf ff ff       	call   4020b0 <strerror@plt>
  406126:	48 8d 3d 8a 34 00 00 	lea    0x348a(%rip),%rdi        # 4095b7 <_IO_stdin_used+0x5b7>
  40612d:	44 89 f6             	mov    %r14d,%esi
  406130:	89 da                	mov    %ebx,%edx
  406132:	48 89 c1             	mov    %rax,%rcx
  406135:	31 c0                	xor    %eax,%eax
  406137:	e8 74 1c 00 00       	call   407db0 <__pr_error>
  40613c:	48 c7 c3 ff ff ff ff 	mov    $0xffffffffffffffff,%rbx
  406143:	eb 9b                	jmp    4060e0 <send_to_server+0x30>
  406145:	66 2e 0f 1f 84 00 00 	cs nopw 0x0(%rax,%rax,1)
  40614c:	00 00 00 
  40614f:	90                   	nop

0000000000406150 <teavpn_client_argv_parse>:
  406150:	55                   	push   %rbp
  406151:	41 57                	push   %r15
  406153:	41 56                	push   %r14
  406155:	41 55                	push   %r13
  406157:	41 54                	push   %r12
  406159:	53                   	push   %rbx
  40615a:	48 83 ec 28          	sub    $0x28,%rsp
  40615e:	49 89 d5             	mov    %rdx,%r13
  406161:	49 89 f6             	mov    %rsi,%r14
  406164:	41 89 fc             	mov    %edi,%r12d
  406167:	64 48 8b 04 25 28 00 	mov    %fs:0x28,%rax
  40616e:	00 00 
  406170:	48 89 44 24 20       	mov    %rax,0x20(%rsp)
  406175:	48 8b 06             	mov    (%rsi),%rax
  406178:	48 89 44 24 08       	mov    %rax,0x8(%rsp)
  40617d:	48 8d 05 fc 80 00 00 	lea    0x80fc(%rip),%rax        # 40e280 <d_cli_cfg_file>
  406184:	48 89 02             	mov    %rax,(%rdx)
  406187:	48 c7 42 08 00 00 00 	movq   $0x0,0x8(%rdx)
  40618e:	00 
  40618f:	48 8d 05 fc 80 00 00 	lea    0x80fc(%rip),%rax        # 40e292 <d_cli_dev>
  406196:	48 89 42 10          	mov    %rax,0x10(%rdx)
  40619a:	8b 05 30 81 00 00    	mov    0x8130(%rip),%eax        # 40e2d0 <d_cli_sock_type>
  4061a0:	89 42 20             	mov    %eax,0x20(%rdx)
  4061a3:	48 c7 42 28 00 00 00 	movq   $0x0,0x28(%rdx)
  4061aa:	00 
  4061ab:	0f b7 05 e8 80 00 00 	movzwl 0x80e8(%rip),%eax        # 40e29a <d_cli_server_port>
  4061b2:	66 89 42 24          	mov    %ax,0x24(%rdx)
  4061b6:	48 8d 42 30          	lea    0x30(%rdx),%rax
  4061ba:	48 89 44 24 10       	mov    %rax,0x10(%rsp)
  4061bf:	0f 57 c0             	xorps  %xmm0,%xmm0
  4061c2:	0f 11 42 30          	movups %xmm0,0x30(%rdx)
  4061c6:	41 83 c4 ff          	add    $0xffffffff,%r12d
  4061ca:	49 83 c6 08          	add    $0x8,%r14
  4061ce:	48 8d 2d 2b 42 00 00 	lea    0x422b(%rip),%rbp        # 40a400 <short_opt>
  4061d5:	4c 8d 3d 74 7a 00 00 	lea    0x7a74(%rip),%r15        # 40dc50 <long_opt>
  4061dc:	48 8d 1d 4d 41 00 00 	lea    0x414d(%rip),%rbx        # 40a330 <short_opt+0x9c0>
  4061e3:	66 2e 0f 1f 84 00 00 	cs nopw 0x0(%rax,%rax,1)
  4061ea:	00 00 00 
  4061ed:	0f 1f 00             	nopl   (%rax)
  4061f0:	c7 44 24 1c 00 00 00 	movl   $0x0,0x1c(%rsp)
  4061f7:	00 
  4061f8:	44 89 e7             	mov    %r12d,%edi
  4061fb:	4c 89 f6             	mov    %r14,%rsi
  4061fe:	48 89 ea             	mov    %rbp,%rdx
  406201:	4c 89 f9             	mov    %r15,%rcx
  406204:	4c 8d 44 24 1c       	lea    0x1c(%rsp),%r8
  406209:	e8 a2 c1 ff ff       	call   4023b0 <getopt_long@plt>
  40620e:	8d 48 bc             	lea    -0x44(%rax),%ecx
  406211:	83 f9 32             	cmp    $0x32,%ecx
  406214:	0f 87 5e 01 00 00    	ja     406378 <teavpn_client_argv_parse+0x228>
  40621a:	48 63 04 8b          	movslq (%rbx,%rcx,4),%rax
  40621e:	48 01 d8             	add    %rbx,%rax
  406221:	ff e0                	jmp    *%rax
  406223:	48 8b 05 ae 7d 00 00 	mov    0x7dae(%rip),%rax        # 40dfd8 <optarg@GLIBC_2.2.5>
  40622a:	48 8b 38             	mov    (%rax),%rdi
  40622d:	be ff 00 00 00       	mov    $0xff,%esi
  406232:	e8 69 0d 00 00       	call   406fa0 <trunc_str>
  406237:	49 89 45 08          	mov    %rax,0x8(%r13)
  40623b:	eb b3                	jmp    4061f0 <teavpn_client_argv_parse+0xa0>
  40623d:	c7 44 24 18 00 00 00 	movl   $0x0,0x18(%rsp)
  406244:	00 
  406245:	48 8b 05 8c 7d 00 00 	mov    0x7d8c(%rip),%rax        # 40dfd8 <optarg@GLIBC_2.2.5>
  40624c:	48 8b 30             	mov    (%rax),%rsi
  40624f:	ba 03 00 00 00       	mov    $0x3,%edx
  406254:	48 8d 7c 24 18       	lea    0x18(%rsp),%rdi
  406259:	e8 b2 be ff ff       	call   402110 <strncpy@plt>
  40625e:	81 4c 24 18 20 20 20 	orl    $0x20202020,0x18(%rsp)
  406265:	20 
  406266:	c6 44 24 1b 00       	movb   $0x0,0x1b(%rsp)
  40626b:	31 c0                	xor    %eax,%eax
  40626d:	8b 4c 24 18          	mov    0x18(%rsp),%ecx
  406271:	81 f9 74 63 70 00    	cmp    $0x706374,%ecx
  406277:	74 11                	je     40628a <teavpn_client_argv_parse+0x13a>
  406279:	81 f9 75 64 70 00    	cmp    $0x706475,%ecx
  40627f:	0f 85 1c 01 00 00    	jne    4063a1 <teavpn_client_argv_parse+0x251>
  406285:	b8 01 00 00 00       	mov    $0x1,%eax
  40628a:	41 89 45 20          	mov    %eax,0x20(%r13)
  40628e:	e9 5d ff ff ff       	jmp    4061f0 <teavpn_client_argv_parse+0xa0>
  406293:	48 8b 05 3e 7d 00 00 	mov    0x7d3e(%rip),%rax        # 40dfd8 <optarg@GLIBC_2.2.5>
  40629a:	44 89 64 24 04       	mov    %r12d,0x4(%rsp)
  40629f:	49 89 c4             	mov    %rax,%r12
  4062a2:	48 8b 38             	mov    (%rax),%rdi
  4062a5:	be ff 00 00 00       	mov    $0xff,%esi
  4062aa:	e8 11 08 00 00       	call   406ac0 <ar_strndup>
  4062af:	49 89 45 38          	mov    %rax,0x38(%r13)
  4062b3:	4d 8b 24 24          	mov    (%r12),%r12
  4062b7:	4c 89 e7             	mov    %r12,%rdi
  4062ba:	e8 11 be ff ff       	call   4020d0 <strlen@plt>
  4062bf:	4c 89 e7             	mov    %r12,%rdi
  4062c2:	44 8b 64 24 04       	mov    0x4(%rsp),%r12d
  4062c7:	48 8d 2d 32 41 00 00 	lea    0x4132(%rip),%rbp        # 40a400 <short_opt>
  4062ce:	be 78 00 00 00       	mov    $0x78,%esi
  4062d3:	48 89 c2             	mov    %rax,%rdx
  4062d6:	e8 45 be ff ff       	call   402120 <memset@plt>
  4062db:	e9 10 ff ff ff       	jmp    4061f0 <teavpn_client_argv_parse+0xa0>
  4062e0:	48 8b 05 f1 7c 00 00 	mov    0x7cf1(%rip),%rax        # 40dfd8 <optarg@GLIBC_2.2.5>
  4062e7:	48 8b 38             	mov    (%rax),%rdi
  4062ea:	be 40 00 00 00       	mov    $0x40,%esi
  4062ef:	e8 ac 0c 00 00       	call   406fa0 <trunc_str>
  4062f4:	48 8b 4c 24 10       	mov    0x10(%rsp),%rcx
  4062f9:	48 89 01             	mov    %rax,(%rcx)
  4062fc:	e9 ef fe ff ff       	jmp    4061f0 <teavpn_client_argv_parse+0xa0>
  406301:	48 8b 05 d0 7c 00 00 	mov    0x7cd0(%rip),%rax        # 40dfd8 <optarg@GLIBC_2.2.5>
  406308:	48 8b 38             	mov    (%rax),%rdi
  40630b:	be ff 00 00 00       	mov    $0xff,%esi
  406310:	e8 8b 0c 00 00       	call   406fa0 <trunc_str>
  406315:	49 89 45 00          	mov    %rax,0x0(%r13)
  406319:	e9 d2 fe ff ff       	jmp    4061f0 <teavpn_client_argv_parse+0xa0>
  40631e:	48 8b 05 b3 7c 00 00 	mov    0x7cb3(%rip),%rax        # 40dfd8 <optarg@GLIBC_2.2.5>
  406325:	48 8b 38             	mov    (%rax),%rdi
  406328:	31 f6                	xor    %esi,%esi
  40632a:	ba 0a 00 00 00       	mov    $0xa,%edx
  40632f:	e8 bc bf ff ff       	call   4022f0 <strtol@plt>
  406334:	66 41 89 45 24       	mov    %ax,0x24(%r13)
  406339:	e9 b2 fe ff ff       	jmp    4061f0 <teavpn_client_argv_parse+0xa0>
  40633e:	48 8b 05 93 7c 00 00 	mov    0x7c93(%rip),%rax        # 40dfd8 <optarg@GLIBC_2.2.5>
  406345:	48 8b 38             	mov    (%rax),%rdi
  406348:	be ff 00 00 00       	mov    $0xff,%esi
  40634d:	e8 4e 0c 00 00       	call   406fa0 <trunc_str>
  406352:	49 89 45 10          	mov    %rax,0x10(%r13)
  406356:	e9 95 fe ff ff       	jmp    4061f0 <teavpn_client_argv_parse+0xa0>
  40635b:	48 8b 05 76 7c 00 00 	mov    0x7c76(%rip),%rax        # 40dfd8 <optarg@GLIBC_2.2.5>
  406362:	48 8b 38             	mov    (%rax),%rdi
  406365:	be ff 00 00 00       	mov    $0xff,%esi
  40636a:	e8 31 0c 00 00       	call   406fa0 <trunc_str>
  40636f:	49 89 45 28          	mov    %rax,0x28(%r13)
  406373:	e9 78 fe ff ff       	jmp    4061f0 <teavpn_client_argv_parse+0xa0>
  406378:	83 f8 ff             	cmp    $0xffffffff,%eax
  40637b:	74 3e                	je     4063bb <teavpn_client_argv_parse+0x26b>
  40637d:	b8 ff ff ff ff       	mov    $0xffffffff,%eax
  406382:	64 48 8b 0c 25 28 00 	mov    %fs:0x28,%rcx
  406389:	00 00 
  40638b:	48 3b 4c 24 20       	cmp    0x20(%rsp),%rcx
  406390:	75 3b                	jne    4063cd <teavpn_client_argv_parse+0x27d>
  406392:	48 83 c4 28          	add    $0x28,%rsp
  406396:	5b                   	pop    %rbx
  406397:	41 5c                	pop    %r12
  406399:	41 5d                	pop    %r13
  40639b:	41 5e                	pop    %r14
  40639d:	41 5f                	pop    %r15
  40639f:	5d                   	pop    %rbp
  4063a0:	c3                   	ret    
  4063a1:	48 8b 05 30 7c 00 00 	mov    0x7c30(%rip),%rax        # 40dfd8 <optarg@GLIBC_2.2.5>
  4063a8:	48 8b 30             	mov    (%rax),%rsi
  4063ab:	48 8d 3d d7 35 00 00 	lea    0x35d7(%rip),%rdi        # 409989 <short_opt+0x19>
  4063b2:	31 c0                	xor    %eax,%eax
  4063b4:	e8 f7 19 00 00       	call   407db0 <__pr_error>
  4063b9:	eb c2                	jmp    40637d <teavpn_client_argv_parse+0x22d>
  4063bb:	31 c0                	xor    %eax,%eax
  4063bd:	64 48 8b 0c 25 28 00 	mov    %fs:0x28,%rcx
  4063c4:	00 00 
  4063c6:	48 3b 4c 24 20       	cmp    0x20(%rsp),%rcx
  4063cb:	74 c5                	je     406392 <teavpn_client_argv_parse+0x242>
  4063cd:	e8 6e be ff ff       	call   402240 <__stack_chk_fail@plt>
  4063d2:	48 8b 7c 24 08       	mov    0x8(%rsp),%rdi
  4063d7:	e8 d4 04 00 00       	call   4068b0 <teavpn_client_show_help>
  4063dc:	31 ff                	xor    %edi,%edi
  4063de:	e8 ad be ff ff       	call   402290 <exit@plt>
  4063e3:	e8 b8 19 00 00       	call   407da0 <teavpn_print_version>
  4063e8:	31 ff                	xor    %edi,%edi
  4063ea:	e8 a1 be ff ff       	call   402290 <exit@plt>
  4063ef:	90                   	nop

00000000004063f0 <teavpn_client_cfg_parse>:
  4063f0:	55                   	push   %rbp
  4063f1:	41 56                	push   %r14
  4063f3:	53                   	push   %rbx
  4063f4:	48 83 ec 20          	sub    $0x20,%rsp
  4063f8:	64 48 8b 04 25 28 00 	mov    %fs:0x28,%rax
  4063ff:	00 00 
  406401:	48 89 44 24 18       	mov    %rax,0x18(%rsp)
  406406:	48 8b 1f             	mov    (%rdi),%rbx
  406409:	c6 44 24 08 01       	movb   $0x1,0x8(%rsp)
  40640e:	48 89 7c 24 10       	mov    %rdi,0x10(%rsp)
  406413:	31 ed                	xor    %ebp,%ebp
  406415:	48 85 db             	test   %rbx,%rbx
  406418:	0f 84 a1 00 00 00    	je     4064bf <teavpn_client_cfg_parse+0xcf>
  40641e:	80 3b 00             	cmpb   $0x0,(%rbx)
  406421:	0f 84 98 00 00 00    	je     4064bf <teavpn_client_cfg_parse+0xcf>
  406427:	48 8d 35 b5 35 00 00 	lea    0x35b5(%rip),%rsi        # 4099e3 <short_opt+0x73>
  40642e:	48 89 df             	mov    %rbx,%rdi
  406431:	e8 2a be ff ff       	call   402260 <fopen@plt>
  406436:	48 85 c0             	test   %rax,%rax
  406439:	74 3c                	je     406477 <teavpn_client_cfg_parse+0x87>
  40643b:	49 89 c6             	mov    %rax,%r14
  40643e:	48 8d 35 9b 00 00 00 	lea    0x9b(%rip),%rsi        # 4064e0 <parser_handler>
  406445:	48 8d 54 24 08       	lea    0x8(%rsp),%rdx
  40644a:	48 89 c7             	mov    %rax,%rdi
  40644d:	e8 4e ca ff ff       	call   402ea0 <ini_parse_file>
  406452:	85 c0                	test   %eax,%eax
  406454:	78 5c                	js     4064b2 <teavpn_client_cfg_parse+0xc2>
  406456:	31 ed                	xor    %ebp,%ebp
  406458:	80 7c 24 08 00       	cmpb   $0x0,0x8(%rsp)
  40645d:	75 58                	jne    4064b7 <teavpn_client_cfg_parse+0xc7>
  40645f:	48 8d 3d bd 36 00 00 	lea    0x36bd(%rip),%rdi        # 409b23 <short_opt+0x1b3>
  406466:	48 89 de             	mov    %rbx,%rsi
  406469:	31 c0                	xor    %eax,%eax
  40646b:	e8 40 19 00 00       	call   407db0 <__pr_error>
  406470:	bd ea ff ff ff       	mov    $0xffffffea,%ebp
  406475:	eb 40                	jmp    4064b7 <teavpn_client_cfg_parse+0xc7>
  406477:	48 8d 35 02 7e 00 00 	lea    0x7e02(%rip),%rsi        # 40e280 <d_cli_cfg_file>
  40647e:	48 89 df             	mov    %rbx,%rdi
  406481:	e8 5a be ff ff       	call   4022e0 <strcmp@plt>
  406486:	85 c0                	test   %eax,%eax
  406488:	74 35                	je     4064bf <teavpn_client_cfg_parse+0xcf>
  40648a:	e8 a1 bb ff ff       	call   402030 <__errno_location@plt>
  40648f:	8b 28                	mov    (%rax),%ebp
  406491:	89 ef                	mov    %ebp,%edi
  406493:	e8 18 bc ff ff       	call   4020b0 <strerror@plt>
  406498:	48 8d 3d 8c 3f 00 00 	lea    0x3f8c(%rip),%rdi        # 40a42b <short_opt+0x2b>
  40649f:	48 89 de             	mov    %rbx,%rsi
  4064a2:	89 ea                	mov    %ebp,%edx
  4064a4:	48 89 c1             	mov    %rax,%rcx
  4064a7:	31 c0                	xor    %eax,%eax
  4064a9:	e8 02 19 00 00       	call   407db0 <__pr_error>
  4064ae:	f7 dd                	neg    %ebp
  4064b0:	eb 0d                	jmp    4064bf <teavpn_client_cfg_parse+0xcf>
  4064b2:	bd ff ff ff ff       	mov    $0xffffffff,%ebp
  4064b7:	4c 89 f7             	mov    %r14,%rdi
  4064ba:	e8 21 bd ff ff       	call   4021e0 <fclose@plt>
  4064bf:	64 48 8b 04 25 28 00 	mov    %fs:0x28,%rax
  4064c6:	00 00 
  4064c8:	48 3b 44 24 18       	cmp    0x18(%rsp),%rax
  4064cd:	75 0b                	jne    4064da <teavpn_client_cfg_parse+0xea>
  4064cf:	89 e8                	mov    %ebp,%eax
  4064d1:	48 83 c4 20          	add    $0x20,%rsp
  4064d5:	5b                   	pop    %rbx
  4064d6:	41 5e                	pop    %r14
  4064d8:	5d                   	pop    %rbp
  4064d9:	c3                   	ret    
  4064da:	e8 61 bd ff ff       	call   402240 <__stack_chk_fail@plt>
  4064df:	90                   	nop

00000000004064e0 <parser_handler>:
  4064e0:	55                   	push   %rbp
  4064e1:	41 57                	push   %r15
  4064e3:	41 56                	push   %r14
  4064e5:	41 55                	push   %r13
  4064e7:	41 54                	push   %r12
  4064e9:	53                   	push   %rbx
  4064ea:	48 83 ec 18          	sub    $0x18,%rsp
  4064ee:	45 89 c7             	mov    %r8d,%r15d
  4064f1:	49 89 ce             	mov    %rcx,%r14
  4064f4:	49 89 d4             	mov    %rdx,%r12
  4064f7:	48 89 f5             	mov    %rsi,%rbp
  4064fa:	48 89 fb             	mov    %rdi,%rbx
  4064fd:	64 48 8b 04 25 28 00 	mov    %fs:0x28,%rax
  406504:	00 00 
  406506:	48 89 44 24 10       	mov    %rax,0x10(%rsp)
  40650b:	4c 8b 6f 08          	mov    0x8(%rdi),%r13
  40650f:	48 8d 35 2d 36 00 00 	lea    0x362d(%rip),%rsi        # 409b43 <short_opt+0x1d3>
  406516:	48 89 ef             	mov    %rbp,%rdi
  406519:	e8 c2 bd ff ff       	call   4022e0 <strcmp@plt>
  40651e:	85 c0                	test   %eax,%eax
  406520:	0f 84 81 00 00 00    	je     4065a7 <parser_handler+0xc7>
  406526:	48 8d 35 33 36 00 00 	lea    0x3633(%rip),%rsi        # 409b60 <short_opt+0x1f0>
  40652d:	48 89 ef             	mov    %rbp,%rdi
  406530:	e8 ab bd ff ff       	call   4022e0 <strcmp@plt>
  406535:	85 c0                	test   %eax,%eax
  406537:	0f 84 b7 00 00 00    	je     4065f4 <parser_handler+0x114>
  40653d:	48 8d 35 54 35 00 00 	lea    0x3554(%rip),%rsi        # 409a98 <short_opt+0x128>
  406544:	48 89 ef             	mov    %rbp,%rdi
  406547:	e8 94 bd ff ff       	call   4022e0 <strcmp@plt>
  40654c:	85 c0                	test   %eax,%eax
  40654e:	0f 84 10 01 00 00    	je     406664 <parser_handler+0x184>
  406554:	48 8d 35 26 35 00 00 	lea    0x3526(%rip),%rsi        # 409a81 <short_opt+0x111>
  40655b:	48 89 ef             	mov    %rbp,%rdi
  40655e:	e8 7d bd ff ff       	call   4022e0 <strcmp@plt>
  406563:	85 c0                	test   %eax,%eax
  406565:	0f 84 43 01 00 00    	je     4066ae <parser_handler+0x1ce>
  40656b:	48 8d 3d 39 35 00 00 	lea    0x3539(%rip),%rdi        # 409aab <short_opt+0x13b>
  406572:	48 89 ee             	mov    %rbp,%rsi
  406575:	44 89 fa             	mov    %r15d,%edx
  406578:	31 c0                	xor    %eax,%eax
  40657a:	e8 31 18 00 00       	call   407db0 <__pr_error>
  40657f:	c6 03 00             	movb   $0x0,(%rbx)
  406582:	31 c0                	xor    %eax,%eax
  406584:	64 48 8b 0c 25 28 00 	mov    %fs:0x28,%rcx
  40658b:	00 00 
  40658d:	48 3b 4c 24 10       	cmp    0x10(%rsp),%rcx
  406592:	0f 85 51 02 00 00    	jne    4067e9 <parser_handler+0x309>
  406598:	48 83 c4 18          	add    $0x18,%rsp
  40659c:	5b                   	pop    %rbx
  40659d:	41 5c                	pop    %r12
  40659f:	41 5d                	pop    %r13
  4065a1:	41 5e                	pop    %r14
  4065a3:	41 5f                	pop    %r15
  4065a5:	5d                   	pop    %rbp
  4065a6:	c3                   	ret    
  4065a7:	48 8d 35 9b 35 00 00 	lea    0x359b(%rip),%rsi        # 409b49 <short_opt+0x1d9>
  4065ae:	4c 89 e7             	mov    %r12,%rdi
  4065b1:	e8 2a bd ff ff       	call   4022e0 <strcmp@plt>
  4065b6:	85 c0                	test   %eax,%eax
  4065b8:	0f 84 3a 01 00 00    	je     4066f8 <parser_handler+0x218>
  4065be:	48 8d 35 8d 35 00 00 	lea    0x358d(%rip),%rsi        # 409b52 <short_opt+0x1e2>
  4065c5:	4c 89 e7             	mov    %r12,%rdi
  4065c8:	e8 13 bd ff ff       	call   4022e0 <strcmp@plt>
  4065cd:	85 c0                	test   %eax,%eax
  4065cf:	0f 85 07 01 00 00    	jne    4066dc <parser_handler+0x1fc>
  4065d5:	4c 89 f7             	mov    %r14,%rdi
  4065d8:	31 f6                	xor    %esi,%esi
  4065da:	ba 0a 00 00 00       	mov    $0xa,%edx
  4065df:	e8 0c bd ff ff       	call   4022f0 <strtol@plt>
  4065e4:	48 8d 0d bd 7c 00 00 	lea    0x7cbd(%rip),%rcx        # 40e2a8 <__notice_level>
  4065eb:	88 01                	mov    %al,(%rcx)
  4065ed:	b8 01 00 00 00       	mov    $0x1,%eax
  4065f2:	eb 90                	jmp    406584 <parser_handler+0xa4>
  4065f4:	48 8d 35 6c 35 00 00 	lea    0x356c(%rip),%rsi        # 409b67 <short_opt+0x1f7>
  4065fb:	4c 89 e7             	mov    %r12,%rdi
  4065fe:	e8 dd bc ff ff       	call   4022e0 <strcmp@plt>
  406603:	85 c0                	test   %eax,%eax
  406605:	0f 84 08 01 00 00    	je     406713 <parser_handler+0x233>
  40660b:	48 8d 35 3c 3e 00 00 	lea    0x3e3c(%rip),%rsi        # 40a44e <short_opt+0x4e>
  406612:	4c 89 e7             	mov    %r12,%rdi
  406615:	e8 c6 bc ff ff       	call   4022e0 <strcmp@plt>
  40661a:	85 c0                	test   %eax,%eax
  40661c:	0f 84 35 01 00 00    	je     406757 <parser_handler+0x277>
  406622:	48 8d 35 31 3e 00 00 	lea    0x3e31(%rip),%rsi        # 40a45a <short_opt+0x5a>
  406629:	4c 89 e7             	mov    %r12,%rdi
  40662c:	e8 af bc ff ff       	call   4022e0 <strcmp@plt>
  406631:	85 c0                	test   %eax,%eax
  406633:	0f 85 a3 00 00 00    	jne    4066dc <parser_handler+0x1fc>
  406639:	be 06 00 00 00       	mov    $0x6,%esi
  40663e:	4c 89 f7             	mov    %r14,%rdi
  406641:	e8 7a 04 00 00       	call   406ac0 <ar_strndup>
  406646:	48 89 c7             	mov    %rax,%rdi
  406649:	31 f6                	xor    %esi,%esi
  40664b:	ba 0a 00 00 00       	mov    $0xa,%edx
  406650:	e8 9b bc ff ff       	call   4022f0 <strtol@plt>
  406655:	66 41 89 45 24       	mov    %ax,0x24(%r13)
  40665a:	b8 01 00 00 00       	mov    $0x1,%eax
  40665f:	e9 20 ff ff ff       	jmp    406584 <parser_handler+0xa4>
  406664:	48 8d 35 50 33 00 00 	lea    0x3350(%rip),%rsi        # 4099bb <short_opt+0x4b>
  40666b:	4c 89 e7             	mov    %r12,%rdi
  40666e:	e8 6d bc ff ff       	call   4022e0 <strcmp@plt>
  406673:	85 c0                	test   %eax,%eax
  406675:	0f 84 f7 00 00 00    	je     406772 <parser_handler+0x292>
  40667b:	48 8d 35 e4 3d 00 00 	lea    0x3de4(%rip),%rsi        # 40a466 <short_opt+0x66>
  406682:	4c 89 e7             	mov    %r12,%rdi
  406685:	e8 56 bc ff ff       	call   4022e0 <strcmp@plt>
  40668a:	85 c0                	test   %eax,%eax
  40668c:	75 4e                	jne    4066dc <parser_handler+0x1fc>
  40668e:	4c 89 f7             	mov    %r14,%rdi
  406691:	31 f6                	xor    %esi,%esi
  406693:	ba 0a 00 00 00       	mov    $0xa,%edx
  406698:	e8 53 bc ff ff       	call   4022f0 <strtol@plt>
  40669d:	85 c0                	test   %eax,%eax
  40669f:	41 0f 95 45 18       	setne  0x18(%r13)
  4066a4:	b8 01 00 00 00       	mov    $0x1,%eax
  4066a9:	e9 d6 fe ff ff       	jmp    406584 <parser_handler+0xa4>
  4066ae:	48 8d 35 d1 33 00 00 	lea    0x33d1(%rip),%rsi        # 409a86 <short_opt+0x116>
  4066b5:	4c 89 e7             	mov    %r12,%rdi
  4066b8:	e8 23 bc ff ff       	call   4022e0 <strcmp@plt>
  4066bd:	85 c0                	test   %eax,%eax
  4066bf:	0f 84 c8 00 00 00    	je     40678d <parser_handler+0x2ad>
  4066c5:	48 8d 35 c3 33 00 00 	lea    0x33c3(%rip),%rsi        # 409a8f <short_opt+0x11f>
  4066cc:	4c 89 e7             	mov    %r12,%rdi
  4066cf:	e8 0c bc ff ff       	call   4022e0 <strcmp@plt>
  4066d4:	85 c0                	test   %eax,%eax
  4066d6:	0f 84 cc 00 00 00    	je     4067a8 <parser_handler+0x2c8>
  4066dc:	48 8d 3d b8 34 00 00 	lea    0x34b8(%rip),%rdi        # 409b9b <short_opt+0x22b>
  4066e3:	4c 89 e6             	mov    %r12,%rsi
  4066e6:	48 89 ea             	mov    %rbp,%rdx
  4066e9:	44 89 f9             	mov    %r15d,%ecx
  4066ec:	31 c0                	xor    %eax,%eax
  4066ee:	e8 bd 16 00 00       	call   407db0 <__pr_error>
  4066f3:	e9 87 fe ff ff       	jmp    40657f <parser_handler+0x9f>
  4066f8:	be ff 00 00 00       	mov    $0xff,%esi
  4066fd:	4c 89 f7             	mov    %r14,%rdi
  406700:	e8 bb 03 00 00       	call   406ac0 <ar_strndup>
  406705:	49 89 45 08          	mov    %rax,0x8(%r13)
  406709:	b8 01 00 00 00       	mov    $0x1,%eax
  40670e:	e9 71 fe ff ff       	jmp    406584 <parser_handler+0xa4>
  406713:	c7 44 24 08 00 00 00 	movl   $0x0,0x8(%rsp)
  40671a:	00 
  40671b:	48 8d 7c 24 08       	lea    0x8(%rsp),%rdi
  406720:	ba 03 00 00 00       	mov    $0x3,%edx
  406725:	4c 89 f6             	mov    %r14,%rsi
  406728:	e8 e3 b9 ff ff       	call   402110 <strncpy@plt>
  40672d:	81 4c 24 08 20 20 20 	orl    $0x20202020,0x8(%rsp)
  406734:	20 
  406735:	c6 44 24 0b 00       	movb   $0x0,0xb(%rsp)
  40673a:	8b 44 24 08          	mov    0x8(%rsp),%eax
  40673e:	3d 74 63 70 00       	cmp    $0x706374,%eax
  406743:	74 7e                	je     4067c3 <parser_handler+0x2e3>
  406745:	3d 75 64 70 00       	cmp    $0x706475,%eax
  40674a:	0f 85 83 00 00 00    	jne    4067d3 <parser_handler+0x2f3>
  406750:	b8 01 00 00 00       	mov    $0x1,%eax
  406755:	eb 6e                	jmp    4067c5 <parser_handler+0x2e5>
  406757:	be 20 00 00 00       	mov    $0x20,%esi
  40675c:	4c 89 f7             	mov    %r14,%rdi
  40675f:	e8 5c 03 00 00       	call   406ac0 <ar_strndup>
  406764:	49 89 45 28          	mov    %rax,0x28(%r13)
  406768:	b8 01 00 00 00       	mov    $0x1,%eax
  40676d:	e9 12 fe ff ff       	jmp    406584 <parser_handler+0xa4>
  406772:	be 10 00 00 00       	mov    $0x10,%esi
  406777:	4c 89 f7             	mov    %r14,%rdi
  40677a:	e8 41 03 00 00       	call   406ac0 <ar_strndup>
  40677f:	49 89 45 10          	mov    %rax,0x10(%r13)
  406783:	b8 01 00 00 00       	mov    $0x1,%eax
  406788:	e9 f7 fd ff ff       	jmp    406584 <parser_handler+0xa4>
  40678d:	be 40 00 00 00       	mov    $0x40,%esi
  406792:	4c 89 f7             	mov    %r14,%rdi
  406795:	e8 26 03 00 00       	call   406ac0 <ar_strndup>
  40679a:	49 89 45 30          	mov    %rax,0x30(%r13)
  40679e:	b8 01 00 00 00       	mov    $0x1,%eax
  4067a3:	e9 dc fd ff ff       	jmp    406584 <parser_handler+0xa4>
  4067a8:	be ff 00 00 00       	mov    $0xff,%esi
  4067ad:	4c 89 f7             	mov    %r14,%rdi
  4067b0:	e8 0b 03 00 00       	call   406ac0 <ar_strndup>
  4067b5:	49 89 45 38          	mov    %rax,0x38(%r13)
  4067b9:	b8 01 00 00 00       	mov    $0x1,%eax
  4067be:	e9 c1 fd ff ff       	jmp    406584 <parser_handler+0xa4>
  4067c3:	31 c0                	xor    %eax,%eax
  4067c5:	41 89 45 20          	mov    %eax,0x20(%r13)
  4067c9:	b8 01 00 00 00       	mov    $0x1,%eax
  4067ce:	e9 b1 fd ff ff       	jmp    406584 <parser_handler+0xa4>
  4067d3:	48 8d 3d af 31 00 00 	lea    0x31af(%rip),%rdi        # 409989 <short_opt+0x19>
  4067da:	4c 89 f6             	mov    %r14,%rsi
  4067dd:	31 c0                	xor    %eax,%eax
  4067df:	e8 cc 15 00 00       	call   407db0 <__pr_error>
  4067e4:	e9 96 fd ff ff       	jmp    40657f <parser_handler+0x9f>
  4067e9:	e8 52 ba ff ff       	call   402240 <__stack_chk_fail@plt>
  4067ee:	66 90                	xchg   %ax,%ax

00000000004067f0 <teavpn_client_entry>:
  4067f0:	53                   	push   %rbx
  4067f1:	48 83 ec 50          	sub    $0x50,%rsp
  4067f5:	64 48 8b 04 25 28 00 	mov    %fs:0x28,%rax
  4067fc:	00 00 
  4067fe:	48 89 44 24 48       	mov    %rax,0x48(%rsp)
  406803:	0f 57 c0             	xorps  %xmm0,%xmm0
  406806:	0f 29 44 24 30       	movaps %xmm0,0x30(%rsp)
  40680b:	0f 29 44 24 20       	movaps %xmm0,0x20(%rsp)
  406810:	0f 29 44 24 10       	movaps %xmm0,0x10(%rsp)
  406815:	0f 29 04 24          	movaps %xmm0,(%rsp)
  406819:	48 89 e2             	mov    %rsp,%rdx
  40681c:	e8 2f f9 ff ff       	call   406150 <teavpn_client_argv_parse>
  406821:	bb 01 00 00 00       	mov    $0x1,%ebx
  406826:	85 c0                	test   %eax,%eax
  406828:	78 65                	js     40688f <teavpn_client_entry+0x9f>
  40682a:	48 89 e7             	mov    %rsp,%rdi
  40682d:	e8 be fb ff ff       	call   4063f0 <teavpn_client_cfg_parse>
  406832:	85 c0                	test   %eax,%eax
  406834:	78 59                	js     40688f <teavpn_client_entry+0x9f>
  406836:	48 83 7c 24 08 00    	cmpq   $0x0,0x8(%rsp)
  40683c:	74 19                	je     406857 <teavpn_client_entry+0x67>
  40683e:	8b 74 24 20          	mov    0x20(%rsp),%esi
  406842:	83 fe 01             	cmp    $0x1,%esi
  406845:	74 20                	je     406867 <teavpn_client_entry+0x77>
  406847:	85 f6                	test   %esi,%esi
  406849:	75 31                	jne    40687c <teavpn_client_entry+0x8c>
  40684b:	48 89 e7             	mov    %rsp,%rdi
  40684e:	e8 cd 01 00 00       	call   406a20 <teavpn_client_tcp>
  406853:	89 c3                	mov    %eax,%ebx
  406855:	eb 38                	jmp    40688f <teavpn_client_entry+0x9f>
  406857:	48 8d 3d ac 33 00 00 	lea    0x33ac(%rip),%rdi        # 409c0a <short_opt+0x29a>
  40685e:	31 c0                	xor    %eax,%eax
  406860:	e8 4b 15 00 00       	call   407db0 <__pr_error>
  406865:	eb 28                	jmp    40688f <teavpn_client_entry+0x9f>
  406867:	48 8d 3d 5a 33 00 00 	lea    0x335a(%rip),%rdi        # 409bc8 <short_opt+0x258>
  40686e:	31 c0                	xor    %eax,%eax
  406870:	e8 3b 15 00 00       	call   407db0 <__pr_error>
  406875:	bb a2 ff ff ff       	mov    $0xffffffa2,%ebx
  40687a:	eb 13                	jmp    40688f <teavpn_client_entry+0x9f>
  40687c:	48 8d 3d 6f 33 00 00 	lea    0x336f(%rip),%rdi        # 409bf2 <short_opt+0x282>
  406883:	31 c0                	xor    %eax,%eax
  406885:	e8 26 15 00 00       	call   407db0 <__pr_error>
  40688a:	bb ea ff ff ff       	mov    $0xffffffea,%ebx
  40688f:	64 48 8b 04 25 28 00 	mov    %fs:0x28,%rax
  406896:	00 00 
  406898:	48 3b 44 24 48       	cmp    0x48(%rsp),%rax
  40689d:	75 08                	jne    4068a7 <teavpn_client_entry+0xb7>
  40689f:	89 d8                	mov    %ebx,%eax
  4068a1:	48 83 c4 50          	add    $0x50,%rsp
  4068a5:	5b                   	pop    %rbx
  4068a6:	c3                   	ret    
  4068a7:	e8 94 b9 ff ff       	call   402240 <__stack_chk_fail@plt>
  4068ac:	0f 1f 40 00          	nopl   0x0(%rax)

00000000004068b0 <teavpn_client_show_help>:
  4068b0:	50                   	push   %rax
  4068b1:	48 89 fe             	mov    %rdi,%rsi
  4068b4:	48 8d 3d 69 33 00 00 	lea    0x3369(%rip),%rdi        # 409c24 <short_opt+0x2b4>
  4068bb:	31 c0                	xor    %eax,%eax
  4068bd:	e8 7e b7 ff ff       	call   402040 <printf@plt>
  4068c2:	bf 0a 00 00 00       	mov    $0xa,%edi
  4068c7:	e8 04 ba ff ff       	call   4022d0 <putchar@plt>
  4068cc:	48 8d 3d dd 3b 00 00 	lea    0x3bdd(%rip),%rdi        # 40a4b0 <short_opt+0xb0>
  4068d3:	e8 98 ba ff ff       	call   402370 <puts@plt>
  4068d8:	bf 0a 00 00 00       	mov    $0xa,%edi
  4068dd:	e8 ee b9 ff ff       	call   4022d0 <putchar@plt>
  4068e2:	48 8d 3d 2c 35 00 00 	lea    0x352c(%rip),%rdi        # 409e15 <short_opt+0x4a5>
  4068e9:	e8 82 ba ff ff       	call   402370 <puts@plt>
  4068ee:	48 8d 3d 33 35 00 00 	lea    0x3533(%rip),%rdi        # 409e28 <short_opt+0x4b8>
  4068f5:	e8 76 ba ff ff       	call   402370 <puts@plt>
  4068fa:	48 8d 3d 4e 35 00 00 	lea    0x354e(%rip),%rdi        # 409e4f <short_opt+0x4df>
  406901:	e8 6a ba ff ff       	call   402370 <puts@plt>
  406906:	48 8d 3d 33 33 00 00 	lea    0x3333(%rip),%rdi        # 409c40 <short_opt+0x2d0>
  40690d:	48 8d 35 6c 79 00 00 	lea    0x796c(%rip),%rsi        # 40e280 <d_cli_cfg_file>
  406914:	31 c0                	xor    %eax,%eax
  406916:	e8 25 b7 ff ff       	call   402040 <printf@plt>
  40691b:	48 8d 3d 59 35 00 00 	lea    0x3559(%rip),%rdi        # 409e7b <short_opt+0x50b>
  406922:	e8 49 ba ff ff       	call   402370 <puts@plt>
  406927:	bf 0a 00 00 00       	mov    $0xa,%edi
  40692c:	e8 9f b9 ff ff       	call   4022d0 <putchar@plt>
  406931:	48 8d 3d 69 35 00 00 	lea    0x3569(%rip),%rdi        # 409ea1 <short_opt+0x531>
  406938:	e8 33 ba ff ff       	call   402370 <puts@plt>
  40693d:	48 8d 3d 6e 35 00 00 	lea    0x356e(%rip),%rdi        # 409eb2 <short_opt+0x542>
  406944:	e8 27 ba ff ff       	call   402370 <puts@plt>
  406949:	48 8d 3d 25 33 00 00 	lea    0x3325(%rip),%rdi        # 409c75 <short_opt+0x305>
  406950:	48 8d 35 3b 79 00 00 	lea    0x793b(%rip),%rsi        # 40e292 <d_cli_dev>
  406957:	31 c0                	xor    %eax,%eax
  406959:	e8 e2 b6 ff ff       	call   402040 <printf@plt>
  40695e:	bf 0a 00 00 00       	mov    $0xa,%edi
  406963:	e8 68 b9 ff ff       	call   4022d0 <putchar@plt>
  406968:	48 8d 3d 5f 35 00 00 	lea    0x355f(%rip),%rdi        # 409ece <short_opt+0x55e>
  40696f:	e8 fc b9 ff ff       	call   402370 <puts@plt>
  406974:	48 8d 3d 5c 35 00 00 	lea    0x355c(%rip),%rdi        # 409ed7 <short_opt+0x567>
  40697b:	e8 f0 b9 ff ff       	call   402370 <puts@plt>
  406980:	48 8d 3d 43 3b 00 00 	lea    0x3b43(%rip),%rdi        # 40a4ca <short_opt+0xca>
  406987:	e8 e4 b9 ff ff       	call   402370 <puts@plt>
  40698c:	48 8d 05 07 79 00 00 	lea    0x7907(%rip),%rax        # 40e29a <d_cli_server_port>
  406993:	0f b7 30             	movzwl (%rax),%esi
  406996:	48 8d 3d da 3a 00 00 	lea    0x3ada(%rip),%rdi        # 40a477 <short_opt+0x77>
  40699d:	31 c0                	xor    %eax,%eax
  40699f:	e8 9c b6 ff ff       	call   402040 <printf@plt>
  4069a4:	bf 0a 00 00 00       	mov    $0xa,%edi
  4069a9:	e8 22 b9 ff ff       	call   4022d0 <putchar@plt>
  4069ae:	48 8d 3d 41 3b 00 00 	lea    0x3b41(%rip),%rdi        # 40a4f6 <short_opt+0xf6>
  4069b5:	e8 b6 b9 ff ff       	call   402370 <puts@plt>
  4069ba:	48 8d 3d 3c 3b 00 00 	lea    0x3b3c(%rip),%rdi        # 40a4fd <short_opt+0xfd>
  4069c1:	e8 aa b9 ff ff       	call   402370 <puts@plt>
  4069c6:	48 8d 3d 55 3b 00 00 	lea    0x3b55(%rip),%rdi        # 40a522 <short_opt+0x122>
  4069cd:	e8 9e b9 ff ff       	call   402370 <puts@plt>
  4069d2:	bf 0a 00 00 00       	mov    $0xa,%edi
  4069d7:	e8 f4 b8 ff ff       	call   4022d0 <putchar@plt>
  4069dc:	bf 0a 00 00 00       	mov    $0xa,%edi
  4069e1:	e8 ea b8 ff ff       	call   4022d0 <putchar@plt>
  4069e6:	48 8d 3d 71 35 00 00 	lea    0x3571(%rip),%rdi        # 409f5e <short_opt+0x5ee>
  4069ed:	e8 7e b9 ff ff       	call   402370 <puts@plt>
  4069f2:	48 8d 3d a3 35 00 00 	lea    0x35a3(%rip),%rdi        # 409f9c <short_opt+0x62c>
  4069f9:	e8 72 b9 ff ff       	call   402370 <puts@plt>
  4069fe:	bf 0a 00 00 00       	mov    $0xa,%edi
  406a03:	e8 c8 b8 ff ff       	call   4022d0 <putchar@plt>
  406a08:	48 8d 3d c5 35 00 00 	lea    0x35c5(%rip),%rdi        # 409fd4 <short_opt+0x664>
  406a0f:	58                   	pop    %rax
  406a10:	e9 5b b9 ff ff       	jmp    402370 <puts@plt>
  406a15:	66 2e 0f 1f 84 00 00 	cs nopw 0x0(%rax,%rax,1)
  406a1c:	00 00 00 
  406a1f:	90                   	nop

0000000000406a20 <teavpn_client_tcp>:
  406a20:	e9 6b ea ff ff       	jmp    405490 <teavpn_client_tcp_handler>
  406a25:	66 2e 0f 1f 84 00 00 	cs nopw 0x0(%rax,%rax,1)
  406a2c:	00 00 00 
  406a2f:	90                   	nop

0000000000406a30 <ar_init>:
  406a30:	48 89 3d a1 78 00 00 	mov    %rdi,0x78a1(%rip)        # 40e2d8 <__ar_addr>
  406a37:	48 89 35 a2 78 00 00 	mov    %rsi,0x78a2(%rip)        # 40e2e0 <__ar_size>
  406a3e:	48 c7 05 9f 78 00 00 	movq   $0x0,0x789f(%rip)        # 40e2e8 <__ar_pos>
  406a45:	00 00 00 00 
  406a49:	c3                   	ret    
  406a4a:	66 0f 1f 44 00 00    	nopw   0x0(%rax,%rax,1)

0000000000406a50 <ar_unused_size>:
  406a50:	48 8b 05 89 78 00 00 	mov    0x7889(%rip),%rax        # 40e2e0 <__ar_size>
  406a57:	48 2b 05 8a 78 00 00 	sub    0x788a(%rip),%rax        # 40e2e8 <__ar_pos>
  406a5e:	c3                   	ret    
  406a5f:	90                   	nop

0000000000406a60 <ar_alloc>:
  406a60:	48 8b 0d 81 78 00 00 	mov    0x7881(%rip),%rcx        # 40e2e8 <__ar_pos>
  406a67:	48 8b 05 6a 78 00 00 	mov    0x786a(%rip),%rax        # 40e2d8 <__ar_addr>
  406a6e:	48 01 c8             	add    %rcx,%rax
  406a71:	48 01 cf             	add    %rcx,%rdi
  406a74:	48 89 3d 6d 78 00 00 	mov    %rdi,0x786d(%rip)        # 40e2e8 <__ar_pos>
  406a7b:	c3                   	ret    
  406a7c:	0f 1f 40 00          	nopl   0x0(%rax)

0000000000406a80 <ar_strdup>:
  406a80:	53                   	push   %rbx
  406a81:	48 89 fb             	mov    %rdi,%rbx
  406a84:	e8 47 b6 ff ff       	call   4020d0 <strlen@plt>
  406a89:	48 8b 0d 58 78 00 00 	mov    0x7858(%rip),%rcx        # 40e2e8 <__ar_pos>
  406a90:	48 8b 3d 41 78 00 00 	mov    0x7841(%rip),%rdi        # 40e2d8 <__ar_addr>
  406a97:	48 01 cf             	add    %rcx,%rdi
  406a9a:	48 01 c1             	add    %rax,%rcx
  406a9d:	48 83 c1 01          	add    $0x1,%rcx
  406aa1:	48 89 0d 40 78 00 00 	mov    %rcx,0x7840(%rip)        # 40e2e8 <__ar_pos>
  406aa8:	c6 04 38 00          	movb   $0x0,(%rax,%rdi,1)
  406aac:	48 89 de             	mov    %rbx,%rsi
  406aaf:	48 89 c2             	mov    %rax,%rdx
  406ab2:	5b                   	pop    %rbx
  406ab3:	e9 e8 b6 ff ff       	jmp    4021a0 <memcpy@plt>
  406ab8:	0f 1f 84 00 00 00 00 	nopl   0x0(%rax,%rax,1)
  406abf:	00 

0000000000406ac0 <ar_strndup>:
  406ac0:	53                   	push   %rbx
  406ac1:	48 89 fb             	mov    %rdi,%rbx
  406ac4:	e8 b7 b8 ff ff       	call   402380 <strnlen@plt>
  406ac9:	48 8b 0d 18 78 00 00 	mov    0x7818(%rip),%rcx        # 40e2e8 <__ar_pos>
  406ad0:	48 8b 3d 01 78 00 00 	mov    0x7801(%rip),%rdi        # 40e2d8 <__ar_addr>
  406ad7:	48 01 cf             	add    %rcx,%rdi
  406ada:	48 01 c1             	add    %rax,%rcx
  406add:	48 83 c1 01          	add    $0x1,%rcx
  406ae1:	48 89 0d 00 78 00 00 	mov    %rcx,0x7800(%rip)        # 40e2e8 <__ar_pos>
  406ae8:	c6 04 38 00          	movb   $0x0,(%rax,%rdi,1)
  406aec:	48 89 de             	mov    %rbx,%rsi
  406aef:	48 89 c2             	mov    %rax,%rdx
  406af2:	5b                   	pop    %rbx
  406af3:	e9 a8 b6 ff ff       	jmp    4021a0 <memcpy@plt>
  406af8:	0f 1f 84 00 00 00 00 	nopl   0x0(%rax,%rax,1)
  406aff:	00 

0000000000406b00 <shell_exec>:
  406b00:	55                   	push   %rbp
  406b01:	41 57                	push   %r15
  406b03:	41 56                	push   %r14
  406b05:	41 55                	push   %r13
  406b07:	41 54                	push   %r12
  406b09:	53                   	push   %rbx
  406b0a:	50                   	push   %rax
  406b0b:	49 89 cf             	mov    %rcx,%r15
  406b0e:	48 89 d3             	mov    %rdx,%rbx
  406b11:	49 89 f5             	mov    %rsi,%r13
  406b14:	49 89 fc             	mov    %rdi,%r12
  406b17:	49 89 f6             	mov    %rsi,%r14
  406b1a:	48 85 f6             	test   %rsi,%rsi
  406b1d:	74 5c                	je     406b7b <shell_exec+0x7b>
  406b1f:	48 8d 35 bd 2e 00 00 	lea    0x2ebd(%rip),%rsi        # 4099e3 <short_opt+0x73>
  406b26:	4c 89 e7             	mov    %r12,%rdi
  406b29:	e8 52 b5 ff ff       	call   402080 <popen@plt>
  406b2e:	48 85 c0             	test   %rax,%rax
  406b31:	74 7e                	je     406bb1 <shell_exec+0xb1>
  406b33:	48 89 c5             	mov    %rax,%rbp
  406b36:	4c 89 f7             	mov    %r14,%rdi
  406b39:	31 f6                	xor    %esi,%esi
  406b3b:	48 89 da             	mov    %rbx,%rdx
  406b3e:	e8 dd b5 ff ff       	call   402120 <memset@plt>
  406b43:	be 01 00 00 00       	mov    $0x1,%esi
  406b48:	4c 89 f7             	mov    %r14,%rdi
  406b4b:	48 89 da             	mov    %rbx,%rdx
  406b4e:	48 89 e9             	mov    %rbp,%rcx
  406b51:	e8 fa b7 ff ff       	call   402350 <fread@plt>
  406b56:	48 89 c3             	mov    %rax,%rbx
  406b59:	48 89 ef             	mov    %rbp,%rdi
  406b5c:	e8 bf b7 ff ff       	call   402320 <pclose@plt>
  406b61:	4d 85 ff             	test   %r15,%r15
  406b64:	74 03                	je     406b69 <shell_exec+0x69>
  406b66:	49 89 1f             	mov    %rbx,(%r15)
  406b69:	4c 89 f0             	mov    %r14,%rax
  406b6c:	48 83 c4 08          	add    $0x8,%rsp
  406b70:	5b                   	pop    %rbx
  406b71:	41 5c                	pop    %r12
  406b73:	41 5d                	pop    %r13
  406b75:	41 5e                	pop    %r14
  406b77:	41 5f                	pop    %r15
  406b79:	5d                   	pop    %rbp
  406b7a:	c3                   	ret    
  406b7b:	48 89 df             	mov    %rbx,%rdi
  406b7e:	e8 1d b7 ff ff       	call   4022a0 <malloc@plt>
  406b83:	49 89 c6             	mov    %rax,%r14
  406b86:	48 85 c0             	test   %rax,%rax
  406b89:	75 94                	jne    406b1f <shell_exec+0x1f>
  406b8b:	e8 a0 b4 ff ff       	call   402030 <__errno_location@plt>
  406b90:	8b 18                	mov    (%rax),%ebx
  406b92:	89 df                	mov    %ebx,%edi
  406b94:	e8 17 b5 ff ff       	call   4020b0 <strerror@plt>
  406b99:	48 8d 3d a7 39 00 00 	lea    0x39a7(%rip),%rdi        # 40a547 <short_opt+0x147>
  406ba0:	45 31 f6             	xor    %r14d,%r14d
  406ba3:	89 de                	mov    %ebx,%esi
  406ba5:	48 89 c2             	mov    %rax,%rdx
  406ba8:	31 c0                	xor    %eax,%eax
  406baa:	e8 01 12 00 00       	call   407db0 <__pr_error>
  406baf:	eb 29                	jmp    406bda <shell_exec+0xda>
  406bb1:	e8 7a b4 ff ff       	call   402030 <__errno_location@plt>
  406bb6:	8b 18                	mov    (%rax),%ebx
  406bb8:	89 df                	mov    %ebx,%edi
  406bba:	e8 f1 b4 ff ff       	call   4020b0 <strerror@plt>
  406bbf:	48 8d 3d 93 39 00 00 	lea    0x3993(%rip),%rdi        # 40a559 <short_opt+0x159>
  406bc6:	4c 89 e6             	mov    %r12,%rsi
  406bc9:	89 da                	mov    %ebx,%edx
  406bcb:	48 89 c1             	mov    %rax,%rcx
  406bce:	31 c0                	xor    %eax,%eax
  406bd0:	e8 db 11 00 00       	call   407db0 <__pr_error>
  406bd5:	4d 85 ed             	test   %r13,%r13
  406bd8:	75 08                	jne    406be2 <shell_exec+0xe2>
  406bda:	4c 89 f7             	mov    %r14,%rdi
  406bdd:	e8 9e b6 ff ff       	call   402280 <free@plt>
  406be2:	45 31 f6             	xor    %r14d,%r14d
  406be5:	eb 82                	jmp    406b69 <shell_exec+0x69>
  406be7:	66 0f 1f 84 00 00 00 	nopw   0x0(%rax,%rax,1)
  406bee:	00 00 

0000000000406bf0 <escapeshellarg>:
  406bf0:	41 57                	push   %r15
  406bf2:	41 56                	push   %r14
  406bf4:	41 54                	push   %r12
  406bf6:	53                   	push   %rbx
  406bf7:	50                   	push   %rax
  406bf8:	49 89 ce             	mov    %rcx,%r14
  406bfb:	49 89 d4             	mov    %rdx,%r12
  406bfe:	49 89 f7             	mov    %rsi,%r15
  406c01:	48 89 fb             	mov    %rdi,%rbx
  406c04:	48 85 d2             	test   %rdx,%rdx
  406c07:	74 14                	je     406c1d <escapeshellarg+0x2d>
  406c09:	48 85 db             	test   %rbx,%rbx
  406c0c:	74 1f                	je     406c2d <escapeshellarg+0x3d>
  406c0e:	c6 03 27             	movb   $0x27,(%rbx)
  406c11:	b8 01 00 00 00       	mov    $0x1,%eax
  406c16:	4d 85 e4             	test   %r12,%r12
  406c19:	75 2f                	jne    406c4a <escapeshellarg+0x5a>
  406c1b:	eb 63                	jmp    406c80 <escapeshellarg+0x90>
  406c1d:	4c 89 ff             	mov    %r15,%rdi
  406c20:	e8 ab b4 ff ff       	call   4020d0 <strlen@plt>
  406c25:	49 89 c4             	mov    %rax,%r12
  406c28:	48 85 db             	test   %rbx,%rbx
  406c2b:	75 e1                	jne    406c0e <escapeshellarg+0x1e>
  406c2d:	4a 8d 3c a5 01 00 00 	lea    0x1(,%r12,4),%rdi
  406c34:	00 
  406c35:	e8 66 b6 ff ff       	call   4022a0 <malloc@plt>
  406c3a:	48 89 c3             	mov    %rax,%rbx
  406c3d:	c6 03 27             	movb   $0x27,(%rbx)
  406c40:	b8 01 00 00 00       	mov    $0x1,%eax
  406c45:	4d 85 e4             	test   %r12,%r12
  406c48:	74 36                	je     406c80 <escapeshellarg+0x90>
  406c4a:	31 c9                	xor    %ecx,%ecx
  406c4c:	eb 12                	jmp    406c60 <escapeshellarg+0x70>
  406c4e:	66 90                	xchg   %ax,%ax
  406c50:	88 14 03             	mov    %dl,(%rbx,%rax,1)
  406c53:	48 83 c0 01          	add    $0x1,%rax
  406c57:	48 83 c1 01          	add    $0x1,%rcx
  406c5b:	49 39 cc             	cmp    %rcx,%r12
  406c5e:	74 20                	je     406c80 <escapeshellarg+0x90>
  406c60:	41 0f b6 14 0f       	movzbl (%r15,%rcx,1),%edx
  406c65:	80 fa 27             	cmp    $0x27,%dl
  406c68:	75 e6                	jne    406c50 <escapeshellarg+0x60>
  406c6a:	66 c7 04 03 27 5c    	movw   $0x5c27,(%rbx,%rax,1)
  406c70:	c6 44 03 02 27       	movb   $0x27,0x2(%rbx,%rax,1)
  406c75:	48 83 c0 03          	add    $0x3,%rax
  406c79:	41 0f b6 14 0f       	movzbl (%r15,%rcx,1),%edx
  406c7e:	eb d0                	jmp    406c50 <escapeshellarg+0x60>
  406c80:	66 c7 04 03 27 00    	movw   $0x27,(%rbx,%rax,1)
  406c86:	4d 85 f6             	test   %r14,%r14
  406c89:	74 07                	je     406c92 <escapeshellarg+0xa2>
  406c8b:	48 83 c0 01          	add    $0x1,%rax
  406c8f:	49 89 06             	mov    %rax,(%r14)
  406c92:	48 89 d8             	mov    %rbx,%rax
  406c95:	48 83 c4 08          	add    $0x8,%rsp
  406c99:	5b                   	pop    %rbx
  406c9a:	41 5c                	pop    %r12
  406c9c:	41 5e                	pop    %r14
  406c9e:	41 5f                	pop    %r15
  406ca0:	c3                   	ret    
  406ca1:	66 2e 0f 1f 84 00 00 	cs nopw 0x0(%rax,%rax,1)
  406ca8:	00 00 00 
  406cab:	0f 1f 44 00 00       	nopl   0x0(%rax,%rax,1)

0000000000406cb0 <trim_len>:
  406cb0:	48 89 f8             	mov    %rdi,%rax
  406cb3:	48 85 f6             	test   %rsi,%rsi
  406cb6:	0f 84 46 00 00 00    	je     406d02 <trim_len+0x52>
  406cbc:	4c 8d 14 30          	lea    (%rax,%rsi,1),%r10
  406cc0:	49 89 f3             	mov    %rsi,%r11
  406cc3:	49 f7 db             	neg    %r11
  406cc6:	49 b9 00 2c 00 00 01 	movabs $0x100002c00,%r9
  406ccd:	00 00 00 
  406cd0:	45 31 c0             	xor    %r8d,%r8d
  406cd3:	48 89 c1             	mov    %rax,%rcx
  406cd6:	66 2e 0f 1f 84 00 00 	cs nopw 0x0(%rax,%rax,1)
  406cdd:	00 00 00 
  406ce0:	0f b6 39             	movzbl (%rcx),%edi
  406ce3:	48 83 ff 20          	cmp    $0x20,%rdi
  406ce7:	77 23                	ja     406d0c <trim_len+0x5c>
  406ce9:	49 0f a3 f9          	bt     %rdi,%r9
  406ced:	73 1d                	jae    406d0c <trim_len+0x5c>
  406cef:	48 83 c1 01          	add    $0x1,%rcx
  406cf3:	49 ff c3             	inc    %r11
  406cf6:	75 e8                	jne    406ce0 <trim_len+0x30>
  406cf8:	4c 89 d0             	mov    %r10,%rax
  406cfb:	48 85 d2             	test   %rdx,%rdx
  406cfe:	75 65                	jne    406d65 <trim_len+0xb5>
  406d00:	eb 66                	jmp    406d68 <trim_len+0xb8>
  406d02:	45 31 c0             	xor    %r8d,%r8d
  406d05:	48 85 d2             	test   %rdx,%rdx
  406d08:	75 5b                	jne    406d65 <trim_len+0xb5>
  406d0a:	eb 5c                	jmp    406d68 <trim_len+0xb8>
  406d0c:	48 01 f0             	add    %rsi,%rax
  406d0f:	4d 8d 43 01          	lea    0x1(%r11),%r8
  406d13:	41 b2 01             	mov    $0x1,%r10b
  406d16:	31 f6                	xor    %esi,%esi
  406d18:	0f 1f 84 00 00 00 00 	nopl   0x0(%rax,%rax,1)
  406d1f:	00 
  406d20:	0f b6 7c 30 ff       	movzbl -0x1(%rax,%rsi,1),%edi
  406d25:	48 83 ff 20          	cmp    $0x20,%rdi
  406d29:	77 22                	ja     406d4d <trim_len+0x9d>
  406d2b:	49 0f a3 f9          	bt     %rdi,%r9
  406d2f:	73 1c                	jae    406d4d <trim_len+0x9d>
  406d31:	48 8d 7e ff          	lea    -0x1(%rsi),%rdi
  406d35:	45 31 d2             	xor    %r10d,%r10d
  406d38:	49 39 f0             	cmp    %rsi,%r8
  406d3b:	48 89 fe             	mov    %rdi,%rsi
  406d3e:	75 e0                	jne    406d20 <trim_len+0x70>
  406d40:	48 89 c8             	mov    %rcx,%rax
  406d43:	45 31 c0             	xor    %r8d,%r8d
  406d46:	48 85 d2             	test   %rdx,%rdx
  406d49:	75 1a                	jne    406d65 <trim_len+0xb5>
  406d4b:	eb 1b                	jmp    406d68 <trim_len+0xb8>
  406d4d:	49 89 f0             	mov    %rsi,%r8
  406d50:	4d 29 d8             	sub    %r11,%r8
  406d53:	41 f6 c2 01          	test   $0x1,%r10b
  406d57:	75 04                	jne    406d5d <trim_len+0xad>
  406d59:	c6 04 06 00          	movb   $0x0,(%rsi,%rax,1)
  406d5d:	48 89 c8             	mov    %rcx,%rax
  406d60:	48 85 d2             	test   %rdx,%rdx
  406d63:	74 03                	je     406d68 <trim_len+0xb8>
  406d65:	4c 89 02             	mov    %r8,(%rdx)
  406d68:	c3                   	ret    
  406d69:	0f 1f 80 00 00 00 00 	nopl   0x0(%rax)

0000000000406d70 <trim_len_cpy>:
  406d70:	41 57                	push   %r15
  406d72:	41 56                	push   %r14
  406d74:	53                   	push   %rbx
  406d75:	49 89 d6             	mov    %rdx,%r14
  406d78:	49 89 ff             	mov    %rdi,%r15
  406d7b:	49 89 f1             	mov    %rsi,%r9
  406d7e:	49 83 e9 01          	sub    $0x1,%r9
  406d82:	73 07                	jae    406d8b <trim_len_cpy+0x1b>
  406d84:	31 db                	xor    %ebx,%ebx
  406d86:	e9 8b 00 00 00       	jmp    406e16 <trim_len_cpy+0xa6>
  406d8b:	48 89 f3             	mov    %rsi,%rbx
  406d8e:	4d 01 f9             	add    %r15,%r9
  406d91:	49 b8 00 2c 00 00 01 	movabs $0x100002c00,%r8
  406d98:	00 00 00 
  406d9b:	31 d2                	xor    %edx,%edx
  406d9d:	31 c9                	xor    %ecx,%ecx
  406d9f:	90                   	nop
  406da0:	41 0f b6 34 17       	movzbl (%r15,%rdx,1),%esi
  406da5:	48 83 fe 20          	cmp    $0x20,%rsi
  406da9:	77 15                	ja     406dc0 <trim_len_cpy+0x50>
  406dab:	49 0f a3 f0          	bt     %rsi,%r8
  406daf:	73 0f                	jae    406dc0 <trim_len_cpy+0x50>
  406db1:	48 83 c2 01          	add    $0x1,%rdx
  406db5:	b1 01                	mov    $0x1,%cl
  406db7:	48 39 d3             	cmp    %rdx,%rbx
  406dba:	75 e4                	jne    406da0 <trim_len_cpy+0x30>
  406dbc:	31 db                	xor    %ebx,%ebx
  406dbe:	eb 51                	jmp    406e11 <trim_len_cpy+0xa1>
  406dc0:	49 8d 34 17          	lea    (%r15,%rdx,1),%rsi
  406dc4:	31 ff                	xor    %edi,%edi
  406dc6:	66 2e 0f 1f 84 00 00 	cs nopw 0x0(%rax,%rax,1)
  406dcd:	00 00 00 
  406dd0:	41 0f b6 04 39       	movzbl (%r9,%rdi,1),%eax
  406dd5:	48 83 f8 20          	cmp    $0x20,%rax
  406dd9:	77 20                	ja     406dfb <trim_len_cpy+0x8b>
  406ddb:	49 0f a3 c0          	bt     %rax,%r8
  406ddf:	73 1a                	jae    406dfb <trim_len_cpy+0x8b>
  406de1:	48 8d 04 3b          	lea    (%rbx,%rdi,1),%rax
  406de5:	48 83 c0 ff          	add    $0xffffffffffffffff,%rax
  406de9:	48 83 c7 ff          	add    $0xffffffffffffffff,%rdi
  406ded:	48 39 d0             	cmp    %rdx,%rax
  406df0:	75 de                	jne    406dd0 <trim_len_cpy+0x60>
  406df2:	31 db                	xor    %ebx,%ebx
  406df4:	f6 c1 01             	test   $0x1,%cl
  406df7:	75 18                	jne    406e11 <trim_len_cpy+0xa1>
  406df9:	eb 1b                	jmp    406e16 <trim_len_cpy+0xa6>
  406dfb:	48 29 d3             	sub    %rdx,%rbx
  406dfe:	48 01 fb             	add    %rdi,%rbx
  406e01:	f6 c1 01             	test   $0x1,%cl
  406e04:	74 10                	je     406e16 <trim_len_cpy+0xa6>
  406e06:	4c 89 ff             	mov    %r15,%rdi
  406e09:	48 89 da             	mov    %rbx,%rdx
  406e0c:	e8 8f b5 ff ff       	call   4023a0 <memmove@plt>
  406e11:	41 c6 04 1f 00       	movb   $0x0,(%r15,%rbx,1)
  406e16:	4d 85 f6             	test   %r14,%r14
  406e19:	74 03                	je     406e1e <trim_len_cpy+0xae>
  406e1b:	49 89 1e             	mov    %rbx,(%r14)
  406e1e:	4c 89 f8             	mov    %r15,%rax
  406e21:	5b                   	pop    %rbx
  406e22:	41 5e                	pop    %r14
  406e24:	41 5f                	pop    %r15
  406e26:	c3                   	ret    
  406e27:	66 0f 1f 84 00 00 00 	nopw   0x0(%rax,%rax,1)
  406e2e:	00 00 

0000000000406e30 <trim>:
  406e30:	41 56                	push   %r14
  406e32:	53                   	push   %rbx
  406e33:	50                   	push   %rax
  406e34:	49 89 fe             	mov    %rdi,%r14
  406e37:	e8 94 b2 ff ff       	call   4020d0 <strlen@plt>
  406e3c:	48 85 c0             	test   %rax,%rax
  406e3f:	74 47                	je     406e88 <trim+0x58>
  406e41:	48 89 c1             	mov    %rax,%rcx
  406e44:	4d 8d 04 06          	lea    (%r14,%rax,1),%r8
  406e48:	ba 01 00 00 00       	mov    $0x1,%edx
  406e4d:	48 29 c2             	sub    %rax,%rdx
  406e50:	48 be 00 2c 00 00 01 	movabs $0x100002c00,%rsi
  406e57:	00 00 00 
  406e5a:	4c 89 f0             	mov    %r14,%rax
  406e5d:	0f 1f 00             	nopl   (%rax)
  406e60:	0f b6 38             	movzbl (%rax),%edi
  406e63:	48 83 ff 20          	cmp    $0x20,%rdi
  406e67:	77 2a                	ja     406e93 <trim+0x63>
  406e69:	48 0f a3 fe          	bt     %rdi,%rsi
  406e6d:	73 24                	jae    406e93 <trim+0x63>
  406e6f:	48 83 c0 01          	add    $0x1,%rax
  406e73:	48 83 c2 01          	add    $0x1,%rdx
  406e77:	48 83 fa 01          	cmp    $0x1,%rdx
  406e7b:	75 e3                	jne    406e60 <trim+0x30>
  406e7d:	4c 89 c0             	mov    %r8,%rax
  406e80:	48 83 c4 08          	add    $0x8,%rsp
  406e84:	5b                   	pop    %rbx
  406e85:	41 5e                	pop    %r14
  406e87:	c3                   	ret    
  406e88:	4c 89 f0             	mov    %r14,%rax
  406e8b:	48 83 c4 08          	add    $0x8,%rsp
  406e8f:	5b                   	pop    %rbx
  406e90:	41 5e                	pop    %r14
  406e92:	c3                   	ret    
  406e93:	49 01 ce             	add    %rcx,%r14
  406e96:	40 b7 01             	mov    $0x1,%dil
  406e99:	31 c9                	xor    %ecx,%ecx
  406e9b:	0f 1f 44 00 00       	nopl   0x0(%rax,%rax,1)
  406ea0:	41 0f b6 5c 0e ff    	movzbl -0x1(%r14,%rcx,1),%ebx
  406ea6:	48 83 fb 20          	cmp    $0x20,%rbx
  406eaa:	77 16                	ja     406ec2 <trim+0x92>
  406eac:	48 0f a3 de          	bt     %rbx,%rsi
  406eb0:	73 10                	jae    406ec2 <trim+0x92>
  406eb2:	48 8d 59 ff          	lea    -0x1(%rcx),%rbx
  406eb6:	31 ff                	xor    %edi,%edi
  406eb8:	48 39 ca             	cmp    %rcx,%rdx
  406ebb:	48 89 d9             	mov    %rbx,%rcx
  406ebe:	75 e0                	jne    406ea0 <trim+0x70>
  406ec0:	eb be                	jmp    406e80 <trim+0x50>
  406ec2:	40 f6 c7 01          	test   $0x1,%dil
  406ec6:	75 b8                	jne    406e80 <trim+0x50>
  406ec8:	42 c6 04 31 00       	movb   $0x0,(%rcx,%r14,1)
  406ecd:	48 83 c4 08          	add    $0x8,%rsp
  406ed1:	5b                   	pop    %rbx
  406ed2:	41 5e                	pop    %r14
  406ed4:	c3                   	ret    
  406ed5:	66 2e 0f 1f 84 00 00 	cs nopw 0x0(%rax,%rax,1)
  406edc:	00 00 00 
  406edf:	90                   	nop

0000000000406ee0 <trim_cpy>:
  406ee0:	41 56                	push   %r14
  406ee2:	53                   	push   %rbx
  406ee3:	50                   	push   %rax
  406ee4:	49 89 fe             	mov    %rdi,%r14
  406ee7:	e8 e4 b1 ff ff       	call   4020d0 <strlen@plt>
  406eec:	49 89 c1             	mov    %rax,%r9
  406eef:	49 83 e9 01          	sub    $0x1,%r9
  406ef3:	0f 82 92 00 00 00    	jb     406f8b <trim_cpy+0xab>
  406ef9:	48 89 c3             	mov    %rax,%rbx
  406efc:	4d 01 f1             	add    %r14,%r9
  406eff:	31 f6                	xor    %esi,%esi
  406f01:	49 b8 00 2c 00 00 01 	movabs $0x100002c00,%r8
  406f08:	00 00 00 
  406f0b:	31 c9                	xor    %ecx,%ecx
  406f0d:	31 ff                	xor    %edi,%edi
  406f0f:	90                   	nop
  406f10:	41 0f b6 14 0e       	movzbl (%r14,%rcx,1),%edx
  406f15:	48 83 fa 20          	cmp    $0x20,%rdx
  406f19:	77 14                	ja     406f2f <trim_cpy+0x4f>
  406f1b:	49 0f a3 d0          	bt     %rdx,%r8
  406f1f:	73 0e                	jae    406f2f <trim_cpy+0x4f>
  406f21:	48 83 c1 01          	add    $0x1,%rcx
  406f25:	40 b7 01             	mov    $0x1,%dil
  406f28:	48 39 cb             	cmp    %rcx,%rbx
  406f2b:	75 e3                	jne    406f10 <trim_cpy+0x30>
  406f2d:	eb 57                	jmp    406f86 <trim_cpy+0xa6>
  406f2f:	49 8d 34 0e          	lea    (%r14,%rcx,1),%rsi
  406f33:	31 d2                	xor    %edx,%edx
  406f35:	66 2e 0f 1f 84 00 00 	cs nopw 0x0(%rax,%rax,1)
  406f3c:	00 00 00 
  406f3f:	90                   	nop
  406f40:	41 0f b6 04 11       	movzbl (%r9,%rdx,1),%eax
  406f45:	48 83 f8 20          	cmp    $0x20,%rax
  406f49:	77 21                	ja     406f6c <trim_cpy+0x8c>
  406f4b:	49 0f a3 c0          	bt     %rax,%r8
  406f4f:	73 1b                	jae    406f6c <trim_cpy+0x8c>
  406f51:	48 8d 04 13          	lea    (%rbx,%rdx,1),%rax
  406f55:	48 83 c0 ff          	add    $0xffffffffffffffff,%rax
  406f59:	48 83 c2 ff          	add    $0xffffffffffffffff,%rdx
  406f5d:	48 39 c8             	cmp    %rcx,%rax
  406f60:	75 de                	jne    406f40 <trim_cpy+0x60>
  406f62:	40 f6 c7 01          	test   $0x1,%dil
  406f66:	74 23                	je     406f8b <trim_cpy+0xab>
  406f68:	31 f6                	xor    %esi,%esi
  406f6a:	eb 1a                	jmp    406f86 <trim_cpy+0xa6>
  406f6c:	40 f6 c7 01          	test   $0x1,%dil
  406f70:	74 19                	je     406f8b <trim_cpy+0xab>
  406f72:	48 29 cb             	sub    %rcx,%rbx
  406f75:	48 01 d3             	add    %rdx,%rbx
  406f78:	4c 89 f7             	mov    %r14,%rdi
  406f7b:	48 89 da             	mov    %rbx,%rdx
  406f7e:	e8 1d b4 ff ff       	call   4023a0 <memmove@plt>
  406f83:	48 89 de             	mov    %rbx,%rsi
  406f86:	41 c6 04 36 00       	movb   $0x0,(%r14,%rsi,1)
  406f8b:	4c 89 f0             	mov    %r14,%rax
  406f8e:	48 83 c4 08          	add    $0x8,%rsp
  406f92:	5b                   	pop    %rbx
  406f93:	41 5e                	pop    %r14
  406f95:	c3                   	ret    
  406f96:	66 2e 0f 1f 84 00 00 	cs nopw 0x0(%rax,%rax,1)
  406f9d:	00 00 00 

0000000000406fa0 <trunc_str>:
  406fa0:	41 56                	push   %r14
  406fa2:	53                   	push   %rbx
  406fa3:	50                   	push   %rax
  406fa4:	48 89 f3             	mov    %rsi,%rbx
  406fa7:	49 89 fe             	mov    %rdi,%r14
  406faa:	e8 d1 b3 ff ff       	call   402380 <strnlen@plt>
  406faf:	48 39 d8             	cmp    %rbx,%rax
  406fb2:	72 05                	jb     406fb9 <trunc_str+0x19>
  406fb4:	41 c6 04 1e 00       	movb   $0x0,(%r14,%rbx,1)
  406fb9:	4c 89 f0             	mov    %r14,%rax
  406fbc:	48 83 c4 08          	add    $0x8,%rsp
  406fc0:	5b                   	pop    %rbx
  406fc1:	41 5e                	pop    %r14
  406fc3:	c3                   	ret    
  406fc4:	66 2e 0f 1f 84 00 00 	cs nopw 0x0(%rax,%rax,1)
  406fcb:	00 00 00 
  406fce:	66 90                	xchg   %ax,%ax

0000000000406fd0 <memzero_explicit>:
  406fd0:	48 89 f2             	mov    %rsi,%rdx
  406fd3:	31 f6                	xor    %esi,%esi
  406fd5:	e9 46 b1 ff ff       	jmp    402120 <memset@plt>
  406fda:	66 0f 1f 44 00 00    	nopw   0x0(%rax,%rax,1)

0000000000406fe0 <tun_alloc>:
  406fe0:	55                   	push   %rbp
  406fe1:	41 57                	push   %r15
  406fe3:	41 56                	push   %r14
  406fe5:	41 54                	push   %r12
  406fe7:	53                   	push   %rbx
  406fe8:	48 83 ec 30          	sub    $0x30,%rsp
  406fec:	64 48 8b 04 25 28 00 	mov    %fs:0x28,%rax
  406ff3:	00 00 
  406ff5:	48 89 44 24 28       	mov    %rax,0x28(%rsp)
  406ffa:	48 85 ff             	test   %rdi,%rdi
  406ffd:	0f 84 a1 00 00 00    	je     4070a4 <tun_alloc+0xc4>
  407003:	48 89 fd             	mov    %rdi,%rbp
  407006:	80 3f 00             	cmpb   $0x0,(%rdi)
  407009:	0f 84 95 00 00 00    	je     4070a4 <tun_alloc+0xc4>
  40700f:	41 89 f6             	mov    %esi,%r14d
  407012:	48 8b 3d 87 72 00 00 	mov    0x7287(%rip),%rdi        # 40e2a0 <tun_alloc.dtf>
  407019:	be 02 08 00 00       	mov    $0x802,%esi
  40701e:	31 c0                	xor    %eax,%eax
  407020:	e8 3b b1 ff ff       	call   402160 <open@plt>
  407025:	85 c0                	test   %eax,%eax
  407027:	0f 88 8d 00 00 00    	js     4070ba <tun_alloc+0xda>
  40702d:	41 89 c4             	mov    %eax,%r12d
  407030:	0f 57 c0             	xorps  %xmm0,%xmm0
  407033:	0f 29 44 24 10       	movaps %xmm0,0x10(%rsp)
  407038:	0f 29 04 24          	movaps %xmm0,(%rsp)
  40703c:	48 c7 44 24 20 00 00 	movq   $0x0,0x20(%rsp)
  407043:	00 00 
  407045:	48 89 e3             	mov    %rsp,%rbx
  407048:	ba 0f 00 00 00       	mov    $0xf,%edx
  40704d:	48 89 df             	mov    %rbx,%rdi
  407050:	48 89 ee             	mov    %rbp,%rsi
  407053:	e8 b8 b0 ff ff       	call   402110 <strncpy@plt>
  407058:	48 89 df             	mov    %rbx,%rdi
  40705b:	e8 80 fe ff ff       	call   406ee0 <trim_cpy>
  407060:	66 44 89 74 24 10    	mov    %r14w,0x10(%rsp)
  407066:	be ca 54 04 40       	mov    $0x400454ca,%esi
  40706b:	44 89 e7             	mov    %r12d,%edi
  40706e:	48 89 da             	mov    %rbx,%rdx
  407071:	31 c0                	xor    %eax,%eax
  407073:	e8 88 b2 ff ff       	call   402300 <ioctl@plt>
  407078:	85 c0                	test   %eax,%eax
  40707a:	0f 88 ae 00 00 00    	js     40712e <tun_alloc+0x14e>
  407080:	64 48 8b 04 25 28 00 	mov    %fs:0x28,%rax
  407087:	00 00 
  407089:	48 3b 44 24 28       	cmp    0x28(%rsp),%rax
  40708e:	0f 85 d8 00 00 00    	jne    40716c <tun_alloc+0x18c>
  407094:	44 89 e0             	mov    %r12d,%eax
  407097:	48 83 c4 30          	add    $0x30,%rsp
  40709b:	5b                   	pop    %rbx
  40709c:	41 5c                	pop    %r12
  40709e:	41 5e                	pop    %r14
  4070a0:	41 5f                	pop    %r15
  4070a2:	5d                   	pop    %rbp
  4070a3:	c3                   	ret    
  4070a4:	48 8d 3d d5 34 00 00 	lea    0x34d5(%rip),%rdi        # 40a580 <short_opt+0x180>
  4070ab:	31 c0                	xor    %eax,%eax
  4070ad:	e8 fe 0c 00 00       	call   407db0 <__pr_error>
  4070b2:	41 bc ea ff ff ff    	mov    $0xffffffea,%r12d
  4070b8:	eb c6                	jmp    407080 <tun_alloc+0xa0>
  4070ba:	e8 71 af ff ff       	call   402030 <__errno_location@plt>
  4070bf:	44 8b 20             	mov    (%rax),%r12d
  4070c2:	4c 8b 3d d7 71 00 00 	mov    0x71d7(%rip),%r15        # 40e2a0 <tun_alloc.dtf>
  4070c9:	44 89 e7             	mov    %r12d,%edi
  4070cc:	e8 df af ff ff       	call   4020b0 <strerror@plt>
  4070d1:	48 8d 3d c9 34 00 00 	lea    0x34c9(%rip),%rdi        # 40a5a1 <short_opt+0x1a1>
  4070d8:	4c 89 fe             	mov    %r15,%rsi
  4070db:	44 89 e2             	mov    %r12d,%edx
  4070de:	48 89 c1             	mov    %rax,%rcx
  4070e1:	31 c0                	xor    %eax,%eax
  4070e3:	e8 c8 0c 00 00       	call   407db0 <__pr_error>
  4070e8:	41 83 fc 02          	cmp    $0x2,%r12d
  4070ec:	75 76                	jne    407164 <tun_alloc+0x184>
  4070ee:	f6 05 fb 71 00 00 01 	testb  $0x1,0x71fb(%rip)        # 40e2f0 <tun_alloc.retried>
  4070f5:	75 6d                	jne    407164 <tun_alloc+0x184>
  4070f7:	48 8d 05 cf 34 00 00 	lea    0x34cf(%rip),%rax        # 40a5cd <short_opt+0x1cd>
  4070fe:	48 89 05 9b 71 00 00 	mov    %rax,0x719b(%rip)        # 40e2a0 <tun_alloc.dtf>
  407105:	c6 05 e4 71 00 00 01 	movb   $0x1,0x71e4(%rip)        # 40e2f0 <tun_alloc.retried>
  40710c:	48 8d 3d aa 34 00 00 	lea    0x34aa(%rip),%rdi        # 40a5bd <short_opt+0x1bd>
  407113:	31 c0                	xor    %eax,%eax
  407115:	e8 46 11 00 00       	call   408260 <__pr_notice>
  40711a:	41 0f bf f6          	movswl %r14w,%esi
  40711e:	48 89 ef             	mov    %rbp,%rdi
  407121:	e8 ba fe ff ff       	call   406fe0 <tun_alloc>
  407126:	41 89 c4             	mov    %eax,%r12d
  407129:	e9 52 ff ff ff       	jmp    407080 <tun_alloc+0xa0>
  40712e:	44 89 e7             	mov    %r12d,%edi
  407131:	e8 ea b2 ff ff       	call   402420 <close@plt>
  407136:	e8 f5 ae ff ff       	call   402030 <__errno_location@plt>
  40713b:	8b 18                	mov    (%rax),%ebx
  40713d:	89 df                	mov    %ebx,%edi
  40713f:	e8 6c af ff ff       	call   4020b0 <strerror@plt>
  407144:	48 8d 3d 8b 34 00 00 	lea    0x348b(%rip),%rdi        # 40a5d6 <short_opt+0x1d6>
  40714b:	44 89 e6             	mov    %r12d,%esi
  40714e:	89 da                	mov    %ebx,%edx
  407150:	48 89 c1             	mov    %rax,%rcx
  407153:	31 c0                	xor    %eax,%eax
  407155:	e8 56 0c 00 00       	call   407db0 <__pr_error>
  40715a:	f7 db                	neg    %ebx
  40715c:	41 89 dc             	mov    %ebx,%r12d
  40715f:	e9 1c ff ff ff       	jmp    407080 <tun_alloc+0xa0>
  407164:	41 f7 dc             	neg    %r12d
  407167:	e9 14 ff ff ff       	jmp    407080 <tun_alloc+0xa0>
  40716c:	e8 cf b0 ff ff       	call   402240 <__stack_chk_fail@plt>
  407171:	66 2e 0f 1f 84 00 00 	cs nopw 0x0(%rax,%rax,1)
  407178:	00 00 00 
  40717b:	0f 1f 44 00 00       	nopl   0x0(%rax,%rax,1)

0000000000407180 <fd_set_nonblock>:
  407180:	55                   	push   %rbp
  407181:	41 56                	push   %r14
  407183:	53                   	push   %rbx
  407184:	89 fb                	mov    %edi,%ebx
  407186:	be 03 00 00 00       	mov    $0x3,%esi
  40718b:	31 d2                	xor    %edx,%edx
  40718d:	31 c0                	xor    %eax,%eax
  40718f:	e8 9c af ff ff       	call   402130 <fcntl@plt>
  407194:	85 c0                	test   %eax,%eax
  407196:	78 22                	js     4071ba <fd_set_nonblock+0x3a>
  407198:	0d 00 08 00 00       	or     $0x800,%eax
  40719d:	89 df                	mov    %ebx,%edi
  40719f:	be 04 00 00 00       	mov    $0x4,%esi
  4071a4:	89 c2                	mov    %eax,%edx
  4071a6:	31 c0                	xor    %eax,%eax
  4071a8:	e8 83 af ff ff       	call   402130 <fcntl@plt>
  4071ad:	89 c5                	mov    %eax,%ebp
  4071af:	85 c0                	test   %eax,%eax
  4071b1:	78 2e                	js     4071e1 <fd_set_nonblock+0x61>
  4071b3:	89 e8                	mov    %ebp,%eax
  4071b5:	5b                   	pop    %rbx
  4071b6:	41 5e                	pop    %r14
  4071b8:	5d                   	pop    %rbp
  4071b9:	c3                   	ret    
  4071ba:	e8 71 ae ff ff       	call   402030 <__errno_location@plt>
  4071bf:	8b 28                	mov    (%rax),%ebp
  4071c1:	89 ef                	mov    %ebp,%edi
  4071c3:	e8 e8 ae ff ff       	call   4020b0 <strerror@plt>
  4071c8:	48 8d 3d 2b 34 00 00 	lea    0x342b(%rip),%rdi        # 40a5fa <short_opt+0x1fa>
  4071cf:	89 de                	mov    %ebx,%esi
  4071d1:	89 ea                	mov    %ebp,%edx
  4071d3:	48 89 c1             	mov    %rax,%rcx
  4071d6:	31 c0                	xor    %eax,%eax
  4071d8:	e8 d3 0b 00 00       	call   407db0 <__pr_error>
  4071dd:	f7 dd                	neg    %ebp
  4071df:	eb d2                	jmp    4071b3 <fd_set_nonblock+0x33>
  4071e1:	e8 4a ae ff ff       	call   402030 <__errno_location@plt>
  4071e6:	44 8b 30             	mov    (%rax),%r14d
  4071e9:	44 89 f7             	mov    %r14d,%edi
  4071ec:	e8 bf ae ff ff       	call   4020b0 <strerror@plt>
  4071f1:	48 8d 3d 21 34 00 00 	lea    0x3421(%rip),%rdi        # 40a619 <short_opt+0x219>
  4071f8:	89 de                	mov    %ebx,%esi
  4071fa:	89 ea                	mov    %ebp,%edx
  4071fc:	44 89 f1             	mov    %r14d,%ecx
  4071ff:	49 89 c0             	mov    %rax,%r8
  407202:	31 c0                	xor    %eax,%eax
  407204:	e8 a7 0b 00 00       	call   407db0 <__pr_error>
  407209:	41 f7 de             	neg    %r14d
  40720c:	44 89 f5             	mov    %r14d,%ebp
  40720f:	eb a2                	jmp    4071b3 <fd_set_nonblock+0x33>
  407211:	66 2e 0f 1f 84 00 00 	cs nopw 0x0(%rax,%rax,1)
  407218:	00 00 00 
  40721b:	0f 1f 44 00 00       	nopl   0x0(%rax,%rax,1)

0000000000407220 <teavpn_iface_up>:
  407220:	be 01 00 00 00       	mov    $0x1,%esi
  407225:	eb 09                	jmp    407230 <teavpn_iface_toggle>
  407227:	66 0f 1f 84 00 00 00 	nopw   0x0(%rax,%rax,1)
  40722e:	00 00 

0000000000407230 <teavpn_iface_toggle>:
  407230:	55                   	push   %rbp
  407231:	41 57                	push   %r15
  407233:	41 56                	push   %r14
  407235:	41 55                	push   %r13
  407237:	41 54                	push   %r12
  407239:	53                   	push   %rbx
  40723a:	48 81 ec 08 05 00 00 	sub    $0x508,%rsp
  407241:	41 89 f5             	mov    %esi,%r13d
  407244:	49 89 fe             	mov    %rdi,%r14
  407247:	64 48 8b 04 25 28 00 	mov    %fs:0x28,%rax
  40724e:	00 00 
  407250:	48 89 84 24 00 05 00 	mov    %rax,0x500(%rsp)
  407257:	00 
  407258:	48 8d 77 20          	lea    0x20(%rdi),%rsi
  40725c:	48 8d bc 24 e0 04 00 	lea    0x4e0(%rsp),%rdi
  407263:	00 
  407264:	ba 18 00 00 00       	mov    $0x18,%edx
  407269:	e8 a2 ae ff ff       	call   402110 <strncpy@plt>
  40726e:	49 8d 76 30          	lea    0x30(%r14),%rsi
  407272:	48 8d 9c 24 c0 04 00 	lea    0x4c0(%rsp),%rbx
  407279:	00 
  40727a:	ba 18 00 00 00       	mov    $0x18,%edx
  40727f:	48 89 df             	mov    %rbx,%rdi
  407282:	e8 89 ae ff ff       	call   402110 <strncpy@plt>
  407287:	48 8d 54 24 18       	lea    0x18(%rsp),%rdx
  40728c:	bf 02 00 00 00       	mov    $0x2,%edi
  407291:	48 89 de             	mov    %rbx,%rsi
  407294:	e8 67 b1 ff ff       	call   402400 <inet_pton@plt>
  407299:	85 c0                	test   %eax,%eax
  40729b:	0f 84 05 07 00 00    	je     4079a6 <teavpn_iface_toggle+0x776>
  4072a1:	8b 44 24 18          	mov    0x18(%rsp),%eax
  4072a5:	0f bd d8             	bsr    %eax,%ebx
  4072a8:	83 f3 e0             	xor    $0xffffffe0,%ebx
  4072ab:	83 c3 21             	add    $0x21,%ebx
  4072ae:	85 c0                	test   %eax,%eax
  4072b0:	0f 44 d8             	cmove  %eax,%ebx
  4072b3:	48 8d b4 24 e0 04 00 	lea    0x4e0(%rsp),%rsi
  4072ba:	00 
  4072bb:	48 8d 54 24 1c       	lea    0x1c(%rsp),%rdx
  4072c0:	bf 02 00 00 00       	mov    $0x2,%edi
  4072c5:	e8 36 b1 ff ff       	call   402400 <inet_pton@plt>
  4072ca:	85 c0                	test   %eax,%eax
  4072cc:	0f 84 05 07 00 00    	je     4079d7 <teavpn_iface_toggle+0x7a7>
  4072d2:	48 8d bc 24 e0 04 00 	lea    0x4e0(%rsp),%rdi
  4072d9:	00 
  4072da:	be 18 00 00 00       	mov    $0x18,%esi
  4072df:	e8 9c b0 ff ff       	call   402380 <strnlen@plt>
  4072e4:	48 8d 3c 04          	lea    (%rsp,%rax,1),%rdi
  4072e8:	48 81 c7 e0 04 00 00 	add    $0x4e0,%rdi
  4072ef:	48 8d 15 82 33 00 00 	lea    0x3382(%rip),%rdx        # 40a678 <short_opt+0x278>
  4072f6:	be 18 00 00 00       	mov    $0x18,%esi
  4072fb:	89 d9                	mov    %ebx,%ecx
  4072fd:	31 c0                	xor    %eax,%eax
  4072ff:	e8 8c b0 ff ff       	call   402390 <snprintf@plt>
  407304:	8b 44 24 1c          	mov    0x1c(%rsp),%eax
  407308:	8b 4c 24 18          	mov    0x18(%rsp),%ecx
  40730c:	89 ca                	mov    %ecx,%edx
  40730e:	21 c2                	and    %eax,%edx
  407310:	89 54 24 14          	mov    %edx,0x14(%rsp)
  407314:	f7 d1                	not    %ecx
  407316:	09 c1                	or     %eax,%ecx
  407318:	89 4c 24 10          	mov    %ecx,0x10(%rsp)
  40731c:	48 8d 74 24 14       	lea    0x14(%rsp),%rsi
  407321:	48 8d 94 24 a0 04 00 	lea    0x4a0(%rsp),%rdx
  407328:	00 
  407329:	bf 02 00 00 00       	mov    $0x2,%edi
  40732e:	b9 18 00 00 00       	mov    $0x18,%ecx
  407333:	e8 c8 ae ff ff       	call   402200 <inet_ntop@plt>
  407338:	48 85 c0             	test   %rax,%rax
  40733b:	0f 84 d6 06 00 00    	je     407a17 <teavpn_iface_toggle+0x7e7>
  407341:	48 8d bc 24 a0 04 00 	lea    0x4a0(%rsp),%rdi
  407348:	00 
  407349:	be 18 00 00 00       	mov    $0x18,%esi
  40734e:	e8 2d b0 ff ff       	call   402380 <strnlen@plt>
  407353:	48 8d 3c 04          	lea    (%rsp,%rax,1),%rdi
  407357:	48 81 c7 a0 04 00 00 	add    $0x4a0,%rdi
  40735e:	48 8d 15 38 33 00 00 	lea    0x3338(%rip),%rdx        # 40a69d <short_opt+0x29d>
  407365:	be 18 00 00 00       	mov    $0x18,%esi
  40736a:	89 d9                	mov    %ebx,%ecx
  40736c:	31 c0                	xor    %eax,%eax
  40736e:	e8 1d b0 ff ff       	call   402390 <snprintf@plt>
  407373:	48 8d 74 24 10       	lea    0x10(%rsp),%rsi
  407378:	48 8d 94 24 80 04 00 	lea    0x480(%rsp),%rdx
  40737f:	00 
  407380:	bf 02 00 00 00       	mov    $0x2,%edi
  407385:	b9 18 00 00 00       	mov    $0x18,%ecx
  40738a:	e8 71 ae ff ff       	call   402200 <inet_ntop@plt>
  40738f:	48 85 c0             	test   %rax,%rax
  407392:	0f 84 a8 05 00 00    	je     407940 <teavpn_iface_toggle+0x710>
  407398:	48 8d 9c 24 e0 04 00 	lea    0x4e0(%rsp),%rbx
  40739f:	00 
  4073a0:	48 89 df             	mov    %rbx,%rdi
  4073a3:	e8 28 ad ff ff       	call   4020d0 <strlen@plt>
  4073a8:	48 8d bc 24 20 04 00 	lea    0x420(%rsp),%rdi
  4073af:	00 
  4073b0:	48 89 de             	mov    %rbx,%rsi
  4073b3:	48 89 c2             	mov    %rax,%rdx
  4073b6:	31 c9                	xor    %ecx,%ecx
  4073b8:	e8 33 f8 ff ff       	call   406bf0 <escapeshellarg>
  4073bd:	48 8d 9c 24 a0 04 00 	lea    0x4a0(%rsp),%rbx
  4073c4:	00 
  4073c5:	48 89 df             	mov    %rbx,%rdi
  4073c8:	e8 03 ad ff ff       	call   4020d0 <strlen@plt>
  4073cd:	48 8d bc 24 e0 03 00 	lea    0x3e0(%rsp),%rdi
  4073d4:	00 
  4073d5:	48 89 de             	mov    %rbx,%rsi
  4073d8:	48 89 c2             	mov    %rax,%rdx
  4073db:	31 c9                	xor    %ecx,%ecx
  4073dd:	e8 0e f8 ff ff       	call   406bf0 <escapeshellarg>
  4073e2:	48 8d 9c 24 80 04 00 	lea    0x480(%rsp),%rbx
  4073e9:	00 
  4073ea:	48 89 df             	mov    %rbx,%rdi
  4073ed:	e8 de ac ff ff       	call   4020d0 <strlen@plt>
  4073f2:	4c 8d a4 24 a0 03 00 	lea    0x3a0(%rsp),%r12
  4073f9:	00 
  4073fa:	4c 89 e7             	mov    %r12,%rdi
  4073fd:	48 89 de             	mov    %rbx,%rsi
  407400:	48 89 c2             	mov    %rax,%rdx
  407403:	31 c9                	xor    %ecx,%ecx
  407405:	e8 e6 f7 ff ff       	call   406bf0 <escapeshellarg>
  40740a:	4c 89 f7             	mov    %r14,%rdi
  40740d:	e8 be ac ff ff       	call   4020d0 <strlen@plt>
  407412:	48 8d bc 24 60 04 00 	lea    0x460(%rsp),%rdi
  407419:	00 
  40741a:	4c 89 f6             	mov    %r14,%rsi
  40741d:	48 89 c2             	mov    %rax,%rdx
  407420:	31 c9                	xor    %ecx,%ecx
  407422:	e8 c9 f7 ff ff       	call   406bf0 <escapeshellarg>
  407427:	e8 04 ac ff ff       	call   402030 <__errno_location@plt>
  40742c:	48 89 c5             	mov    %rax,%rbp
  40742f:	c7 00 00 00 00 00    	movl   $0x0,(%rax)
  407435:	4c 8d 3d 96 33 00 00 	lea    0x3396(%rip),%r15        # 40a7d2 <short_opt+0x3d2>
  40743c:	4c 89 ff             	mov    %r15,%rdi
  40743f:	be 05 00 00 00       	mov    $0x5,%esi
  407444:	e8 77 af ff ff       	call   4023c0 <access@plt>
  407449:	89 c3                	mov    %eax,%ebx
  40744b:	8b 7d 00             	mov    0x0(%rbp),%edi
  40744e:	e8 5d ac ff ff       	call   4020b0 <strerror@plt>
  407453:	48 8d 3d 93 33 00 00 	lea    0x3393(%rip),%rdi        # 40a7ed <short_opt+0x3ed>
  40745a:	4c 89 fe             	mov    %r15,%rsi
  40745d:	48 89 c2             	mov    %rax,%rdx
  407460:	31 c0                	xor    %eax,%eax
  407462:	e8 f9 0d 00 00       	call   408260 <__pr_notice>
  407467:	85 db                	test   %ebx,%ebx
  407469:	0f 84 58 01 00 00    	je     4075c7 <teavpn_iface_toggle+0x397>
  40746f:	c7 45 00 00 00 00 00 	movl   $0x0,0x0(%rbp)
  407476:	4c 8d 3d 67 33 00 00 	lea    0x3367(%rip),%r15        # 40a7e4 <short_opt+0x3e4>
  40747d:	4c 89 ff             	mov    %r15,%rdi
  407480:	be 05 00 00 00       	mov    $0x5,%esi
  407485:	e8 36 af ff ff       	call   4023c0 <access@plt>
  40748a:	89 c3                	mov    %eax,%ebx
  40748c:	8b 7d 00             	mov    0x0(%rbp),%edi
  40748f:	e8 1c ac ff ff       	call   4020b0 <strerror@plt>
  407494:	48 8d 3d 52 33 00 00 	lea    0x3352(%rip),%rdi        # 40a7ed <short_opt+0x3ed>
  40749b:	4c 89 fe             	mov    %r15,%rsi
  40749e:	48 89 c2             	mov    %rax,%rdx
  4074a1:	31 c0                	xor    %eax,%eax
  4074a3:	e8 b8 0d 00 00       	call   408260 <__pr_notice>
  4074a8:	85 db                	test   %ebx,%ebx
  4074aa:	0f 84 17 01 00 00    	je     4075c7 <teavpn_iface_toggle+0x397>
  4074b0:	c7 45 00 00 00 00 00 	movl   $0x0,0x0(%rbp)
  4074b7:	4c 8d 3d f1 32 00 00 	lea    0x32f1(%rip),%r15        # 40a7af <short_opt+0x3af>
  4074be:	4c 89 ff             	mov    %r15,%rdi
  4074c1:	be 05 00 00 00       	mov    $0x5,%esi
  4074c6:	e8 f5 ae ff ff       	call   4023c0 <access@plt>
  4074cb:	89 c3                	mov    %eax,%ebx
  4074cd:	8b 7d 00             	mov    0x0(%rbp),%edi
  4074d0:	e8 db ab ff ff       	call   4020b0 <strerror@plt>
  4074d5:	48 8d 3d 11 33 00 00 	lea    0x3311(%rip),%rdi        # 40a7ed <short_opt+0x3ed>
  4074dc:	4c 89 fe             	mov    %r15,%rsi
  4074df:	48 89 c2             	mov    %rax,%rdx
  4074e2:	31 c0                	xor    %eax,%eax
  4074e4:	e8 77 0d 00 00       	call   408260 <__pr_notice>
  4074e9:	85 db                	test   %ebx,%ebx
  4074eb:	0f 84 d6 00 00 00    	je     4075c7 <teavpn_iface_toggle+0x397>
  4074f1:	c7 45 00 00 00 00 00 	movl   $0x0,0x0(%rbp)
  4074f8:	4c 8d 3d bc 32 00 00 	lea    0x32bc(%rip),%r15        # 40a7bb <short_opt+0x3bb>
  4074ff:	4c 89 ff             	mov    %r15,%rdi
  407502:	be 05 00 00 00       	mov    $0x5,%esi
  407507:	e8 b4 ae ff ff       	call   4023c0 <access@plt>
  40750c:	89 c3                	mov    %eax,%ebx
  40750e:	8b 7d 00             	mov    0x0(%rbp),%edi
  407511:	e8 9a ab ff ff       	call   4020b0 <strerror@plt>
  407516:	48 8d 3d d0 32 00 00 	lea    0x32d0(%rip),%rdi        # 40a7ed <short_opt+0x3ed>
  40751d:	4c 89 fe             	mov    %r15,%rsi
  407520:	48 89 c2             	mov    %rax,%rdx
  407523:	31 c0                	xor    %eax,%eax
  407525:	e8 36 0d 00 00       	call   408260 <__pr_notice>
  40752a:	85 db                	test   %ebx,%ebx
  40752c:	0f 84 95 00 00 00    	je     4075c7 <teavpn_iface_toggle+0x397>
  407532:	c7 45 00 00 00 00 00 	movl   $0x0,0x0(%rbp)
  407539:	4c 8d 3d 88 32 00 00 	lea    0x3288(%rip),%r15        # 40a7c8 <short_opt+0x3c8>
  407540:	4c 89 ff             	mov    %r15,%rdi
  407543:	be 05 00 00 00       	mov    $0x5,%esi
  407548:	e8 73 ae ff ff       	call   4023c0 <access@plt>
  40754d:	89 c3                	mov    %eax,%ebx
  40754f:	8b 7d 00             	mov    0x0(%rbp),%edi
  407552:	e8 59 ab ff ff       	call   4020b0 <strerror@plt>
  407557:	48 8d 3d 8f 32 00 00 	lea    0x328f(%rip),%rdi        # 40a7ed <short_opt+0x3ed>
  40755e:	4c 89 fe             	mov    %r15,%rsi
  407561:	48 89 c2             	mov    %rax,%rdx
  407564:	31 c0                	xor    %eax,%eax
  407566:	e8 f5 0c 00 00       	call   408260 <__pr_notice>
  40756b:	85 db                	test   %ebx,%ebx
  40756d:	74 58                	je     4075c7 <teavpn_iface_toggle+0x397>
  40756f:	c7 45 00 00 00 00 00 	movl   $0x0,0x0(%rbp)
  407576:	4c 8d 3d 5d 32 00 00 	lea    0x325d(%rip),%r15        # 40a7da <short_opt+0x3da>
  40757d:	4c 89 ff             	mov    %r15,%rdi
  407580:	be 05 00 00 00       	mov    $0x5,%esi
  407585:	e8 36 ae ff ff       	call   4023c0 <access@plt>
  40758a:	89 c3                	mov    %eax,%ebx
  40758c:	8b 7d 00             	mov    0x0(%rbp),%edi
  40758f:	e8 1c ab ff ff       	call   4020b0 <strerror@plt>
  407594:	48 8d 3d 52 32 00 00 	lea    0x3252(%rip),%rdi        # 40a7ed <short_opt+0x3ed>
  40759b:	4c 89 fe             	mov    %r15,%rsi
  40759e:	48 89 c2             	mov    %rax,%rdx
  4075a1:	31 c0                	xor    %eax,%eax
  4075a3:	e8 b8 0c 00 00       	call   408260 <__pr_notice>
  4075a8:	85 db                	test   %ebx,%ebx
  4075aa:	74 1b                	je     4075c7 <teavpn_iface_toggle+0x397>
  4075ac:	48 8d 3d 4a 32 00 00 	lea    0x324a(%rip),%rdi        # 40a7fd <short_opt+0x3fd>
  4075b3:	c7 44 24 0c 00 00 00 	movl   $0x0,0xc(%rsp)
  4075ba:	00 
  4075bb:	31 c0                	xor    %eax,%eax
  4075bd:	e8 ee 07 00 00       	call   407db0 <__pr_error>
  4075c2:	e9 b2 03 00 00       	jmp    407979 <teavpn_iface_toggle+0x749>
  4075c7:	48 8d 05 3d 1b 00 00 	lea    0x1b3d(%rip),%rax        # 40910b <_IO_stdin_used+0x10b>
  4075ce:	4c 8d 05 07 31 00 00 	lea    0x3107(%rip),%r8        # 40a6dc <short_opt+0x2dc>
  4075d5:	45 84 ed             	test   %r13b,%r13b
  4075d8:	4c 0f 45 c0          	cmovne %rax,%r8
  4075dc:	45 0f b7 4e 50       	movzwl 0x50(%r14),%r9d
  4075e1:	48 8d 15 da 30 00 00 	lea    0x30da(%rip),%rdx        # 40a6c2 <short_opt+0x2c2>
  4075e8:	c7 44 24 0c 00 00 00 	movl   $0x0,0xc(%rsp)
  4075ef:	00 
  4075f0:	48 8d 9c 24 a0 02 00 	lea    0x2a0(%rsp),%rbx
  4075f7:	00 
  4075f8:	48 8d 8c 24 60 04 00 	lea    0x460(%rsp),%rcx
  4075ff:	00 
  407600:	be 00 01 00 00       	mov    $0x100,%esi
  407605:	48 89 df             	mov    %rbx,%rdi
  407608:	31 c0                	xor    %eax,%eax
  40760a:	e8 81 ad ff ff       	call   402390 <snprintf@plt>
  40760f:	48 8d 15 cb 30 00 00 	lea    0x30cb(%rip),%rdx        # 40a6e1 <short_opt+0x2e1>
  407616:	48 8d ac 24 a0 00 00 	lea    0xa0(%rsp),%rbp
  40761d:	00 
  40761e:	be 00 02 00 00       	mov    $0x200,%esi
  407623:	48 89 ef             	mov    %rbp,%rdi
  407626:	4c 89 f9             	mov    %r15,%rcx
  407629:	49 89 d8             	mov    %rbx,%r8
  40762c:	31 c0                	xor    %eax,%eax
  40762e:	e8 5d ad ff ff       	call   402390 <snprintf@plt>
  407633:	48 8d 3d ad 30 00 00 	lea    0x30ad(%rip),%rdi        # 40a6e7 <short_opt+0x2e7>
  40763a:	48 89 ee             	mov    %rbp,%rsi
  40763d:	31 c0                	xor    %eax,%eax
  40763f:	e8 1c 0c 00 00       	call   408260 <__pr_notice>
  407644:	48 89 ef             	mov    %rbp,%rdi
  407647:	e8 74 ab ff ff       	call   4021c0 <system@plt>
  40764c:	85 c0                	test   %eax,%eax
  40764e:	0f 85 25 03 00 00    	jne    407979 <teavpn_iface_toggle+0x749>
  407654:	48 8d 05 b9 30 00 00 	lea    0x30b9(%rip),%rax        # 40a714 <short_opt+0x314>
  40765b:	4c 89 e1             	mov    %r12,%rcx
  40765e:	4c 8d 25 b3 30 00 00 	lea    0x30b3(%rip),%r12        # 40a718 <short_opt+0x318>
  407665:	45 84 ed             	test   %r13b,%r13b
  407668:	4c 0f 45 e0          	cmovne %rax,%r12
  40766c:	48 89 0c 24          	mov    %rcx,(%rsp)
  407670:	48 8d 15 7e 30 00 00 	lea    0x307e(%rip),%rdx        # 40a6f5 <short_opt+0x2f5>
  407677:	c7 44 24 0c 00 00 00 	movl   $0x0,0xc(%rsp)
  40767e:	00 
  40767f:	48 8d 9c 24 a0 02 00 	lea    0x2a0(%rsp),%rbx
  407686:	00 
  407687:	4c 8d 84 24 60 04 00 	lea    0x460(%rsp),%r8
  40768e:	00 
  40768f:	4c 8d 8c 24 20 04 00 	lea    0x420(%rsp),%r9
  407696:	00 
  407697:	be 00 01 00 00       	mov    $0x100,%esi
  40769c:	48 89 df             	mov    %rbx,%rdi
  40769f:	4c 89 e1             	mov    %r12,%rcx
  4076a2:	31 c0                	xor    %eax,%eax
  4076a4:	e8 e7 ac ff ff       	call   402390 <snprintf@plt>
  4076a9:	48 8d 15 31 30 00 00 	lea    0x3031(%rip),%rdx        # 40a6e1 <short_opt+0x2e1>
  4076b0:	48 8d ac 24 a0 00 00 	lea    0xa0(%rsp),%rbp
  4076b7:	00 
  4076b8:	be 00 02 00 00       	mov    $0x200,%esi
  4076bd:	48 89 ef             	mov    %rbp,%rdi
  4076c0:	4c 89 f9             	mov    %r15,%rcx
  4076c3:	49 89 d8             	mov    %rbx,%r8
  4076c6:	31 c0                	xor    %eax,%eax
  4076c8:	e8 c3 ac ff ff       	call   402390 <snprintf@plt>
  4076cd:	48 8d 3d 13 30 00 00 	lea    0x3013(%rip),%rdi        # 40a6e7 <short_opt+0x2e7>
  4076d4:	48 89 ee             	mov    %rbp,%rsi
  4076d7:	31 c0                	xor    %eax,%eax
  4076d9:	e8 82 0b 00 00       	call   408260 <__pr_notice>
  4076de:	48 89 ef             	mov    %rbp,%rdi
  4076e1:	e8 da aa ff ff       	call   4021c0 <system@plt>
  4076e6:	85 c0                	test   %eax,%eax
  4076e8:	0f 85 8b 02 00 00    	jne    407979 <teavpn_iface_toggle+0x749>
  4076ee:	41 80 7e 10 00       	cmpb   $0x0,0x10(%r14)
  4076f3:	0f 84 46 03 00 00    	je     407a3f <teavpn_iface_toggle+0x80f>
  4076f9:	48 8d 15 55 30 00 00 	lea    0x3055(%rip),%rdx        # 40a755 <short_opt+0x355>
  407700:	48 8d 5c 24 20       	lea    0x20(%rsp),%rbx
  407705:	be 80 00 00 00       	mov    $0x80,%esi
  40770a:	48 89 df             	mov    %rbx,%rdi
  40770d:	4c 89 f9             	mov    %r15,%rcx
  407710:	31 c0                	xor    %eax,%eax
  407712:	e8 79 ac ff ff       	call   402390 <snprintf@plt>
  407717:	48 8d ac 24 a0 02 00 	lea    0x2a0(%rsp),%rbp
  40771e:	00 
  40771f:	ba ff 00 00 00       	mov    $0xff,%edx
  407724:	48 89 df             	mov    %rbx,%rdi
  407727:	48 89 ee             	mov    %rbp,%rsi
  40772a:	31 c9                	xor    %ecx,%ecx
  40772c:	e8 cf f3 ff ff       	call   406b00 <shell_exec>
  407731:	c6 84 24 9f 03 00 00 	movb   $0x0,0x39f(%rsp)
  407738:	00 
  407739:	48 8d 35 df 2f 00 00 	lea    0x2fdf(%rip),%rsi        # 40a71f <short_opt+0x31f>
  407740:	48 89 ef             	mov    %rbp,%rdi
  407743:	e8 18 a9 ff ff       	call   402060 <strstr@plt>
  407748:	48 85 c0             	test   %rax,%rax
  40774b:	0f 84 f9 02 00 00    	je     407a4a <teavpn_iface_toggle+0x81a>
  407751:	48 89 c3             	mov    %rax,%rbx
  407754:	49 8d 6e 10          	lea    0x10(%r14),%rbp
  407758:	48 83 c3 0c          	add    $0xc,%rbx
  40775c:	48 b9 01 04 00 00 01 	movabs $0x100000401,%rcx
  407763:	00 00 00 
  407766:	48 89 d8             	mov    %rbx,%rax
  407769:	e9 06 00 00 00       	jmp    407774 <teavpn_iface_toggle+0x544>
  40776e:	66 90                	xchg   %ax,%ax
  407770:	48 83 c0 01          	add    $0x1,%rax
  407774:	0f b6 10             	movzbl (%rax),%edx
  407777:	48 83 fa 20          	cmp    $0x20,%rdx
  40777b:	77 f3                	ja     407770 <teavpn_iface_toggle+0x540>
  40777d:	48 0f a3 d1          	bt     %rdx,%rcx
  407781:	73 ed                	jae    407770 <teavpn_iface_toggle+0x540>
  407783:	b1 01                	mov    $0x1,%cl
  407785:	89 4c 24 0c          	mov    %ecx,0xc(%rsp)
  407789:	c6 00 00             	movb   $0x0,(%rax)
  40778c:	48 89 df             	mov    %rbx,%rdi
  40778f:	e8 3c a9 ff ff       	call   4020d0 <strlen@plt>
  407794:	4c 8d ac 24 20 04 00 	lea    0x420(%rsp),%r13
  40779b:	00 
  40779c:	4c 89 ef             	mov    %r13,%rdi
  40779f:	48 89 de             	mov    %rbx,%rsi
  4077a2:	48 89 c2             	mov    %rax,%rdx
  4077a5:	31 c9                	xor    %ecx,%ecx
  4077a7:	e8 44 f4 ff ff       	call   406bf0 <escapeshellarg>
  4077ac:	48 89 ef             	mov    %rbp,%rdi
  4077af:	e8 1c a9 ff ff       	call   4020d0 <strlen@plt>
  4077b4:	48 8d 9c 24 e0 03 00 	lea    0x3e0(%rsp),%rbx
  4077bb:	00 
  4077bc:	48 89 df             	mov    %rbx,%rdi
  4077bf:	48 89 ee             	mov    %rbp,%rsi
  4077c2:	48 89 c2             	mov    %rax,%rdx
  4077c5:	31 c9                	xor    %ecx,%ecx
  4077c7:	e8 24 f4 ff ff       	call   406bf0 <escapeshellarg>
  4077cc:	48 8d 15 90 2f 00 00 	lea    0x2f90(%rip),%rdx        # 40a763 <short_opt+0x363>
  4077d3:	48 8d ac 24 a0 02 00 	lea    0x2a0(%rsp),%rbp
  4077da:	00 
  4077db:	be 00 01 00 00       	mov    $0x100,%esi
  4077e0:	48 89 ef             	mov    %rbp,%rdi
  4077e3:	4c 89 e1             	mov    %r12,%rcx
  4077e6:	49 89 d8             	mov    %rbx,%r8
  4077e9:	4d 89 e9             	mov    %r13,%r9
  4077ec:	31 c0                	xor    %eax,%eax
  4077ee:	e8 9d ab ff ff       	call   402390 <snprintf@plt>
  4077f3:	48 8d 15 e7 2e 00 00 	lea    0x2ee7(%rip),%rdx        # 40a6e1 <short_opt+0x2e1>
  4077fa:	48 8d 9c 24 a0 00 00 	lea    0xa0(%rsp),%rbx
  407801:	00 
  407802:	be 00 02 00 00       	mov    $0x200,%esi
  407807:	48 89 df             	mov    %rbx,%rdi
  40780a:	4c 89 f9             	mov    %r15,%rcx
  40780d:	49 89 e8             	mov    %rbp,%r8
  407810:	31 c0                	xor    %eax,%eax
  407812:	e8 79 ab ff ff       	call   402390 <snprintf@plt>
  407817:	48 8d 3d c9 2e 00 00 	lea    0x2ec9(%rip),%rdi        # 40a6e7 <short_opt+0x2e7>
  40781e:	48 89 de             	mov    %rbx,%rsi
  407821:	31 c0                	xor    %eax,%eax
  407823:	e8 38 0a 00 00       	call   408260 <__pr_notice>
  407828:	48 89 df             	mov    %rbx,%rdi
  40782b:	e8 90 a9 ff ff       	call   4021c0 <system@plt>
  407830:	85 c0                	test   %eax,%eax
  407832:	0f 85 fe 00 00 00    	jne    407936 <teavpn_iface_toggle+0x706>
  407838:	41 80 7e 40 00       	cmpb   $0x0,0x40(%r14)
  40783d:	0f 84 36 01 00 00    	je     407979 <teavpn_iface_toggle+0x749>
  407843:	49 83 c6 40          	add    $0x40,%r14
  407847:	4c 89 f7             	mov    %r14,%rdi
  40784a:	e8 81 a8 ff ff       	call   4020d0 <strlen@plt>
  40784f:	48 8d 9c 24 20 04 00 	lea    0x420(%rsp),%rbx
  407856:	00 
  407857:	48 89 df             	mov    %rbx,%rdi
  40785a:	4c 89 f6             	mov    %r14,%rsi
  40785d:	48 89 c2             	mov    %rax,%rdx
  407860:	31 c9                	xor    %ecx,%ecx
  407862:	e8 89 f3 ff ff       	call   406bf0 <escapeshellarg>
  407867:	48 8d 15 0b 2f 00 00 	lea    0x2f0b(%rip),%rdx        # 40a779 <short_opt+0x379>
  40786e:	48 8d ac 24 a0 02 00 	lea    0x2a0(%rsp),%rbp
  407875:	00 
  407876:	be 00 01 00 00       	mov    $0x100,%esi
  40787b:	48 89 ef             	mov    %rbp,%rdi
  40787e:	4c 89 e1             	mov    %r12,%rcx
  407881:	49 89 d8             	mov    %rbx,%r8
  407884:	31 c0                	xor    %eax,%eax
  407886:	e8 05 ab ff ff       	call   402390 <snprintf@plt>
  40788b:	48 8d 15 4f 2e 00 00 	lea    0x2e4f(%rip),%rdx        # 40a6e1 <short_opt+0x2e1>
  407892:	48 8d 9c 24 a0 00 00 	lea    0xa0(%rsp),%rbx
  407899:	00 
  40789a:	be 00 02 00 00       	mov    $0x200,%esi
  40789f:	48 89 df             	mov    %rbx,%rdi
  4078a2:	4c 89 f9             	mov    %r15,%rcx
  4078a5:	49 89 e8             	mov    %rbp,%r8
  4078a8:	31 c0                	xor    %eax,%eax
  4078aa:	e8 e1 aa ff ff       	call   402390 <snprintf@plt>
  4078af:	48 8d 3d 31 2e 00 00 	lea    0x2e31(%rip),%rdi        # 40a6e7 <short_opt+0x2e7>
  4078b6:	48 89 de             	mov    %rbx,%rsi
  4078b9:	31 c0                	xor    %eax,%eax
  4078bb:	e8 a0 09 00 00       	call   408260 <__pr_notice>
  4078c0:	48 89 df             	mov    %rbx,%rdi
  4078c3:	e8 f8 a8 ff ff       	call   4021c0 <system@plt>
  4078c8:	85 c0                	test   %eax,%eax
  4078ca:	75 6a                	jne    407936 <teavpn_iface_toggle+0x706>
  4078cc:	48 8d 15 c0 2e 00 00 	lea    0x2ec0(%rip),%rdx        # 40a793 <short_opt+0x393>
  4078d3:	48 8d 9c 24 a0 02 00 	lea    0x2a0(%rsp),%rbx
  4078da:	00 
  4078db:	4c 8d 84 24 20 04 00 	lea    0x420(%rsp),%r8
  4078e2:	00 
  4078e3:	be 00 01 00 00       	mov    $0x100,%esi
  4078e8:	48 89 df             	mov    %rbx,%rdi
  4078eb:	4c 89 e1             	mov    %r12,%rcx
  4078ee:	31 c0                	xor    %eax,%eax
  4078f0:	e8 9b aa ff ff       	call   402390 <snprintf@plt>
  4078f5:	48 8d 15 e5 2d 00 00 	lea    0x2de5(%rip),%rdx        # 40a6e1 <short_opt+0x2e1>
  4078fc:	48 8d ac 24 a0 00 00 	lea    0xa0(%rsp),%rbp
  407903:	00 
  407904:	be 00 02 00 00       	mov    $0x200,%esi
  407909:	48 89 ef             	mov    %rbp,%rdi
  40790c:	4c 89 f9             	mov    %r15,%rcx
  40790f:	49 89 d8             	mov    %rbx,%r8
  407912:	31 c0                	xor    %eax,%eax
  407914:	e8 77 aa ff ff       	call   402390 <snprintf@plt>
  407919:	48 8d 3d c7 2d 00 00 	lea    0x2dc7(%rip),%rdi        # 40a6e7 <short_opt+0x2e7>
  407920:	48 89 ee             	mov    %rbp,%rsi
  407923:	31 c0                	xor    %eax,%eax
  407925:	e8 36 09 00 00       	call   408260 <__pr_notice>
  40792a:	48 89 ef             	mov    %rbp,%rdi
  40792d:	e8 8e a8 ff ff       	call   4021c0 <system@plt>
  407932:	85 c0                	test   %eax,%eax
  407934:	74 43                	je     407979 <teavpn_iface_toggle+0x749>
  407936:	c7 44 24 0c 00 00 00 	movl   $0x0,0xc(%rsp)
  40793d:	00 
  40793e:	eb 39                	jmp    407979 <teavpn_iface_toggle+0x749>
  407940:	e8 eb a6 ff ff       	call   402030 <__errno_location@plt>
  407945:	8b 00                	mov    (%rax),%eax
  407947:	85 c0                	test   %eax,%eax
  407949:	bb 16 00 00 00       	mov    $0x16,%ebx
  40794e:	0f 45 d8             	cmovne %eax,%ebx
  407951:	8b 6c 24 10          	mov    0x10(%rsp),%ebp
  407955:	89 df                	mov    %ebx,%edi
  407957:	e8 54 a7 ff ff       	call   4020b0 <strerror@plt>
  40795c:	48 8d 3d 3e 2d 00 00 	lea    0x2d3e(%rip),%rdi        # 40a6a1 <short_opt+0x2a1>
  407963:	c7 44 24 0c 00 00 00 	movl   $0x0,0xc(%rsp)
  40796a:	00 
  40796b:	89 ee                	mov    %ebp,%esi
  40796d:	89 da                	mov    %ebx,%edx
  40796f:	48 89 c1             	mov    %rax,%rcx
  407972:	31 c0                	xor    %eax,%eax
  407974:	e8 37 04 00 00       	call   407db0 <__pr_error>
  407979:	64 48 8b 04 25 28 00 	mov    %fs:0x28,%rax
  407980:	00 00 
  407982:	48 3b 84 24 00 05 00 	cmp    0x500(%rsp),%rax
  407989:	00 
  40798a:	0f 85 d0 00 00 00    	jne    407a60 <teavpn_iface_toggle+0x830>
  407990:	8b 44 24 0c          	mov    0xc(%rsp),%eax
  407994:	48 81 c4 08 05 00 00 	add    $0x508,%rsp
  40799b:	5b                   	pop    %rbx
  40799c:	41 5c                	pop    %r12
  40799e:	41 5d                	pop    %r13
  4079a0:	41 5e                	pop    %r14
  4079a2:	41 5f                	pop    %r15
  4079a4:	5d                   	pop    %rbp
  4079a5:	c3                   	ret    
  4079a6:	e8 85 a6 ff ff       	call   402030 <__errno_location@plt>
  4079ab:	8b 00                	mov    (%rax),%eax
  4079ad:	85 c0                	test   %eax,%eax
  4079af:	bb 16 00 00 00       	mov    $0x16,%ebx
  4079b4:	0f 45 d8             	cmovne %eax,%ebx
  4079b7:	89 df                	mov    %ebx,%edi
  4079b9:	e8 f2 a6 ff ff       	call   4020b0 <strerror@plt>
  4079be:	48 8d 3d 74 2c 00 00 	lea    0x2c74(%rip),%rdi        # 40a639 <short_opt+0x239>
  4079c5:	c7 44 24 0c 00 00 00 	movl   $0x0,0xc(%rsp)
  4079cc:	00 
  4079cd:	48 8d b4 24 c0 04 00 	lea    0x4c0(%rsp),%rsi
  4079d4:	00 
  4079d5:	eb 2f                	jmp    407a06 <teavpn_iface_toggle+0x7d6>
  4079d7:	e8 54 a6 ff ff       	call   402030 <__errno_location@plt>
  4079dc:	8b 00                	mov    (%rax),%eax
  4079de:	85 c0                	test   %eax,%eax
  4079e0:	bb 16 00 00 00       	mov    $0x16,%ebx
  4079e5:	0f 45 d8             	cmovne %eax,%ebx
  4079e8:	89 df                	mov    %ebx,%edi
  4079ea:	e8 c1 a6 ff ff       	call   4020b0 <strerror@plt>
  4079ef:	48 8d 3d 64 2c 00 00 	lea    0x2c64(%rip),%rdi        # 40a65a <short_opt+0x25a>
  4079f6:	c7 44 24 0c 00 00 00 	movl   $0x0,0xc(%rsp)
  4079fd:	00 
  4079fe:	48 8d b4 24 e0 04 00 	lea    0x4e0(%rsp),%rsi
  407a05:	00 
  407a06:	89 da                	mov    %ebx,%edx
  407a08:	48 89 c1             	mov    %rax,%rcx
  407a0b:	31 c0                	xor    %eax,%eax
  407a0d:	e8 9e 03 00 00       	call   407db0 <__pr_error>
  407a12:	e9 62 ff ff ff       	jmp    407979 <teavpn_iface_toggle+0x749>
  407a17:	e8 14 a6 ff ff       	call   402030 <__errno_location@plt>
  407a1c:	8b 00                	mov    (%rax),%eax
  407a1e:	85 c0                	test   %eax,%eax
  407a20:	bb 16 00 00 00       	mov    $0x16,%ebx
  407a25:	0f 45 d8             	cmovne %eax,%ebx
  407a28:	8b 6c 24 14          	mov    0x14(%rsp),%ebp
  407a2c:	89 df                	mov    %ebx,%edi
  407a2e:	e8 7d a6 ff ff       	call   4020b0 <strerror@plt>
  407a33:	48 8d 3d 42 2c 00 00 	lea    0x2c42(%rip),%rdi        # 40a67c <short_opt+0x27c>
  407a3a:	e9 24 ff ff ff       	jmp    407963 <teavpn_iface_toggle+0x733>
  407a3f:	b0 01                	mov    $0x1,%al
  407a41:	89 44 24 0c          	mov    %eax,0xc(%rsp)
  407a45:	e9 2f ff ff ff       	jmp    407979 <teavpn_iface_toggle+0x749>
  407a4a:	48 8d 3d db 2c 00 00 	lea    0x2cdb(%rip),%rdi        # 40a72c <short_opt+0x32c>
  407a51:	4c 89 fe             	mov    %r15,%rsi
  407a54:	31 c0                	xor    %eax,%eax
  407a56:	e8 55 03 00 00       	call   407db0 <__pr_error>
  407a5b:	e9 d6 fe ff ff       	jmp    407936 <teavpn_iface_toggle+0x706>
  407a60:	e8 db a7 ff ff       	call   402240 <__stack_chk_fail@plt>
  407a65:	66 2e 0f 1f 84 00 00 	cs nopw 0x0(%rax,%rax,1)
  407a6c:	00 00 00 
  407a6f:	90                   	nop

0000000000407a70 <teavpn_iface_down>:
  407a70:	31 f6                	xor    %esi,%esi
  407a72:	e9 b9 f7 ff ff       	jmp    407230 <teavpn_iface_toggle>
  407a77:	66 0f 1f 84 00 00 00 	nopw   0x0(%rax,%rax,1)
  407a7e:	00 00 

0000000000407a80 <set_cpu_init>:
  407a80:	55                   	push   %rbp
  407a81:	41 57                	push   %r15
  407a83:	41 56                	push   %r14
  407a85:	41 55                	push   %r13
  407a87:	41 54                	push   %r12
  407a89:	53                   	push   %rbx
  407a8a:	48 81 ec 18 01 00 00 	sub    $0x118,%rsp
  407a91:	64 48 8b 04 25 28 00 	mov    %fs:0x28,%rax
  407a98:	00 00 
  407a9a:	48 89 84 24 10 01 00 	mov    %rax,0x110(%rsp)
  407aa1:	00 
  407aa2:	0f 57 c0             	xorps  %xmm0,%xmm0
  407aa5:	0f 29 84 24 90 00 00 	movaps %xmm0,0x90(%rsp)
  407aac:	00 
  407aad:	0f 29 84 24 a0 00 00 	movaps %xmm0,0xa0(%rsp)
  407ab4:	00 
  407ab5:	0f 29 84 24 b0 00 00 	movaps %xmm0,0xb0(%rsp)
  407abc:	00 
  407abd:	0f 29 84 24 c0 00 00 	movaps %xmm0,0xc0(%rsp)
  407ac4:	00 
  407ac5:	0f 29 84 24 d0 00 00 	movaps %xmm0,0xd0(%rsp)
  407acc:	00 
  407acd:	0f 29 84 24 e0 00 00 	movaps %xmm0,0xe0(%rsp)
  407ad4:	00 
  407ad5:	0f 29 84 24 f0 00 00 	movaps %xmm0,0xf0(%rsp)
  407adc:	00 
  407add:	0f 29 84 24 00 01 00 	movaps %xmm0,0x100(%rsp)
  407ae4:	00 
  407ae5:	48 8d 94 24 90 00 00 	lea    0x90(%rsp),%rdx
  407aec:	00 
  407aed:	be 80 00 00 00       	mov    $0x80,%esi
  407af2:	31 ff                	xor    %edi,%edi
  407af4:	e8 67 a8 ff ff       	call   402360 <sched_getaffinity@plt>
  407af9:	85 c0                	test   %eax,%eax
  407afb:	0f 88 a5 01 00 00    	js     407ca6 <set_cpu_init+0x226>
  407b01:	bf 54 00 00 00       	mov    $0x54,%edi
  407b06:	e8 35 a6 ff ff       	call   402140 <sysconf@plt>
  407b0b:	48 89 44 24 08       	mov    %rax,0x8(%rsp)
  407b10:	0f 57 c0             	xorps  %xmm0,%xmm0
  407b13:	0f 29 44 24 10       	movaps %xmm0,0x10(%rsp)
  407b18:	0f 29 44 24 20       	movaps %xmm0,0x20(%rsp)
  407b1d:	0f 29 44 24 30       	movaps %xmm0,0x30(%rsp)
  407b22:	0f 29 44 24 40       	movaps %xmm0,0x40(%rsp)
  407b27:	0f 29 44 24 50       	movaps %xmm0,0x50(%rsp)
  407b2c:	0f 29 44 24 60       	movaps %xmm0,0x60(%rsp)
  407b31:	0f 29 44 24 70       	movaps %xmm0,0x70(%rsp)
  407b36:	0f 29 84 24 80 00 00 	movaps %xmm0,0x80(%rsp)
  407b3d:	00 
  407b3e:	41 bf ff ff ff ff    	mov    $0xffffffff,%r15d
  407b44:	4c 8d 2d fe 2c 00 00 	lea    0x2cfe(%rip),%r13        # 40a849 <short_opt+0x449>
  407b4b:	31 ed                	xor    %ebp,%ebp
  407b4d:	31 db                	xor    %ebx,%ebx
  407b4f:	90                   	nop
  407b50:	49 89 ee             	mov    %rbp,%r14
  407b53:	49 c1 ee 06          	shr    $0x6,%r14
  407b57:	4a 8b 84 f4 90 00 00 	mov    0x90(%rsp,%r14,8),%rax
  407b5e:	00 
  407b5f:	41 bc 01 00 00 00    	mov    $0x1,%r12d
  407b65:	89 e9                	mov    %ebp,%ecx
  407b67:	49 d3 e4             	shl    %cl,%r12
  407b6a:	48 0f a3 e8          	bt     %rbp,%rax
  407b6e:	73 26                	jae    407b96 <set_cpu_init+0x116>
  407b70:	48 8d 05 31 67 00 00 	lea    0x6731(%rip),%rax        # 40e2a8 <__notice_level>
  407b77:	80 38 05             	cmpb   $0x5,(%rax)
  407b7a:	72 0c                	jb     407b88 <set_cpu_init+0x108>
  407b7c:	4c 89 ef             	mov    %r13,%rdi
  407b7f:	89 ee                	mov    %ebp,%esi
  407b81:	31 c0                	xor    %eax,%eax
  407b83:	e8 d8 06 00 00       	call   408260 <__pr_notice>
  407b88:	83 c3 01             	add    $0x1,%ebx
  407b8b:	41 83 ff ff          	cmp    $0xffffffff,%r15d
  407b8f:	74 0f                	je     407ba0 <set_cpu_init+0x120>
  407b91:	4e 09 64 f4 10       	or     %r12,0x10(%rsp,%r14,8)
  407b96:	48 83 fd 7e          	cmp    $0x7e,%rbp
  407b9a:	76 0d                	jbe    407ba9 <set_cpu_init+0x129>
  407b9c:	eb 14                	jmp    407bb2 <set_cpu_init+0x132>
  407b9e:	66 90                	xchg   %ax,%ax
  407ba0:	41 89 ef             	mov    %ebp,%r15d
  407ba3:	48 83 fd 7e          	cmp    $0x7e,%rbp
  407ba7:	77 09                	ja     407bb2 <set_cpu_init+0x132>
  407ba9:	48 83 c5 01          	add    $0x1,%rbp
  407bad:	83 fb 02             	cmp    $0x2,%ebx
  407bb0:	7c 9e                	jl     407b50 <set_cpu_init+0xd0>
  407bb2:	48 8d 54 24 10       	lea    0x10(%rsp),%rdx
  407bb7:	be 80 00 00 00       	mov    $0x80,%esi
  407bbc:	31 ff                	xor    %edi,%edi
  407bbe:	e8 cd a5 ff ff       	call   402190 <sched_setaffinity@plt>
  407bc3:	85 c0                	test   %eax,%eax
  407bc5:	0f 88 5b 01 00 00    	js     407d26 <set_cpu_init+0x2a6>
  407bcb:	48 8b 6c 24 08       	mov    0x8(%rsp),%rbp
  407bd0:	83 fd 02             	cmp    $0x2,%ebp
  407bd3:	74 4c                	je     407c21 <set_cpu_init+0x1a1>
  407bd5:	83 fb 02             	cmp    $0x2,%ebx
  407bd8:	75 47                	jne    407c21 <set_cpu_init+0x1a1>
  407bda:	48 8d 1d c7 66 00 00 	lea    0x66c7(%rip),%rbx        # 40e2a8 <__notice_level>
  407be1:	80 3b 05             	cmpb   $0x5,(%rbx)
  407be4:	72 3b                	jb     407c21 <set_cpu_init+0x1a1>
  407be6:	48 8d 3d 8e 2c 00 00 	lea    0x2c8e(%rip),%rdi        # 40a87b <short_opt+0x47b>
  407bed:	31 c0                	xor    %eax,%eax
  407bef:	e8 6c 06 00 00       	call   408260 <__pr_notice>
  407bf4:	80 3b 05             	cmpb   $0x5,(%rbx)
  407bf7:	72 28                	jb     407c21 <set_cpu_init+0x1a1>
  407bf9:	48 8d 3d 98 2c 00 00 	lea    0x2c98(%rip),%rdi        # 40a898 <short_opt+0x498>
  407c00:	89 ee                	mov    %ebp,%esi
  407c02:	31 c0                	xor    %eax,%eax
  407c04:	e8 57 06 00 00       	call   408260 <__pr_notice>
  407c09:	80 3b 05             	cmpb   $0x5,(%rbx)
  407c0c:	72 13                	jb     407c21 <set_cpu_init+0x1a1>
  407c0e:	48 8d 3d 9d 2c 00 00 	lea    0x2c9d(%rip),%rdi        # 40a8b2 <short_opt+0x4b2>
  407c15:	be 02 00 00 00       	mov    $0x2,%esi
  407c1a:	31 c0                	xor    %eax,%eax
  407c1c:	e8 3f 06 00 00       	call   408260 <__pr_notice>
  407c21:	e8 0a a4 ff ff       	call   402030 <__errno_location@plt>
  407c26:	48 89 c3             	mov    %rax,%rbx
  407c29:	c7 00 00 00 00 00    	movl   $0x0,(%rax)
  407c2f:	bf ec ff ff ff       	mov    $0xffffffec,%edi
  407c34:	e8 e7 a5 ff ff       	call   402220 <nice@plt>
  407c39:	bf ec ff ff ff       	mov    $0xffffffec,%edi
  407c3e:	e8 dd a5 ff ff       	call   402220 <nice@plt>
  407c43:	8b 1b                	mov    (%rbx),%ebx
  407c45:	85 db                	test   %ebx,%ebx
  407c47:	0f 85 a3 00 00 00    	jne    407cf0 <set_cpu_init+0x270>
  407c4d:	48 8d 1d 54 66 00 00 	lea    0x6654(%rip),%rbx        # 40e2a8 <__notice_level>
  407c54:	80 3b 05             	cmpb   $0x5,(%rbx)
  407c57:	72 21                	jb     407c7a <set_cpu_init+0x1fa>
  407c59:	48 8d 3d c8 2c 00 00 	lea    0x2cc8(%rip),%rdi        # 40a928 <short_opt+0x528>
  407c60:	31 c0                	xor    %eax,%eax
  407c62:	e8 f9 05 00 00       	call   408260 <__pr_notice>
  407c67:	80 3b 05             	cmpb   $0x5,(%rbx)
  407c6a:	72 0e                	jb     407c7a <set_cpu_init+0x1fa>
  407c6c:	48 8d 3d c7 2c 00 00 	lea    0x2cc7(%rip),%rdi        # 40a93a <short_opt+0x53a>
  407c73:	31 c0                	xor    %eax,%eax
  407c75:	e8 e6 05 00 00       	call   408260 <__pr_notice>
  407c7a:	64 48 8b 04 25 28 00 	mov    %fs:0x28,%rax
  407c81:	00 00 
  407c83:	48 3b 84 24 10 01 00 	cmp    0x110(%rsp),%rax
  407c8a:	00 
  407c8b:	0f 85 bb 00 00 00    	jne    407d4c <set_cpu_init+0x2cc>
  407c91:	44 89 f8             	mov    %r15d,%eax
  407c94:	48 81 c4 18 01 00 00 	add    $0x118,%rsp
  407c9b:	5b                   	pop    %rbx
  407c9c:	41 5c                	pop    %r12
  407c9e:	41 5d                	pop    %r13
  407ca0:	41 5e                	pop    %r14
  407ca2:	41 5f                	pop    %r15
  407ca4:	5d                   	pop    %rbp
  407ca5:	c3                   	ret    
  407ca6:	e8 85 a3 ff ff       	call   402030 <__errno_location@plt>
  407cab:	8b 18                	mov    (%rax),%ebx
  407cad:	89 df                	mov    %ebx,%edi
  407caf:	e8 fc a3 ff ff       	call   4020b0 <strerror@plt>
  407cb4:	48 8d 3d 65 2b 00 00 	lea    0x2b65(%rip),%rdi        # 40a820 <short_opt+0x420>
  407cbb:	89 de                	mov    %ebx,%esi
  407cbd:	48 89 c2             	mov    %rax,%rdx
  407cc0:	31 c0                	xor    %eax,%eax
  407cc2:	e8 e9 00 00 00       	call   407db0 <__pr_error>
  407cc7:	48 8d 05 da 65 00 00 	lea    0x65da(%rip),%rax        # 40e2a8 <__notice_level>
  407cce:	41 bf ff ff ff ff    	mov    $0xffffffff,%r15d
  407cd4:	80 38 05             	cmpb   $0x5,(%rax)
  407cd7:	0f 82 44 ff ff ff    	jb     407c21 <set_cpu_init+0x1a1>
  407cdd:	48 8d 3d 57 2b 00 00 	lea    0x2b57(%rip),%rdi        # 40a83b <short_opt+0x43b>
  407ce4:	31 c0                	xor    %eax,%eax
  407ce6:	e8 75 05 00 00       	call   408260 <__pr_notice>
  407ceb:	e9 31 ff ff ff       	jmp    407c21 <set_cpu_init+0x1a1>
  407cf0:	89 df                	mov    %ebx,%edi
  407cf2:	e8 b9 a3 ff ff       	call   4020b0 <strerror@plt>
  407cf7:	48 8d 3d f7 2b 00 00 	lea    0x2bf7(%rip),%rdi        # 40a8f5 <short_opt+0x4f5>
  407cfe:	89 de                	mov    %ebx,%esi
  407d00:	48 89 c2             	mov    %rax,%rdx
  407d03:	31 c0                	xor    %eax,%eax
  407d05:	e8 a6 00 00 00       	call   407db0 <__pr_error>
  407d0a:	48 8d 05 97 65 00 00 	lea    0x6597(%rip),%rax        # 40e2a8 <__notice_level>
  407d11:	80 38 05             	cmpb   $0x5,(%rax)
  407d14:	0f 82 60 ff ff ff    	jb     407c7a <set_cpu_init+0x1fa>
  407d1a:	48 8d 3d e2 2b 00 00 	lea    0x2be2(%rip),%rdi        # 40a903 <short_opt+0x503>
  407d21:	e9 4d ff ff ff       	jmp    407c73 <set_cpu_init+0x1f3>
  407d26:	e8 05 a3 ff ff       	call   402030 <__errno_location@plt>
  407d2b:	8b 18                	mov    (%rax),%ebx
  407d2d:	89 df                	mov    %ebx,%edi
  407d2f:	e8 7c a3 ff ff       	call   4020b0 <strerror@plt>
  407d34:	48 8d 3d 25 2b 00 00 	lea    0x2b25(%rip),%rdi        # 40a860 <short_opt+0x460>
  407d3b:	89 de                	mov    %ebx,%esi
  407d3d:	48 89 c2             	mov    %rax,%rdx
  407d40:	31 c0                	xor    %eax,%eax
  407d42:	e8 69 00 00 00       	call   407db0 <__pr_error>
  407d47:	e9 d5 fe ff ff       	jmp    407c21 <set_cpu_init+0x1a1>
  407d4c:	e8 ef a4 ff ff       	call   402240 <__stack_chk_fail@plt>
  407d51:	66 2e 0f 1f 84 00 00 	cs nopw 0x0(%rax,%rax,1)
  407d58:	00 00 00 
  407d5b:	0f 1f 44 00 00       	nopl   0x0(%rax,%rax,1)

0000000000407d60 <print_license>:
  407d60:	53                   	push   %rbx
  407d61:	31 db                	xor    %ebx,%ebx
  407d63:	66 85 ff             	test   %di,%di
  407d66:	74 0f                	je     407d77 <print_license+0x17>
  407d68:	66 83 ff 01          	cmp    $0x1,%di
  407d6c:	75 12                	jne    407d80 <print_license+0x20>
  407d6e:	48 8d 35 1b 2f 00 00 	lea    0x2f1b(%rip),%rsi        # 40ac90 <license_text_inih>
  407d75:	eb 15                	jmp    407d8c <print_license+0x2c>
  407d77:	48 8d 35 f2 2b 00 00 	lea    0x2bf2(%rip),%rsi        # 40a970 <license_text_teavpn2>
  407d7e:	eb 0c                	jmp    407d8c <print_license+0x2c>
  407d80:	48 8d 35 19 35 00 00 	lea    0x3519(%rip),%rsi        # 40b2a0 <invalid>
  407d87:	bb 01 00 00 00       	mov    $0x1,%ebx
  407d8c:	48 8d 3d 8d 1d 00 00 	lea    0x1d8d(%rip),%rdi        # 409b20 <short_opt+0x1b0>
  407d93:	31 c0                	xor    %eax,%eax
  407d95:	e8 a6 a2 ff ff       	call   402040 <printf@plt>
  407d9a:	89 d8                	mov    %ebx,%eax
  407d9c:	5b                   	pop    %rbx
  407d9d:	c3                   	ret    
  407d9e:	66 90                	xchg   %ax,%ax

0000000000407da0 <teavpn_print_version>:
  407da0:	48 8d 3d 10 35 00 00 	lea    0x3510(%rip),%rdi        # 40b2b7 <invalid+0x17>
  407da7:	e9 c4 a5 ff ff       	jmp    402370 <puts@plt>
  407dac:	0f 1f 40 00          	nopl   0x0(%rax)

0000000000407db0 <__pr_error>:
  407db0:	55                   	push   %rbp
  407db1:	41 57                	push   %r15
  407db3:	41 56                	push   %r14
  407db5:	41 55                	push   %r13
  407db7:	41 54                	push   %r12
  407db9:	53                   	push   %rbx
  407dba:	48 81 ec 08 01 00 00 	sub    $0x108,%rsp
  407dc1:	49 89 ff             	mov    %rdi,%r15
  407dc4:	84 c0                	test   %al,%al
  407dc6:	74 31                	je     407df9 <__pr_error+0x49>
  407dc8:	0f 29 44 24 30       	movaps %xmm0,0x30(%rsp)
  407dcd:	0f 29 4c 24 40       	movaps %xmm1,0x40(%rsp)
  407dd2:	0f 29 54 24 50       	movaps %xmm2,0x50(%rsp)
  407dd7:	0f 29 5c 24 60       	movaps %xmm3,0x60(%rsp)
  407ddc:	0f 29 64 24 70       	movaps %xmm4,0x70(%rsp)
  407de1:	0f 29 ac 24 80 00 00 	movaps %xmm5,0x80(%rsp)
  407de8:	00 
  407de9:	0f 29 b4 24 90 00 00 	movaps %xmm6,0x90(%rsp)
  407df0:	00 
  407df1:	0f 29 bc 24 a0 00 00 	movaps %xmm7,0xa0(%rsp)
  407df8:	00 
  407df9:	48 89 74 24 08       	mov    %rsi,0x8(%rsp)
  407dfe:	48 89 54 24 10       	mov    %rdx,0x10(%rsp)
  407e03:	48 89 4c 24 18       	mov    %rcx,0x18(%rsp)
  407e08:	4c 89 44 24 20       	mov    %r8,0x20(%rsp)
  407e0d:	4c 89 4c 24 28       	mov    %r9,0x28(%rsp)
  407e12:	64 48 8b 04 25 28 00 	mov    %fs:0x28,%rax
  407e19:	00 00 
  407e1b:	48 89 84 24 00 01 00 	mov    %rax,0x100(%rsp)
  407e22:	00 
  407e23:	4c 8d 35 ce 64 00 00 	lea    0x64ce(%rip),%r14        # 40e2f8 <pr_error_mt>
  407e2a:	4c 89 f7             	mov    %r14,%rdi
  407e2d:	e8 0e a5 ff ff       	call   402340 <pthread_mutex_lock@plt>
  407e32:	48 b8 08 00 00 00 30 	movabs $0x3000000008,%rax
  407e39:	00 00 00 
  407e3c:	48 89 84 24 e0 00 00 	mov    %rax,0xe0(%rsp)
  407e43:	00 
  407e44:	48 8d 84 24 40 01 00 	lea    0x140(%rsp),%rax
  407e4b:	00 
  407e4c:	48 89 84 24 e8 00 00 	mov    %rax,0xe8(%rsp)
  407e53:	00 
  407e54:	48 89 e0             	mov    %rsp,%rax
  407e57:	48 89 84 24 f0 00 00 	mov    %rax,0xf0(%rsp)
  407e5e:	00 
  407e5f:	4c 8d 25 32 65 00 00 	lea    0x6532(%rip),%r12        # 40e398 <get_time_mt>
  407e66:	4c 89 e7             	mov    %r12,%rdi
  407e69:	e8 d2 a4 ff ff       	call   402340 <pthread_mutex_lock@plt>
  407e6e:	48 8d 9c 24 b8 00 00 	lea    0xb8(%rsp),%rbx
  407e75:	00 
  407e76:	48 89 df             	mov    %rbx,%rdi
  407e79:	e8 52 a3 ff ff       	call   4021d0 <time@plt>
  407e7e:	48 89 df             	mov    %rbx,%rdi
  407e81:	e8 ea a2 ff ff       	call   402170 <localtime@plt>
  407e86:	48 89 c7             	mov    %rax,%rdi
  407e89:	e8 32 a2 ff ff       	call   4020c0 <asctime@plt>
  407e8e:	49 89 c5             	mov    %rax,%r13
  407e91:	be 20 00 00 00       	mov    $0x20,%esi
  407e96:	48 89 c7             	mov    %rax,%rdi
  407e99:	e8 e2 a4 ff ff       	call   402380 <strnlen@plt>
  407e9e:	48 89 c3             	mov    %rax,%rbx
  407ea1:	48 8d 50 ff          	lea    -0x1(%rax),%rdx
  407ea5:	48 8d ac 24 c0 00 00 	lea    0xc0(%rsp),%rbp
  407eac:	00 
  407ead:	48 89 ef             	mov    %rbp,%rdi
  407eb0:	4c 89 ee             	mov    %r13,%rsi
  407eb3:	e8 e8 a2 ff ff       	call   4021a0 <memcpy@plt>
  407eb8:	c6 84 1c bf 00 00 00 	movb   $0x0,0xbf(%rsp,%rbx,1)
  407ebf:	00 
  407ec0:	4c 89 e7             	mov    %r12,%rdi
  407ec3:	e8 b8 a2 ff ff       	call   402180 <pthread_mutex_unlock@plt>
  407ec8:	48 8d 3d fa 33 00 00 	lea    0x33fa(%rip),%rdi        # 40b2c9 <invalid+0x29>
  407ecf:	48 89 ee             	mov    %rbp,%rsi
  407ed2:	31 c0                	xor    %eax,%eax
  407ed4:	e8 67 a1 ff ff       	call   402040 <printf@plt>
  407ed9:	48 8b 1d f0 60 00 00 	mov    0x60f0(%rip),%rbx        # 40dfd0 <stdout@GLIBC_2.2.5>
  407ee0:	48 8b 3b             	mov    (%rbx),%rdi
  407ee3:	48 8d 94 24 e0 00 00 	lea    0xe0(%rsp),%rdx
  407eea:	00 
  407eeb:	4c 89 fe             	mov    %r15,%rsi
  407eee:	e8 bd a3 ff ff       	call   4022b0 <vfprintf@plt>
  407ef3:	48 8b 33             	mov    (%rbx),%rsi
  407ef6:	bf 0a 00 00 00       	mov    $0xa,%edi
  407efb:	e8 10 a5 ff ff       	call   402410 <putc@plt>
  407f00:	4c 89 f7             	mov    %r14,%rdi
  407f03:	e8 78 a2 ff ff       	call   402180 <pthread_mutex_unlock@plt>
  407f08:	64 48 8b 04 25 28 00 	mov    %fs:0x28,%rax
  407f0f:	00 00 
  407f11:	48 3b 84 24 00 01 00 	cmp    0x100(%rsp),%rax
  407f18:	00 
  407f19:	75 12                	jne    407f2d <__pr_error+0x17d>
  407f1b:	48 81 c4 08 01 00 00 	add    $0x108,%rsp
  407f22:	5b                   	pop    %rbx
  407f23:	41 5c                	pop    %r12
  407f25:	41 5d                	pop    %r13
  407f27:	41 5e                	pop    %r14
  407f29:	41 5f                	pop    %r15
  407f2b:	5d                   	pop    %rbp
  407f2c:	c3                   	ret    
  407f2d:	e8 0e a3 ff ff       	call   402240 <__stack_chk_fail@plt>
  407f32:	66 2e 0f 1f 84 00 00 	cs nopw 0x0(%rax,%rax,1)
  407f39:	00 00 00 
  407f3c:	0f 1f 40 00          	nopl   0x0(%rax)

0000000000407f40 <__pr_emerg>:
  407f40:	55                   	push   %rbp
  407f41:	41 57                	push   %r15
  407f43:	41 56                	push   %r14
  407f45:	41 55                	push   %r13
  407f47:	41 54                	push   %r12
  407f49:	53                   	push   %rbx
  407f4a:	48 81 ec 08 01 00 00 	sub    $0x108,%rsp
  407f51:	49 89 ff             	mov    %rdi,%r15
  407f54:	84 c0                	test   %al,%al
  407f56:	74 31                	je     407f89 <__pr_emerg+0x49>
  407f58:	0f 29 44 24 30       	movaps %xmm0,0x30(%rsp)
  407f5d:	0f 29 4c 24 40       	movaps %xmm1,0x40(%rsp)
  407f62:	0f 29 54 24 50       	movaps %xmm2,0x50(%rsp)
  407f67:	0f 29 5c 24 60       	movaps %xmm3,0x60(%rsp)
  407f6c:	0f 29 64 24 70       	movaps %xmm4,0x70(%rsp)
  407f71:	0f 29 ac 24 80 00 00 	movaps %xmm5,0x80(%rsp)
  407f78:	00 
  407f79:	0f 29 b4 24 90 00 00 	movaps %xmm6,0x90(%rsp)
  407f80:	00 
  407f81:	0f 29 bc 24 a0 00 00 	movaps %xmm7,0xa0(%rsp)
  407f88:	00 
  407f89:	48 89 74 24 08       	mov    %rsi,0x8(%rsp)
  407f8e:	48 89 54 24 10       	mov    %rdx,0x10(%rsp)
  407f93:	48 89 4c 24 18       	mov    %rcx,0x18(%rsp)
  407f98:	4c 89 44 24 20       	mov    %r8,0x20(%rsp)
  407f9d:	4c 89 4c 24 28       	mov    %r9,0x28(%rsp)
  407fa2:	64 48 8b 04 25 28 00 	mov    %fs:0x28,%rax
  407fa9:	00 00 
  407fab:	48 89 84 24 00 01 00 	mov    %rax,0x100(%rsp)
  407fb2:	00 
  407fb3:	4c 8d 35 66 63 00 00 	lea    0x6366(%rip),%r14        # 40e320 <pr_emerg_mt>
  407fba:	4c 89 f7             	mov    %r14,%rdi
  407fbd:	e8 7e a3 ff ff       	call   402340 <pthread_mutex_lock@plt>
  407fc2:	48 b8 08 00 00 00 30 	movabs $0x3000000008,%rax
  407fc9:	00 00 00 
  407fcc:	48 89 84 24 e0 00 00 	mov    %rax,0xe0(%rsp)
  407fd3:	00 
  407fd4:	48 8d 84 24 40 01 00 	lea    0x140(%rsp),%rax
  407fdb:	00 
  407fdc:	48 89 84 24 e8 00 00 	mov    %rax,0xe8(%rsp)
  407fe3:	00 
  407fe4:	48 89 e0             	mov    %rsp,%rax
  407fe7:	48 89 84 24 f0 00 00 	mov    %rax,0xf0(%rsp)
  407fee:	00 
  407fef:	4c 8d 25 a2 63 00 00 	lea    0x63a2(%rip),%r12        # 40e398 <get_time_mt>
  407ff6:	4c 89 e7             	mov    %r12,%rdi
  407ff9:	e8 42 a3 ff ff       	call   402340 <pthread_mutex_lock@plt>
  407ffe:	48 8d 9c 24 b8 00 00 	lea    0xb8(%rsp),%rbx
  408005:	00 
  408006:	48 89 df             	mov    %rbx,%rdi
  408009:	e8 c2 a1 ff ff       	call   4021d0 <time@plt>
  40800e:	48 89 df             	mov    %rbx,%rdi
  408011:	e8 5a a1 ff ff       	call   402170 <localtime@plt>
  408016:	48 89 c7             	mov    %rax,%rdi
  408019:	e8 a2 a0 ff ff       	call   4020c0 <asctime@plt>
  40801e:	49 89 c5             	mov    %rax,%r13
  408021:	be 20 00 00 00       	mov    $0x20,%esi
  408026:	48 89 c7             	mov    %rax,%rdi
  408029:	e8 52 a3 ff ff       	call   402380 <strnlen@plt>
  40802e:	48 89 c3             	mov    %rax,%rbx
  408031:	48 8d 50 ff          	lea    -0x1(%rax),%rdx
  408035:	48 8d ac 24 c0 00 00 	lea    0xc0(%rsp),%rbp
  40803c:	00 
  40803d:	48 89 ef             	mov    %rbp,%rdi
  408040:	4c 89 ee             	mov    %r13,%rsi
  408043:	e8 58 a1 ff ff       	call   4021a0 <memcpy@plt>
  408048:	c6 84 1c bf 00 00 00 	movb   $0x0,0xbf(%rsp,%rbx,1)
  40804f:	00 
  408050:	4c 89 e7             	mov    %r12,%rdi
  408053:	e8 28 a1 ff ff       	call   402180 <pthread_mutex_unlock@plt>
  408058:	48 8d 3d 77 32 00 00 	lea    0x3277(%rip),%rdi        # 40b2d6 <invalid+0x36>
  40805f:	48 89 ee             	mov    %rbp,%rsi
  408062:	31 c0                	xor    %eax,%eax
  408064:	e8 d7 9f ff ff       	call   402040 <printf@plt>
  408069:	48 8b 1d 60 5f 00 00 	mov    0x5f60(%rip),%rbx        # 40dfd0 <stdout@GLIBC_2.2.5>
  408070:	48 8b 3b             	mov    (%rbx),%rdi
  408073:	48 8d 94 24 e0 00 00 	lea    0xe0(%rsp),%rdx
  40807a:	00 
  40807b:	4c 89 fe             	mov    %r15,%rsi
  40807e:	e8 2d a2 ff ff       	call   4022b0 <vfprintf@plt>
  408083:	48 8b 33             	mov    (%rbx),%rsi
  408086:	bf 0a 00 00 00       	mov    $0xa,%edi
  40808b:	e8 80 a3 ff ff       	call   402410 <putc@plt>
  408090:	4c 89 f7             	mov    %r14,%rdi
  408093:	e8 e8 a0 ff ff       	call   402180 <pthread_mutex_unlock@plt>
  408098:	64 48 8b 04 25 28 00 	mov    %fs:0x28,%rax
  40809f:	00 00 
  4080a1:	48 3b 84 24 00 01 00 	cmp    0x100(%rsp),%rax
  4080a8:	00 
  4080a9:	75 12                	jne    4080bd <__pr_emerg+0x17d>
  4080ab:	48 81 c4 08 01 00 00 	add    $0x108,%rsp
  4080b2:	5b                   	pop    %rbx
  4080b3:	41 5c                	pop    %r12
  4080b5:	41 5d                	pop    %r13
  4080b7:	41 5e                	pop    %r14
  4080b9:	41 5f                	pop    %r15
  4080bb:	5d                   	pop    %rbp
  4080bc:	c3                   	ret    
  4080bd:	e8 7e a1 ff ff       	call   402240 <__stack_chk_fail@plt>
  4080c2:	66 2e 0f 1f 84 00 00 	cs nopw 0x0(%rax,%rax,1)
  4080c9:	00 00 00 
  4080cc:	0f 1f 40 00          	nopl   0x0(%rax)

00000000004080d0 <__pr_debug>:
  4080d0:	55                   	push   %rbp
  4080d1:	41 57                	push   %r15
  4080d3:	41 56                	push   %r14
  4080d5:	41 55                	push   %r13
  4080d7:	41 54                	push   %r12
  4080d9:	53                   	push   %rbx
  4080da:	48 81 ec 08 01 00 00 	sub    $0x108,%rsp
  4080e1:	49 89 ff             	mov    %rdi,%r15
  4080e4:	84 c0                	test   %al,%al
  4080e6:	74 31                	je     408119 <__pr_debug+0x49>
  4080e8:	0f 29 44 24 30       	movaps %xmm0,0x30(%rsp)
  4080ed:	0f 29 4c 24 40       	movaps %xmm1,0x40(%rsp)
  4080f2:	0f 29 54 24 50       	movaps %xmm2,0x50(%rsp)
  4080f7:	0f 29 5c 24 60       	movaps %xmm3,0x60(%rsp)
  4080fc:	0f 29 64 24 70       	movaps %xmm4,0x70(%rsp)
  408101:	0f 29 ac 24 80 00 00 	movaps %xmm5,0x80(%rsp)
  408108:	00 
  408109:	0f 29 b4 24 90 00 00 	movaps %xmm6,0x90(%rsp)
  408110:	00 
  408111:	0f 29 bc 24 a0 00 00 	movaps %xmm7,0xa0(%rsp)
  408118:	00 
  408119:	48 89 74 24 08       	mov    %rsi,0x8(%rsp)
  40811e:	48 89 54 24 10       	mov    %rdx,0x10(%rsp)
  408123:	48 89 4c 24 18       	mov    %rcx,0x18(%rsp)
  408128:	4c 89 44 24 20       	mov    %r8,0x20(%rsp)
  40812d:	4c 89 4c 24 28       	mov    %r9,0x28(%rsp)
  408132:	64 48 8b 04 25 28 00 	mov    %fs:0x28,%rax
  408139:	00 00 
  40813b:	48 89 84 24 00 01 00 	mov    %rax,0x100(%rsp)
  408142:	00 
  408143:	4c 8d 35 fe 61 00 00 	lea    0x61fe(%rip),%r14        # 40e348 <pr_debug_mt>
  40814a:	4c 89 f7             	mov    %r14,%rdi
  40814d:	e8 ee a1 ff ff       	call   402340 <pthread_mutex_lock@plt>
  408152:	48 b8 08 00 00 00 30 	movabs $0x3000000008,%rax
  408159:	00 00 00 
  40815c:	48 89 84 24 e0 00 00 	mov    %rax,0xe0(%rsp)
  408163:	00 
  408164:	48 8d 84 24 40 01 00 	lea    0x140(%rsp),%rax
  40816b:	00 
  40816c:	48 89 84 24 e8 00 00 	mov    %rax,0xe8(%rsp)
  408173:	00 
  408174:	48 89 e0             	mov    %rsp,%rax
  408177:	48 89 84 24 f0 00 00 	mov    %rax,0xf0(%rsp)
  40817e:	00 
  40817f:	4c 8d 25 12 62 00 00 	lea    0x6212(%rip),%r12        # 40e398 <get_time_mt>
  408186:	4c 89 e7             	mov    %r12,%rdi
  408189:	e8 b2 a1 ff ff       	call   402340 <pthread_mutex_lock@plt>
  40818e:	48 8d 9c 24 b8 00 00 	lea    0xb8(%rsp),%rbx
  408195:	00 
  408196:	48 89 df             	mov    %rbx,%rdi
  408199:	e8 32 a0 ff ff       	call   4021d0 <time@plt>
  40819e:	48 89 df             	mov    %rbx,%rdi
  4081a1:	e8 ca 9f ff ff       	call   402170 <localtime@plt>
  4081a6:	48 89 c7             	mov    %rax,%rdi
  4081a9:	e8 12 9f ff ff       	call   4020c0 <asctime@plt>
  4081ae:	49 89 c5             	mov    %rax,%r13
  4081b1:	be 20 00 00 00       	mov    $0x20,%esi
  4081b6:	48 89 c7             	mov    %rax,%rdi
  4081b9:	e8 c2 a1 ff ff       	call   402380 <strnlen@plt>
  4081be:	48 89 c3             	mov    %rax,%rbx
  4081c1:	48 8d 50 ff          	lea    -0x1(%rax),%rdx
  4081c5:	48 8d ac 24 c0 00 00 	lea    0xc0(%rsp),%rbp
  4081cc:	00 
  4081cd:	48 89 ef             	mov    %rbp,%rdi
  4081d0:	4c 89 ee             	mov    %r13,%rsi
  4081d3:	e8 c8 9f ff ff       	call   4021a0 <memcpy@plt>
  4081d8:	c6 84 1c bf 00 00 00 	movb   $0x0,0xbf(%rsp,%rbx,1)
  4081df:	00 
  4081e0:	4c 89 e7             	mov    %r12,%rdi
  4081e3:	e8 98 9f ff ff       	call   402180 <pthread_mutex_unlock@plt>
  4081e8:	48 8d 3d f8 30 00 00 	lea    0x30f8(%rip),%rdi        # 40b2e7 <invalid+0x47>
  4081ef:	48 89 ee             	mov    %rbp,%rsi
  4081f2:	31 c0                	xor    %eax,%eax
  4081f4:	e8 47 9e ff ff       	call   402040 <printf@plt>
  4081f9:	48 8b 1d d0 5d 00 00 	mov    0x5dd0(%rip),%rbx        # 40dfd0 <stdout@GLIBC_2.2.5>
  408200:	48 8b 3b             	mov    (%rbx),%rdi
  408203:	48 8d 94 24 e0 00 00 	lea    0xe0(%rsp),%rdx
  40820a:	00 
  40820b:	4c 89 fe             	mov    %r15,%rsi
  40820e:	e8 9d a0 ff ff       	call   4022b0 <vfprintf@plt>
  408213:	48 8b 33             	mov    (%rbx),%rsi
  408216:	bf 0a 00 00 00       	mov    $0xa,%edi
  40821b:	e8 f0 a1 ff ff       	call   402410 <putc@plt>
  408220:	4c 89 f7             	mov    %r14,%rdi
  408223:	e8 58 9f ff ff       	call   402180 <pthread_mutex_unlock@plt>
  408228:	64 48 8b 04 25 28 00 	mov    %fs:0x28,%rax
  40822f:	00 00 
  408231:	48 3b 84 24 00 01 00 	cmp    0x100(%rsp),%rax
  408238:	00 
  408239:	75 12                	jne    40824d <__pr_debug+0x17d>
  40823b:	48 81 c4 08 01 00 00 	add    $0x108,%rsp
  408242:	5b                   	pop    %rbx
  408243:	41 5c                	pop    %r12
  408245:	41 5d                	pop    %r13
  408247:	41 5e                	pop    %r14
  408249:	41 5f                	pop    %r15
  40824b:	5d                   	pop    %rbp
  40824c:	c3                   	ret    
  40824d:	e8 ee 9f ff ff       	call   402240 <__stack_chk_fail@plt>
  408252:	66 2e 0f 1f 84 00 00 	cs nopw 0x0(%rax,%rax,1)
  408259:	00 00 00 
  40825c:	0f 1f 40 00          	nopl   0x0(%rax)

0000000000408260 <__pr_notice>:
  408260:	55                   	push   %rbp
  408261:	41 57                	push   %r15
  408263:	41 56                	push   %r14
  408265:	41 55                	push   %r13
  408267:	41 54                	push   %r12
  408269:	53                   	push   %rbx
  40826a:	48 81 ec 08 01 00 00 	sub    $0x108,%rsp
  408271:	49 89 ff             	mov    %rdi,%r15
  408274:	84 c0                	test   %al,%al
  408276:	74 31                	je     4082a9 <__pr_notice+0x49>
  408278:	0f 29 44 24 30       	movaps %xmm0,0x30(%rsp)
  40827d:	0f 29 4c 24 40       	movaps %xmm1,0x40(%rsp)
  408282:	0f 29 54 24 50       	movaps %xmm2,0x50(%rsp)
  408287:	0f 29 5c 24 60       	movaps %xmm3,0x60(%rsp)
  40828c:	0f 29 64 24 70       	movaps %xmm4,0x70(%rsp)
  408291:	0f 29 ac 24 80 00 00 	movaps %xmm5,0x80(%rsp)
  408298:	00 
  408299:	0f 29 b4 24 90 00 00 	movaps %xmm6,0x90(%rsp)
  4082a0:	00 
  4082a1:	0f 29 bc 24 a0 00 00 	movaps %xmm7,0xa0(%rsp)
  4082a8:	00 
  4082a9:	48 89 74 24 08       	mov    %rsi,0x8(%rsp)
  4082ae:	48 89 54 24 10       	mov    %rdx,0x10(%rsp)
  4082b3:	48 89 4c 24 18       	mov    %rcx,0x18(%rsp)
  4082b8:	4c 89 44 24 20       	mov    %r8,0x20(%rsp)
  4082bd:	4c 89 4c 24 28       	mov    %r9,0x28(%rsp)
  4082c2:	64 48 8b 04 25 28 00 	mov    %fs:0x28,%rax
  4082c9:	00 00 
  4082cb:	48 89 84 24 00 01 00 	mov    %rax,0x100(%rsp)
  4082d2:	00 
  4082d3:	4c 8d 35 96 60 00 00 	lea    0x6096(%rip),%r14        # 40e370 <pr_notice_mt>
  4082da:	4c 89 f7             	mov    %r14,%rdi
  4082dd:	e8 5e a0 ff ff       	call   402340 <pthread_mutex_lock@plt>
  4082e2:	48 b8 08 00 00 00 30 	movabs $0x3000000008,%rax
  4082e9:	00 00 00 
  4082ec:	48 89 84 24 e0 00 00 	mov    %rax,0xe0(%rsp)
  4082f3:	00 
  4082f4:	48 8d 84 24 40 01 00 	lea    0x140(%rsp),%rax
  4082fb:	00 
  4082fc:	48 89 84 24 e8 00 00 	mov    %rax,0xe8(%rsp)
  408303:	00 
  408304:	48 89 e0             	mov    %rsp,%rax
  408307:	48 89 84 24 f0 00 00 	mov    %rax,0xf0(%rsp)
  40830e:	00 
  40830f:	4c 8d 25 82 60 00 00 	lea    0x6082(%rip),%r12        # 40e398 <get_time_mt>
  408316:	4c 89 e7             	mov    %r12,%rdi
  408319:	e8 22 a0 ff ff       	call   402340 <pthread_mutex_lock@plt>
  40831e:	48 8d 9c 24 b8 00 00 	lea    0xb8(%rsp),%rbx
  408325:	00 
  408326:	48 89 df             	mov    %rbx,%rdi
  408329:	e8 a2 9e ff ff       	call   4021d0 <time@plt>
  40832e:	48 89 df             	mov    %rbx,%rdi
  408331:	e8 3a 9e ff ff       	call   402170 <localtime@plt>
  408336:	48 89 c7             	mov    %rax,%rdi
  408339:	e8 82 9d ff ff       	call   4020c0 <asctime@plt>
  40833e:	49 89 c5             	mov    %rax,%r13
  408341:	be 20 00 00 00       	mov    $0x20,%esi
  408346:	48 89 c7             	mov    %rax,%rdi
  408349:	e8 32 a0 ff ff       	call   402380 <strnlen@plt>
  40834e:	48 89 c3             	mov    %rax,%rbx
  408351:	48 8d 50 ff          	lea    -0x1(%rax),%rdx
  408355:	48 8d ac 24 c0 00 00 	lea    0xc0(%rsp),%rbp
  40835c:	00 
  40835d:	48 89 ef             	mov    %rbp,%rdi
  408360:	4c 89 ee             	mov    %r13,%rsi
  408363:	e8 38 9e ff ff       	call   4021a0 <memcpy@plt>
  408368:	c6 84 1c bf 00 00 00 	movb   $0x0,0xbf(%rsp,%rbx,1)
  40836f:	00 
  408370:	4c 89 e7             	mov    %r12,%rdi
  408373:	e8 08 9e ff ff       	call   402180 <pthread_mutex_unlock@plt>
  408378:	48 8d 3d 75 2f 00 00 	lea    0x2f75(%rip),%rdi        # 40b2f4 <invalid+0x54>
  40837f:	48 89 ee             	mov    %rbp,%rsi
  408382:	31 c0                	xor    %eax,%eax
  408384:	e8 b7 9c ff ff       	call   402040 <printf@plt>
  408389:	48 8b 1d 40 5c 00 00 	mov    0x5c40(%rip),%rbx        # 40dfd0 <stdout@GLIBC_2.2.5>
  408390:	48 8b 3b             	mov    (%rbx),%rdi
  408393:	48 8d 94 24 e0 00 00 	lea    0xe0(%rsp),%rdx
  40839a:	00 
  40839b:	4c 89 fe             	mov    %r15,%rsi
  40839e:	e8 0d 9f ff ff       	call   4022b0 <vfprintf@plt>
  4083a3:	48 8b 33             	mov    (%rbx),%rsi
  4083a6:	bf 0a 00 00 00       	mov    $0xa,%edi
  4083ab:	e8 60 a0 ff ff       	call   402410 <putc@plt>
  4083b0:	4c 89 f7             	mov    %r14,%rdi
  4083b3:	e8 c8 9d ff ff       	call   402180 <pthread_mutex_unlock@plt>
  4083b8:	64 48 8b 04 25 28 00 	mov    %fs:0x28,%rax
  4083bf:	00 00 
  4083c1:	48 3b 84 24 00 01 00 	cmp    0x100(%rsp),%rax
  4083c8:	00 
  4083c9:	75 12                	jne    4083dd <__pr_notice+0x17d>
  4083cb:	48 81 c4 08 01 00 00 	add    $0x108,%rsp
  4083d2:	5b                   	pop    %rbx
  4083d3:	41 5c                	pop    %r12
  4083d5:	41 5d                	pop    %r13
  4083d7:	41 5e                	pop    %r14
  4083d9:	41 5f                	pop    %r15
  4083db:	5d                   	pop    %rbp
  4083dc:	c3                   	ret    
  4083dd:	e8 5e 9e ff ff       	call   402240 <__stack_chk_fail@plt>
  4083e2:	66 2e 0f 1f 84 00 00 	cs nopw 0x0(%rax,%rax,1)
  4083e9:	00 00 00 
  4083ec:	0f 1f 40 00          	nopl   0x0(%rax)

00000000004083f0 <main>:
  4083f0:	55                   	push   %rbp
  4083f1:	41 56                	push   %r14
  4083f3:	53                   	push   %rbx
  4083f4:	48 81 ec 10 10 00 00 	sub    $0x1010,%rsp
  4083fb:	49 89 f6             	mov    %rsi,%r14
  4083fe:	64 48 8b 04 25 28 00 	mov    %fs:0x28,%rax
  408405:	00 00 
  408407:	48 89 84 24 08 10 00 	mov    %rax,0x1008(%rsp)
  40840e:	00 
  40840f:	83 ff 01             	cmp    $0x1,%edi
  408412:	0f 8f ce 00 00 00    	jg     4084e6 <main+0xf6>
  408418:	49 8b 1e             	mov    (%r14),%rbx
  40841b:	48 8d 3d 0b 2f 00 00 	lea    0x2f0b(%rip),%rdi        # 40b32d <invalid+0x8d>
  408422:	48 89 de             	mov    %rbx,%rsi
  408425:	31 c0                	xor    %eax,%eax
  408427:	e8 14 9c ff ff       	call   402040 <printf@plt>
  40842c:	48 8d 3d a0 2f 00 00 	lea    0x2fa0(%rip),%rdi        # 40b3d3 <invalid+0x133>
  408433:	e8 38 9f ff ff       	call   402370 <puts@plt>
  408438:	48 8d 3d 99 2f 00 00 	lea    0x2f99(%rip),%rdi        # 40b3d8 <invalid+0x138>
  40843f:	e8 2c 9f ff ff       	call   402370 <puts@plt>
  408444:	48 8d 3d 08 2f 00 00 	lea    0x2f08(%rip),%rdi        # 40b353 <invalid+0xb3>
  40844b:	48 89 de             	mov    %rbx,%rsi
  40844e:	31 c0                	xor    %eax,%eax
  408450:	e8 eb 9b ff ff       	call   402040 <printf@plt>
  408455:	48 8d 3d 0c 2f 00 00 	lea    0x2f0c(%rip),%rdi        # 40b368 <invalid+0xc8>
  40845c:	48 89 de             	mov    %rbx,%rsi
  40845f:	31 c0                	xor    %eax,%eax
  408461:	e8 da 9b ff ff       	call   402040 <printf@plt>
  408466:	bf 0a 00 00 00       	mov    $0xa,%edi
  40846b:	e8 60 9e ff ff       	call   4022d0 <putchar@plt>
  408470:	48 8d 3d 69 2f 00 00 	lea    0x2f69(%rip),%rdi        # 40b3e0 <invalid+0x140>
  408477:	e8 f4 9e ff ff       	call   402370 <puts@plt>
  40847c:	48 8d 3d fa 2e 00 00 	lea    0x2efa(%rip),%rdi        # 40b37d <invalid+0xdd>
  408483:	48 89 de             	mov    %rbx,%rsi
  408486:	31 c0                	xor    %eax,%eax
  408488:	e8 b3 9b ff ff       	call   402040 <printf@plt>
  40848d:	bf 0a 00 00 00       	mov    $0xa,%edi
  408492:	e8 39 9e ff ff       	call   4022d0 <putchar@plt>
  408497:	48 8d 3d 4d 2f 00 00 	lea    0x2f4d(%rip),%rdi        # 40b3eb <invalid+0x14b>
  40849e:	e8 cd 9e ff ff       	call   402370 <puts@plt>
  4084a3:	48 8d 3d e4 2e 00 00 	lea    0x2ee4(%rip),%rdi        # 40b38e <invalid+0xee>
  4084aa:	48 89 de             	mov    %rbx,%rsi
  4084ad:	31 c0                	xor    %eax,%eax
  4084af:	e8 8c 9b ff ff       	call   402040 <printf@plt>
  4084b4:	48 8d 3d f7 2e 00 00 	lea    0x2ef7(%rip),%rdi        # 40b3b2 <invalid+0x112>
  4084bb:	48 89 de             	mov    %rbx,%rsi
  4084be:	31 c0                	xor    %eax,%eax
  4084c0:	e8 7b 9b ff ff       	call   402040 <printf@plt>
  4084c5:	b8 01 00 00 00       	mov    $0x1,%eax
  4084ca:	64 48 8b 0c 25 28 00 	mov    %fs:0x28,%rcx
  4084d1:	00 00 
  4084d3:	48 3b 8c 24 08 10 00 	cmp    0x1008(%rsp),%rcx
  4084da:	00 
  4084db:	0f 84 17 01 00 00    	je     4085f8 <main+0x208>
  4084e1:	e9 38 01 00 00       	jmp    40861e <main+0x22e>
  4084e6:	89 fd                	mov    %edi,%ebp
  4084e8:	48 89 e3             	mov    %rsp,%rbx
  4084eb:	ba 00 10 00 00       	mov    $0x1000,%edx
  4084f0:	48 89 df             	mov    %rbx,%rdi
  4084f3:	31 f6                	xor    %esi,%esi
  4084f5:	e8 26 9c ff ff       	call   402120 <memset@plt>
  4084fa:	be 00 10 00 00       	mov    $0x1000,%esi
  4084ff:	48 89 df             	mov    %rbx,%rdi
  408502:	e8 29 e5 ff ff       	call   406a30 <ar_init>
  408507:	49 8b 5e 08          	mov    0x8(%r14),%rbx
  40850b:	48 8d 35 e8 2d 00 00 	lea    0x2de8(%rip),%rsi        # 40b2fa <invalid+0x5a>
  408512:	ba 06 00 00 00       	mov    $0x6,%edx
  408517:	48 89 df             	mov    %rbx,%rdi
  40851a:	e8 c1 9b ff ff       	call   4020e0 <strncmp@plt>
  40851f:	85 c0                	test   %eax,%eax
  408521:	0f 84 95 00 00 00    	je     4085bc <main+0x1cc>
  408527:	48 8d 35 79 1d 00 00 	lea    0x1d79(%rip),%rsi        # 40a2a7 <short_opt+0x937>
  40852e:	ba 06 00 00 00       	mov    $0x6,%edx
  408533:	48 89 df             	mov    %rbx,%rdi
  408536:	e8 a5 9b ff ff       	call   4020e0 <strncmp@plt>
  40853b:	85 c0                	test   %eax,%eax
  40853d:	0f 84 98 00 00 00    	je     4085db <main+0x1eb>
  408543:	be 09 00 00 00       	mov    $0x9,%esi
  408548:	48 89 df             	mov    %rbx,%rdi
  40854b:	e8 30 9e ff ff       	call   402380 <strnlen@plt>
  408550:	48 8d 35 aa 2d 00 00 	lea    0x2daa(%rip),%rsi        # 40b301 <invalid+0x61>
  408557:	48 89 df             	mov    %rbx,%rdi
  40855a:	48 89 c2             	mov    %rax,%rdx
  40855d:	e8 7e 9b ff ff       	call   4020e0 <strncmp@plt>
  408562:	85 c0                	test   %eax,%eax
  408564:	0f 84 9a 00 00 00    	je     408604 <main+0x214>
  40856a:	48 8d 35 9a 2d 00 00 	lea    0x2d9a(%rip),%rsi        # 40b30b <invalid+0x6b>
  408571:	ba 09 00 00 00       	mov    $0x9,%edx
  408576:	48 89 df             	mov    %rbx,%rdi
  408579:	e8 62 9b ff ff       	call   4020e0 <strncmp@plt>
  40857e:	83 fd 03             	cmp    $0x3,%ebp
  408581:	0f 85 9c 00 00 00    	jne    408623 <main+0x233>
  408587:	85 c0                	test   %eax,%eax
  408589:	0f 85 94 00 00 00    	jne    408623 <main+0x233>
  40858f:	49 8b 7e 10          	mov    0x10(%r14),%rdi
  408593:	31 f6                	xor    %esi,%esi
  408595:	ba 0a 00 00 00       	mov    $0xa,%edx
  40859a:	e8 51 9d ff ff       	call   4022f0 <strtol@plt>
  40859f:	0f b7 f8             	movzwl %ax,%edi
  4085a2:	e8 b9 f7 ff ff       	call   407d60 <print_license>
  4085a7:	64 48 8b 0c 25 28 00 	mov    %fs:0x28,%rcx
  4085ae:	00 00 
  4085b0:	48 3b 8c 24 08 10 00 	cmp    0x1008(%rsp),%rcx
  4085b7:	00 
  4085b8:	74 3e                	je     4085f8 <main+0x208>
  4085ba:	eb 62                	jmp    40861e <main+0x22e>
  4085bc:	89 ef                	mov    %ebp,%edi
  4085be:	4c 89 f6             	mov    %r14,%rsi
  4085c1:	e8 2a e2 ff ff       	call   4067f0 <teavpn_client_entry>
  4085c6:	64 48 8b 0c 25 28 00 	mov    %fs:0x28,%rcx
  4085cd:	00 00 
  4085cf:	48 3b 8c 24 08 10 00 	cmp    0x1008(%rsp),%rcx
  4085d6:	00 
  4085d7:	74 1f                	je     4085f8 <main+0x208>
  4085d9:	eb 43                	jmp    40861e <main+0x22e>
  4085db:	89 ef                	mov    %ebp,%edi
  4085dd:	4c 89 f6             	mov    %r14,%rsi
  4085e0:	e8 fb cb ff ff       	call   4051e0 <teavpn_server_entry>
  4085e5:	64 48 8b 0c 25 28 00 	mov    %fs:0x28,%rcx
  4085ec:	00 00 
  4085ee:	48 3b 8c 24 08 10 00 	cmp    0x1008(%rsp),%rcx
  4085f5:	00 
  4085f6:	75 26                	jne    40861e <main+0x22e>
  4085f8:	48 81 c4 10 10 00 00 	add    $0x1010,%rsp
  4085ff:	5b                   	pop    %rbx
  408600:	41 5e                	pop    %r14
  408602:	5d                   	pop    %rbp
  408603:	c3                   	ret    
  408604:	e8 97 f7 ff ff       	call   407da0 <teavpn_print_version>
  408609:	31 c0                	xor    %eax,%eax
  40860b:	64 48 8b 0c 25 28 00 	mov    %fs:0x28,%rcx
  408612:	00 00 
  408614:	48 3b 8c 24 08 10 00 	cmp    0x1008(%rsp),%rcx
  40861b:	00 
  40861c:	74 da                	je     4085f8 <main+0x208>
  40861e:	e8 1d 9c ff ff       	call   402240 <__stack_chk_fail@plt>
  408623:	48 8d 3d eb 2c 00 00 	lea    0x2ceb(%rip),%rdi        # 40b315 <invalid+0x75>
  40862a:	48 89 de             	mov    %rbx,%rsi
  40862d:	31 c0                	xor    %eax,%eax
  40862f:	e8 0c 9a ff ff       	call   402040 <printf@plt>
  408634:	e9 df fd ff ff       	jmp    408418 <main+0x28>
  408639:	0f 1f 80 00 00 00 00 	nopl   0x0(%rax)

0000000000408640 <__libc_csu_init>:
  408640:	f3 0f 1e fa          	endbr64 
  408644:	41 57                	push   %r15
  408646:	4c 8d 3d 33 54 00 00 	lea    0x5433(%rip),%r15        # 40da80 <__frame_dummy_init_array_entry>
  40864d:	41 56                	push   %r14
  40864f:	49 89 d6             	mov    %rdx,%r14
  408652:	41 55                	push   %r13
  408654:	49 89 f5             	mov    %rsi,%r13
  408657:	41 54                	push   %r12
  408659:	41 89 fc             	mov    %edi,%r12d
  40865c:	55                   	push   %rbp
  40865d:	48 8d 2d 24 54 00 00 	lea    0x5424(%rip),%rbp        # 40da88 <__do_global_dtors_aux_fini_array_entry>
  408664:	53                   	push   %rbx
  408665:	4c 29 fd             	sub    %r15,%rbp
  408668:	48 83 ec 08          	sub    $0x8,%rsp
  40866c:	e8 8f 99 ff ff       	call   402000 <_init>
  408671:	48 c1 fd 03          	sar    $0x3,%rbp
  408675:	74 1f                	je     408696 <__libc_csu_init+0x56>
  408677:	31 db                	xor    %ebx,%ebx
  408679:	0f 1f 80 00 00 00 00 	nopl   0x0(%rax)
  408680:	4c 89 f2             	mov    %r14,%rdx
  408683:	4c 89 ee             	mov    %r13,%rsi
  408686:	44 89 e7             	mov    %r12d,%edi
  408689:	41 ff 14 df          	call   *(%r15,%rbx,8)
  40868d:	48 83 c3 01          	add    $0x1,%rbx
  408691:	48 39 dd             	cmp    %rbx,%rbp
  408694:	75 ea                	jne    408680 <__libc_csu_init+0x40>
  408696:	48 83 c4 08          	add    $0x8,%rsp
  40869a:	5b                   	pop    %rbx
  40869b:	5d                   	pop    %rbp
  40869c:	41 5c                	pop    %r12
  40869e:	41 5d                	pop    %r13
  4086a0:	41 5e                	pop    %r14
  4086a2:	41 5f                	pop    %r15
  4086a4:	c3                   	ret    
  4086a5:	66 66 2e 0f 1f 84 00 	data16 cs nopw 0x0(%rax,%rax,1)
  4086ac:	00 00 00 00 

00000000004086b0 <__libc_csu_fini>:
  4086b0:	f3 0f 1e fa          	endbr64 
  4086b4:	c3                   	ret    

Disassembly of section .fini:

00000000004086b8 <_fini>:
  4086b8:	f3 0f 1e fa          	endbr64 
  4086bc:	48 83 ec 08          	sub    $0x8,%rsp
  4086c0:	48 83 c4 08          	add    $0x8,%rsp
  4086c4:	c3                   	ret    
