
teavpn2:     file format elf64-x86-64


Disassembly of section .init:

0000000000402000 <_init>:
  402000:	f3 0f 1e fa          	endbr64 
  402004:	48 83 ec 08          	sub    $0x8,%rsp
  402008:	48 8b 05 e1 bf 00 00 	mov    0xbfe1(%rip),%rax        # 40dff0 <__gmon_start__>
  40200f:	48 85 c0             	test   %rax,%rax
  402012:	74 02                	je     402016 <_init+0x16>
  402014:	ff d0                	call   *%rax
  402016:	48 83 c4 08          	add    $0x8,%rsp
  40201a:	c3                   	ret    

Disassembly of section .plt:

0000000000402020 <.plt>:
  402020:	ff 35 e2 bf 00 00    	push   0xbfe2(%rip)        # 40e008 <_GLOBAL_OFFSET_TABLE_+0x8>
  402026:	ff 25 e4 bf 00 00    	jmp    *0xbfe4(%rip)        # 40e010 <_GLOBAL_OFFSET_TABLE_+0x10>
  40202c:	0f 1f 40 00          	nopl   0x0(%rax)

0000000000402030 <__errno_location@plt>:
  402030:	ff 25 e2 bf 00 00    	jmp    *0xbfe2(%rip)        # 40e018 <__errno_location@GLIBC_2.2.5>
  402036:	68 00 00 00 00       	push   $0x0
  40203b:	e9 e0 ff ff ff       	jmp    402020 <.plt>

0000000000402040 <printf@plt>:
  402040:	ff 25 da bf 00 00    	jmp    *0xbfda(%rip)        # 40e020 <printf@GLIBC_2.2.5>
  402046:	68 01 00 00 00       	push   $0x1
  40204b:	e9 d0 ff ff ff       	jmp    402020 <.plt>

0000000000402050 <bind@plt>:
  402050:	ff 25 d2 bf 00 00    	jmp    *0xbfd2(%rip)        # 40e028 <bind@GLIBC_2.2.5>
  402056:	68 02 00 00 00       	push   $0x2
  40205b:	e9 c0 ff ff ff       	jmp    402020 <.plt>

0000000000402060 <strstr@plt>:
  402060:	ff 25 ca bf 00 00    	jmp    *0xbfca(%rip)        # 40e030 <strstr@GLIBC_2.2.5>
  402066:	68 03 00 00 00       	push   $0x3
  40206b:	e9 b0 ff ff ff       	jmp    402020 <.plt>

0000000000402070 <socket@plt>:
  402070:	ff 25 c2 bf 00 00    	jmp    *0xbfc2(%rip)        # 40e038 <socket@GLIBC_2.2.5>
  402076:	68 04 00 00 00       	push   $0x4
  40207b:	e9 a0 ff ff ff       	jmp    402020 <.plt>

0000000000402080 <popen@plt>:
  402080:	ff 25 ba bf 00 00    	jmp    *0xbfba(%rip)        # 40e040 <popen@GLIBC_2.2.5>
  402086:	68 05 00 00 00       	push   $0x5
  40208b:	e9 90 ff ff ff       	jmp    402020 <.plt>

0000000000402090 <accept@plt>:
  402090:	ff 25 b2 bf 00 00    	jmp    *0xbfb2(%rip)        # 40e048 <accept@GLIBC_2.2.5>
  402096:	68 06 00 00 00       	push   $0x6
  40209b:	e9 80 ff ff ff       	jmp    402020 <.plt>

00000000004020a0 <recv@plt>:
  4020a0:	ff 25 aa bf 00 00    	jmp    *0xbfaa(%rip)        # 40e050 <recv@GLIBC_2.2.5>
  4020a6:	68 07 00 00 00       	push   $0x7
  4020ab:	e9 70 ff ff ff       	jmp    402020 <.plt>

00000000004020b0 <strerror@plt>:
  4020b0:	ff 25 a2 bf 00 00    	jmp    *0xbfa2(%rip)        # 40e058 <strerror@GLIBC_2.2.5>
  4020b6:	68 08 00 00 00       	push   $0x8
  4020bb:	e9 60 ff ff ff       	jmp    402020 <.plt>

00000000004020c0 <asctime@plt>:
  4020c0:	ff 25 9a bf 00 00    	jmp    *0xbf9a(%rip)        # 40e060 <asctime@GLIBC_2.2.5>
  4020c6:	68 09 00 00 00       	push   $0x9
  4020cb:	e9 50 ff ff ff       	jmp    402020 <.plt>

00000000004020d0 <strlen@plt>:
  4020d0:	ff 25 92 bf 00 00    	jmp    *0xbf92(%rip)        # 40e068 <strlen@GLIBC_2.2.5>
  4020d6:	68 0a 00 00 00       	push   $0xa
  4020db:	e9 40 ff ff ff       	jmp    402020 <.plt>

00000000004020e0 <strncmp@plt>:
  4020e0:	ff 25 8a bf 00 00    	jmp    *0xbf8a(%rip)        # 40e070 <strncmp@GLIBC_2.2.5>
  4020e6:	68 0b 00 00 00       	push   $0xb
  4020eb:	e9 30 ff ff ff       	jmp    402020 <.plt>

00000000004020f0 <epoll_wait@plt>:
  4020f0:	ff 25 82 bf 00 00    	jmp    *0xbf82(%rip)        # 40e078 <epoll_wait@GLIBC_2.3.2>
  4020f6:	68 0c 00 00 00       	push   $0xc
  4020fb:	e9 20 ff ff ff       	jmp    402020 <.plt>

0000000000402100 <send@plt>:
  402100:	ff 25 7a bf 00 00    	jmp    *0xbf7a(%rip)        # 40e080 <send@GLIBC_2.2.5>
  402106:	68 0d 00 00 00       	push   $0xd
  40210b:	e9 10 ff ff ff       	jmp    402020 <.plt>

0000000000402110 <strncpy@plt>:
  402110:	ff 25 72 bf 00 00    	jmp    *0xbf72(%rip)        # 40e088 <strncpy@GLIBC_2.2.5>
  402116:	68 0e 00 00 00       	push   $0xe
  40211b:	e9 00 ff ff ff       	jmp    402020 <.plt>

0000000000402120 <memset@plt>:
  402120:	ff 25 6a bf 00 00    	jmp    *0xbf6a(%rip)        # 40e090 <memset@GLIBC_2.2.5>
  402126:	68 0f 00 00 00       	push   $0xf
  40212b:	e9 f0 fe ff ff       	jmp    402020 <.plt>

0000000000402130 <fcntl@plt>:
  402130:	ff 25 62 bf 00 00    	jmp    *0xbf62(%rip)        # 40e098 <fcntl@GLIBC_2.2.5>
  402136:	68 10 00 00 00       	push   $0x10
  40213b:	e9 e0 fe ff ff       	jmp    402020 <.plt>

0000000000402140 <sysconf@plt>:
  402140:	ff 25 5a bf 00 00    	jmp    *0xbf5a(%rip)        # 40e0a0 <sysconf@GLIBC_2.2.5>
  402146:	68 11 00 00 00       	push   $0x11
  40214b:	e9 d0 fe ff ff       	jmp    402020 <.plt>

0000000000402150 <calloc@plt>:
  402150:	ff 25 52 bf 00 00    	jmp    *0xbf52(%rip)        # 40e0a8 <calloc@GLIBC_2.2.5>
  402156:	68 12 00 00 00       	push   $0x12
  40215b:	e9 c0 fe ff ff       	jmp    402020 <.plt>

0000000000402160 <open@plt>:
  402160:	ff 25 4a bf 00 00    	jmp    *0xbf4a(%rip)        # 40e0b0 <open@GLIBC_2.2.5>
  402166:	68 13 00 00 00       	push   $0x13
  40216b:	e9 b0 fe ff ff       	jmp    402020 <.plt>

0000000000402170 <localtime@plt>:
  402170:	ff 25 42 bf 00 00    	jmp    *0xbf42(%rip)        # 40e0b8 <localtime@GLIBC_2.2.5>
  402176:	68 14 00 00 00       	push   $0x14
  40217b:	e9 a0 fe ff ff       	jmp    402020 <.plt>

0000000000402180 <pthread_mutex_unlock@plt>:
  402180:	ff 25 3a bf 00 00    	jmp    *0xbf3a(%rip)        # 40e0c0 <pthread_mutex_unlock@GLIBC_2.2.5>
  402186:	68 15 00 00 00       	push   $0x15
  40218b:	e9 90 fe ff ff       	jmp    402020 <.plt>

0000000000402190 <sched_setaffinity@plt>:
  402190:	ff 25 32 bf 00 00    	jmp    *0xbf32(%rip)        # 40e0c8 <sched_setaffinity@GLIBC_2.3.4>
  402196:	68 16 00 00 00       	push   $0x16
  40219b:	e9 80 fe ff ff       	jmp    402020 <.plt>

00000000004021a0 <memcpy@plt>:
  4021a0:	ff 25 2a bf 00 00    	jmp    *0xbf2a(%rip)        # 40e0d0 <memcpy@GLIBC_2.14>
  4021a6:	68 17 00 00 00       	push   $0x17
  4021ab:	e9 70 fe ff ff       	jmp    402020 <.plt>

00000000004021b0 <connect@plt>:
  4021b0:	ff 25 22 bf 00 00    	jmp    *0xbf22(%rip)        # 40e0d8 <connect@GLIBC_2.2.5>
  4021b6:	68 18 00 00 00       	push   $0x18
  4021bb:	e9 60 fe ff ff       	jmp    402020 <.plt>

00000000004021c0 <system@plt>:
  4021c0:	ff 25 1a bf 00 00    	jmp    *0xbf1a(%rip)        # 40e0e0 <system@GLIBC_2.2.5>
  4021c6:	68 19 00 00 00       	push   $0x19
  4021cb:	e9 50 fe ff ff       	jmp    402020 <.plt>

00000000004021d0 <time@plt>:
  4021d0:	ff 25 12 bf 00 00    	jmp    *0xbf12(%rip)        # 40e0e8 <time@GLIBC_2.2.5>
  4021d6:	68 1a 00 00 00       	push   $0x1a
  4021db:	e9 40 fe ff ff       	jmp    402020 <.plt>

00000000004021e0 <fclose@plt>:
  4021e0:	ff 25 0a bf 00 00    	jmp    *0xbf0a(%rip)        # 40e0f0 <fclose@GLIBC_2.2.5>
  4021e6:	68 1b 00 00 00       	push   $0x1b
  4021eb:	e9 30 fe ff ff       	jmp    402020 <.plt>

00000000004021f0 <inet_addr@plt>:
  4021f0:	ff 25 02 bf 00 00    	jmp    *0xbf02(%rip)        # 40e0f8 <inet_addr@GLIBC_2.2.5>
  4021f6:	68 1c 00 00 00       	push   $0x1c
  4021fb:	e9 20 fe ff ff       	jmp    402020 <.plt>

0000000000402200 <inet_ntop@plt>:
  402200:	ff 25 fa be 00 00    	jmp    *0xbefa(%rip)        # 40e100 <inet_ntop@GLIBC_2.2.5>
  402206:	68 1d 00 00 00       	push   $0x1d
  40220b:	e9 10 fe ff ff       	jmp    402020 <.plt>

0000000000402210 <__ctype_b_loc@plt>:
  402210:	ff 25 f2 be 00 00    	jmp    *0xbef2(%rip)        # 40e108 <__ctype_b_loc@GLIBC_2.3>
  402216:	68 1e 00 00 00       	push   $0x1e
  40221b:	e9 00 fe ff ff       	jmp    402020 <.plt>

0000000000402220 <nice@plt>:
  402220:	ff 25 ea be 00 00    	jmp    *0xbeea(%rip)        # 40e110 <nice@GLIBC_2.2.5>
  402226:	68 1f 00 00 00       	push   $0x1f
  40222b:	e9 f0 fd ff ff       	jmp    402020 <.plt>

0000000000402230 <memchr@plt>:
  402230:	ff 25 e2 be 00 00    	jmp    *0xbee2(%rip)        # 40e118 <memchr@GLIBC_2.2.5>
  402236:	68 20 00 00 00       	push   $0x20
  40223b:	e9 e0 fd ff ff       	jmp    402020 <.plt>

0000000000402240 <__stack_chk_fail@plt>:
  402240:	ff 25 da be 00 00    	jmp    *0xbeda(%rip)        # 40e120 <__stack_chk_fail@GLIBC_2.4>
  402246:	68 21 00 00 00       	push   $0x21
  40224b:	e9 d0 fd ff ff       	jmp    402020 <.plt>

0000000000402250 <listen@plt>:
  402250:	ff 25 d2 be 00 00    	jmp    *0xbed2(%rip)        # 40e128 <listen@GLIBC_2.2.5>
  402256:	68 22 00 00 00       	push   $0x22
  40225b:	e9 c0 fd ff ff       	jmp    402020 <.plt>

0000000000402260 <fopen@plt>:
  402260:	ff 25 ca be 00 00    	jmp    *0xbeca(%rip)        # 40e130 <fopen@GLIBC_2.2.5>
  402266:	68 23 00 00 00       	push   $0x23
  40226b:	e9 b0 fd ff ff       	jmp    402020 <.plt>

0000000000402270 <signal@plt>:
  402270:	ff 25 c2 be 00 00    	jmp    *0xbec2(%rip)        # 40e138 <signal@GLIBC_2.2.5>
  402276:	68 24 00 00 00       	push   $0x24
  40227b:	e9 a0 fd ff ff       	jmp    402020 <.plt>

0000000000402280 <free@plt>:
  402280:	ff 25 ba be 00 00    	jmp    *0xbeba(%rip)        # 40e140 <free@GLIBC_2.2.5>
  402286:	68 25 00 00 00       	push   $0x25
  40228b:	e9 90 fd ff ff       	jmp    402020 <.plt>

0000000000402290 <exit@plt>:
  402290:	ff 25 b2 be 00 00    	jmp    *0xbeb2(%rip)        # 40e148 <exit@GLIBC_2.2.5>
  402296:	68 26 00 00 00       	push   $0x26
  40229b:	e9 80 fd ff ff       	jmp    402020 <.plt>

00000000004022a0 <malloc@plt>:
  4022a0:	ff 25 aa be 00 00    	jmp    *0xbeaa(%rip)        # 40e150 <malloc@GLIBC_2.2.5>
  4022a6:	68 27 00 00 00       	push   $0x27
  4022ab:	e9 70 fd ff ff       	jmp    402020 <.plt>

00000000004022b0 <vfprintf@plt>:
  4022b0:	ff 25 a2 be 00 00    	jmp    *0xbea2(%rip)        # 40e158 <vfprintf@GLIBC_2.2.5>
  4022b6:	68 28 00 00 00       	push   $0x28
  4022bb:	e9 60 fd ff ff       	jmp    402020 <.plt>

00000000004022c0 <epoll_ctl@plt>:
  4022c0:	ff 25 9a be 00 00    	jmp    *0xbe9a(%rip)        # 40e160 <epoll_ctl@GLIBC_2.3.2>
  4022c6:	68 29 00 00 00       	push   $0x29
  4022cb:	e9 50 fd ff ff       	jmp    402020 <.plt>

00000000004022d0 <putchar@plt>:
  4022d0:	ff 25 92 be 00 00    	jmp    *0xbe92(%rip)        # 40e168 <putchar@GLIBC_2.2.5>
  4022d6:	68 2a 00 00 00       	push   $0x2a
  4022db:	e9 40 fd ff ff       	jmp    402020 <.plt>

00000000004022e0 <strcmp@plt>:
  4022e0:	ff 25 8a be 00 00    	jmp    *0xbe8a(%rip)        # 40e170 <strcmp@GLIBC_2.2.5>
  4022e6:	68 2b 00 00 00       	push   $0x2b
  4022eb:	e9 30 fd ff ff       	jmp    402020 <.plt>

00000000004022f0 <strtol@plt>:
  4022f0:	ff 25 82 be 00 00    	jmp    *0xbe82(%rip)        # 40e178 <strtol@GLIBC_2.2.5>
  4022f6:	68 2c 00 00 00       	push   $0x2c
  4022fb:	e9 20 fd ff ff       	jmp    402020 <.plt>

0000000000402300 <ioctl@plt>:
  402300:	ff 25 7a be 00 00    	jmp    *0xbe7a(%rip)        # 40e180 <ioctl@GLIBC_2.2.5>
  402306:	68 2d 00 00 00       	push   $0x2d
  40230b:	e9 10 fd ff ff       	jmp    402020 <.plt>

0000000000402310 <usleep@plt>:
  402310:	ff 25 72 be 00 00    	jmp    *0xbe72(%rip)        # 40e188 <usleep@GLIBC_2.2.5>
  402316:	68 2e 00 00 00       	push   $0x2e
  40231b:	e9 00 fd ff ff       	jmp    402020 <.plt>

0000000000402320 <pclose@plt>:
  402320:	ff 25 6a be 00 00    	jmp    *0xbe6a(%rip)        # 40e190 <pclose@GLIBC_2.2.5>
  402326:	68 2f 00 00 00       	push   $0x2f
  40232b:	e9 f0 fc ff ff       	jmp    402020 <.plt>

0000000000402330 <read@plt>:
  402330:	ff 25 62 be 00 00    	jmp    *0xbe62(%rip)        # 40e198 <read@GLIBC_2.2.5>
  402336:	68 30 00 00 00       	push   $0x30
  40233b:	e9 e0 fc ff ff       	jmp    402020 <.plt>

0000000000402340 <pthread_mutex_lock@plt>:
  402340:	ff 25 5a be 00 00    	jmp    *0xbe5a(%rip)        # 40e1a0 <pthread_mutex_lock@GLIBC_2.2.5>
  402346:	68 31 00 00 00       	push   $0x31
  40234b:	e9 d0 fc ff ff       	jmp    402020 <.plt>

0000000000402350 <fread@plt>:
  402350:	ff 25 52 be 00 00    	jmp    *0xbe52(%rip)        # 40e1a8 <fread@GLIBC_2.2.5>
  402356:	68 32 00 00 00       	push   $0x32
  40235b:	e9 c0 fc ff ff       	jmp    402020 <.plt>

0000000000402360 <sched_getaffinity@plt>:
  402360:	ff 25 4a be 00 00    	jmp    *0xbe4a(%rip)        # 40e1b0 <sched_getaffinity@GLIBC_2.3.4>
  402366:	68 33 00 00 00       	push   $0x33
  40236b:	e9 b0 fc ff ff       	jmp    402020 <.plt>

0000000000402370 <puts@plt>:
  402370:	ff 25 42 be 00 00    	jmp    *0xbe42(%rip)        # 40e1b8 <puts@GLIBC_2.2.5>
  402376:	68 34 00 00 00       	push   $0x34
  40237b:	e9 a0 fc ff ff       	jmp    402020 <.plt>

0000000000402380 <strnlen@plt>:
  402380:	ff 25 3a be 00 00    	jmp    *0xbe3a(%rip)        # 40e1c0 <strnlen@GLIBC_2.2.5>
  402386:	68 35 00 00 00       	push   $0x35
  40238b:	e9 90 fc ff ff       	jmp    402020 <.plt>

0000000000402390 <snprintf@plt>:
  402390:	ff 25 32 be 00 00    	jmp    *0xbe32(%rip)        # 40e1c8 <snprintf@GLIBC_2.2.5>
  402396:	68 36 00 00 00       	push   $0x36
  40239b:	e9 80 fc ff ff       	jmp    402020 <.plt>

00000000004023a0 <memmove@plt>:
  4023a0:	ff 25 2a be 00 00    	jmp    *0xbe2a(%rip)        # 40e1d0 <memmove@GLIBC_2.2.5>
  4023a6:	68 37 00 00 00       	push   $0x37
  4023ab:	e9 70 fc ff ff       	jmp    402020 <.plt>

00000000004023b0 <getopt_long@plt>:
  4023b0:	ff 25 22 be 00 00    	jmp    *0xbe22(%rip)        # 40e1d8 <getopt_long@GLIBC_2.2.5>
  4023b6:	68 38 00 00 00       	push   $0x38
  4023bb:	e9 60 fc ff ff       	jmp    402020 <.plt>

00000000004023c0 <access@plt>:
  4023c0:	ff 25 1a be 00 00    	jmp    *0xbe1a(%rip)        # 40e1e0 <access@GLIBC_2.2.5>
  4023c6:	68 39 00 00 00       	push   $0x39
  4023cb:	e9 50 fc ff ff       	jmp    402020 <.plt>

00000000004023d0 <strsignal@plt>:
  4023d0:	ff 25 12 be 00 00    	jmp    *0xbe12(%rip)        # 40e1e8 <strsignal@GLIBC_2.2.5>
  4023d6:	68 3a 00 00 00       	push   $0x3a
  4023db:	e9 40 fc ff ff       	jmp    402020 <.plt>

00000000004023e0 <setsockopt@plt>:
  4023e0:	ff 25 0a be 00 00    	jmp    *0xbe0a(%rip)        # 40e1f0 <setsockopt@GLIBC_2.2.5>
  4023e6:	68 3b 00 00 00       	push   $0x3b
  4023eb:	e9 30 fc ff ff       	jmp    402020 <.plt>

00000000004023f0 <epoll_create@plt>:
  4023f0:	ff 25 02 be 00 00    	jmp    *0xbe02(%rip)        # 40e1f8 <epoll_create@GLIBC_2.3.2>
  4023f6:	68 3c 00 00 00       	push   $0x3c
  4023fb:	e9 20 fc ff ff       	jmp    402020 <.plt>

0000000000402400 <inet_pton@plt>:
  402400:	ff 25 fa bd 00 00    	jmp    *0xbdfa(%rip)        # 40e200 <inet_pton@GLIBC_2.2.5>
  402406:	68 3d 00 00 00       	push   $0x3d
  40240b:	e9 10 fc ff ff       	jmp    402020 <.plt>

0000000000402410 <putc@plt>:
  402410:	ff 25 f2 bd 00 00    	jmp    *0xbdf2(%rip)        # 40e208 <putc@GLIBC_2.2.5>
  402416:	68 3e 00 00 00       	push   $0x3e
  40241b:	e9 00 fc ff ff       	jmp    402020 <.plt>

0000000000402420 <close@plt>:
  402420:	ff 25 ea bd 00 00    	jmp    *0xbdea(%rip)        # 40e210 <close@GLIBC_2.2.5>
  402426:	68 3f 00 00 00       	push   $0x3f
  40242b:	e9 f0 fb ff ff       	jmp    402020 <.plt>

Disassembly of section .text:

0000000000402430 <_start>:
  402430:	f3 0f 1e fa          	endbr64 
  402434:	31 ed                	xor    %ebp,%ebp
  402436:	49 89 d1             	mov    %rdx,%r9
  402439:	5e                   	pop    %rsi
  40243a:	48 89 e2             	mov    %rsp,%rdx
  40243d:	48 83 e4 f0          	and    $0xfffffffffffffff0,%rsp
  402441:	50                   	push   %rax
  402442:	54                   	push   %rsp
  402443:	49 c7 c0 f0 83 40 00 	mov    $0x4083f0,%r8
  40244a:	48 c7 c1 80 83 40 00 	mov    $0x408380,%rcx
  402451:	48 c7 c7 30 81 40 00 	mov    $0x408130,%rdi
  402458:	ff 15 8a bb 00 00    	call   *0xbb8a(%rip)        # 40dfe8 <__libc_start_main@GLIBC_2.2.5>
  40245e:	f4                   	hlt    
  40245f:	90                   	nop

0000000000402460 <_dl_relocate_static_pie>:
  402460:	f3 0f 1e fa          	endbr64 
  402464:	c3                   	ret    
  402465:	66 2e 0f 1f 84 00 00 	cs nopw 0x0(%rax,%rax,1)
  40246c:	00 00 00 
  40246f:	90                   	nop

0000000000402470 <deregister_tm_clones>:
  402470:	b8 b0 e2 40 00       	mov    $0x40e2b0,%eax
  402475:	48 3d b0 e2 40 00    	cmp    $0x40e2b0,%rax
  40247b:	74 13                	je     402490 <deregister_tm_clones+0x20>
  40247d:	b8 00 00 00 00       	mov    $0x0,%eax
  402482:	48 85 c0             	test   %rax,%rax
  402485:	74 09                	je     402490 <deregister_tm_clones+0x20>
  402487:	bf b0 e2 40 00       	mov    $0x40e2b0,%edi
  40248c:	ff e0                	jmp    *%rax
  40248e:	66 90                	xchg   %ax,%ax
  402490:	c3                   	ret    
  402491:	66 66 2e 0f 1f 84 00 	data16 cs nopw 0x0(%rax,%rax,1)
  402498:	00 00 00 00 
  40249c:	0f 1f 40 00          	nopl   0x0(%rax)

00000000004024a0 <register_tm_clones>:
  4024a0:	be b0 e2 40 00       	mov    $0x40e2b0,%esi
  4024a5:	48 81 ee b0 e2 40 00 	sub    $0x40e2b0,%rsi
  4024ac:	48 89 f0             	mov    %rsi,%rax
  4024af:	48 c1 ee 3f          	shr    $0x3f,%rsi
  4024b3:	48 c1 f8 03          	sar    $0x3,%rax
  4024b7:	48 01 c6             	add    %rax,%rsi
  4024ba:	48 d1 fe             	sar    %rsi
  4024bd:	74 11                	je     4024d0 <register_tm_clones+0x30>
  4024bf:	b8 00 00 00 00       	mov    $0x0,%eax
  4024c4:	48 85 c0             	test   %rax,%rax
  4024c7:	74 07                	je     4024d0 <register_tm_clones+0x30>
  4024c9:	bf b0 e2 40 00       	mov    $0x40e2b0,%edi
  4024ce:	ff e0                	jmp    *%rax
  4024d0:	c3                   	ret    
  4024d1:	66 66 2e 0f 1f 84 00 	data16 cs nopw 0x0(%rax,%rax,1)
  4024d8:	00 00 00 00 
  4024dc:	0f 1f 40 00          	nopl   0x0(%rax)

00000000004024e0 <__do_global_dtors_aux>:
  4024e0:	f3 0f 1e fa          	endbr64 
  4024e4:	80 3d c5 bd 00 00 00 	cmpb   $0x0,0xbdc5(%rip)        # 40e2b0 <__TMC_END__>
  4024eb:	75 13                	jne    402500 <__do_global_dtors_aux+0x20>
  4024ed:	55                   	push   %rbp
  4024ee:	48 89 e5             	mov    %rsp,%rbp
  4024f1:	e8 7a ff ff ff       	call   402470 <deregister_tm_clones>
  4024f6:	c6 05 b3 bd 00 00 01 	movb   $0x1,0xbdb3(%rip)        # 40e2b0 <__TMC_END__>
  4024fd:	5d                   	pop    %rbp
  4024fe:	c3                   	ret    
  4024ff:	90                   	nop
  402500:	c3                   	ret    
  402501:	66 66 2e 0f 1f 84 00 	data16 cs nopw 0x0(%rax,%rax,1)
  402508:	00 00 00 00 
  40250c:	0f 1f 40 00          	nopl   0x0(%rax)

0000000000402510 <frame_dummy>:
  402510:	f3 0f 1e fa          	endbr64 
  402514:	eb 8a                	jmp    4024a0 <register_tm_clones>
  402516:	66 2e 0f 1f 84 00 00 	cs nopw 0x0(%rax,%rax,1)
  40251d:	00 00 00 

0000000000402520 <ini_parse_stream>:
  402520:	55                   	push   %rbp
  402521:	41 57                	push   %r15
  402523:	41 56                	push   %r14
  402525:	41 55                	push   %r13
  402527:	41 54                	push   %r12
  402529:	53                   	push   %rbx
  40252a:	48 81 ec 88 01 00 00 	sub    $0x188,%rsp
  402531:	48 89 4c 24 18       	mov    %rcx,0x18(%rsp)
  402536:	49 89 d4             	mov    %rdx,%r12
  402539:	48 89 f2             	mov    %rsi,%rdx
  40253c:	48 89 f9             	mov    %rdi,%rcx
  40253f:	64 48 8b 04 25 28 00 	mov    %fs:0x28,%rax
  402546:	00 00 
  402548:	48 89 84 24 80 01 00 	mov    %rax,0x180(%rsp)
  40254f:	00 
  402550:	0f 57 c0             	xorps  %xmm0,%xmm0
  402553:	0f 29 84 24 90 00 00 	movaps %xmm0,0x90(%rsp)
  40255a:	00 
  40255b:	0f 29 84 24 80 00 00 	movaps %xmm0,0x80(%rsp)
  402562:	00 
  402563:	0f 29 44 24 70       	movaps %xmm0,0x70(%rsp)
  402568:	66 c7 84 24 a0 00 00 	movw   $0x0,0xa0(%rsp)
  40256f:	00 00 00 
  402572:	0f 29 44 24 50       	movaps %xmm0,0x50(%rsp)
  402577:	0f 29 44 24 40       	movaps %xmm0,0x40(%rsp)
  40257c:	0f 29 44 24 30       	movaps %xmm0,0x30(%rsp)
  402581:	66 c7 44 24 60 00 00 	movw   $0x0,0x60(%rsp)
  402588:	48 8d ac 24 b0 00 00 	lea    0xb0(%rsp),%rbp
  40258f:	00 
  402590:	48 89 ef             	mov    %rbp,%rdi
  402593:	be c8 00 00 00       	mov    $0xc8,%esi
  402598:	48 89 54 24 28       	mov    %rdx,0x28(%rsp)
  40259d:	48 89 4c 24 20       	mov    %rcx,0x20(%rsp)
  4025a2:	ff d1                	call   *%rcx
  4025a4:	48 85 c0             	test   %rax,%rax
  4025a7:	0f 84 14 04 00 00    	je     4029c1 <ini_parse_stream+0x4a1>
  4025ad:	c7 44 24 0c 00 00 00 	movl   $0x0,0xc(%rsp)
  4025b4:	00 
  4025b5:	45 31 ff             	xor    %r15d,%r15d
  4025b8:	4c 89 64 24 10       	mov    %r12,0x10(%rsp)
  4025bd:	eb 41                	jmp    402600 <ini_parse_stream+0xe0>
  4025bf:	90                   	nop
  4025c0:	48 8b 7c 24 18       	mov    0x18(%rsp),%rdi
  4025c5:	48 8d 74 24 70       	lea    0x70(%rsp),%rsi
  4025ca:	48 8d 54 24 30       	lea    0x30(%rsp),%rdx
  4025cf:	48 89 d9             	mov    %rbx,%rcx
  4025d2:	45 89 f8             	mov    %r15d,%r8d
  4025d5:	41 ff d4             	call   *%r12
  4025d8:	8b 4c 24 0c          	mov    0xc(%rsp),%ecx
  4025dc:	09 c8                	or     %ecx,%eax
  4025de:	41 0f 44 cf          	cmove  %r15d,%ecx
  4025e2:	89 4c 24 0c          	mov    %ecx,0xc(%rsp)
  4025e6:	48 89 ef             	mov    %rbp,%rdi
  4025e9:	be c8 00 00 00       	mov    $0xc8,%esi
  4025ee:	48 8b 54 24 28       	mov    0x28(%rsp),%rdx
  4025f3:	ff 54 24 20          	call   *0x20(%rsp)
  4025f7:	48 85 c0             	test   %rax,%rax
  4025fa:	0f 84 c9 03 00 00    	je     4029c9 <ini_parse_stream+0x4a9>
  402600:	45 85 ff             	test   %r15d,%r15d
  402603:	0f 94 c0             	sete   %al
  402606:	80 bc 24 b0 00 00 00 	cmpb   $0xef,0xb0(%rsp)
  40260d:	ef 
  40260e:	0f 94 c1             	sete   %cl
  402611:	20 c1                	and    %al,%cl
  402613:	80 bc 24 b1 00 00 00 	cmpb   $0xbb,0xb1(%rsp)
  40261a:	bb 
  40261b:	0f 94 c0             	sete   %al
  40261e:	80 bc 24 b2 00 00 00 	cmpb   $0xbf,0xb2(%rsp)
  402625:	bf 
  402626:	0f 94 c2             	sete   %dl
  402629:	20 c2                	and    %al,%dl
  40262b:	20 ca                	and    %cl,%dl
  40262d:	0f b6 c2             	movzbl %dl,%eax
  402630:	4c 8d 34 40          	lea    (%rax,%rax,2),%r14
  402634:	84 c0                	test   %al,%al
  402636:	48 89 eb             	mov    %rbp,%rbx
  402639:	48 8d 84 24 b3 00 00 	lea    0xb3(%rsp),%rax
  402640:	00 
  402641:	48 0f 45 d8          	cmovne %rax,%rbx
  402645:	48 89 df             	mov    %rbx,%rdi
  402648:	e8 83 fa ff ff       	call   4020d0 <strlen@plt>
  40264d:	48 85 c0             	test   %rax,%rax
  402650:	7e 29                	jle    40267b <ini_parse_stream+0x15b>
  402652:	48 89 c5             	mov    %rax,%rbp
  402655:	48 01 dd             	add    %rbx,%rbp
  402658:	e8 b3 fb ff ff       	call   402210 <__ctype_b_loc@plt>
  40265d:	0f 1f 00             	nopl   (%rax)
  402660:	48 8b 08             	mov    (%rax),%rcx
  402663:	0f b6 55 ff          	movzbl -0x1(%rbp),%edx
  402667:	f6 44 51 01 20       	testb  $0x20,0x1(%rcx,%rdx,2)
  40266c:	74 0d                	je     40267b <ini_parse_stream+0x15b>
  40266e:	c6 45 ff 00          	movb   $0x0,-0x1(%rbp)
  402672:	48 83 c5 ff          	add    $0xffffffffffffffff,%rbp
  402676:	48 39 dd             	cmp    %rbx,%rbp
  402679:	77 e5                	ja     402660 <ini_parse_stream+0x140>
  40267b:	46 8a ac 34 b0 00 00 	mov    0xb0(%rsp,%r14,1),%r13b
  402682:	00 
  402683:	45 84 ed             	test   %r13b,%r13b
  402686:	0f 84 34 00 00 00    	je     4026c0 <ini_parse_stream+0x1a0>
  40268c:	e8 7f fb ff ff       	call   402210 <__ctype_b_loc@plt>
  402691:	48 8b 00             	mov    (%rax),%rax
  402694:	48 8d ac 24 b0 00 00 	lea    0xb0(%rsp),%rbp
  40269b:	00 
  40269c:	0f 1f 40 00          	nopl   0x0(%rax)
  4026a0:	41 0f b6 cd          	movzbl %r13b,%ecx
  4026a4:	f6 44 48 01 20       	testb  $0x20,0x1(%rax,%rcx,2)
  4026a9:	74 20                	je     4026cb <ini_parse_stream+0x1ab>
  4026ab:	44 0f b6 6b 01       	movzbl 0x1(%rbx),%r13d
  4026b0:	48 83 c3 01          	add    $0x1,%rbx
  4026b4:	45 84 ed             	test   %r13b,%r13b
  4026b7:	75 e7                	jne    4026a0 <ini_parse_stream+0x180>
  4026b9:	45 31 ed             	xor    %r13d,%r13d
  4026bc:	eb 0d                	jmp    4026cb <ini_parse_stream+0x1ab>
  4026be:	66 90                	xchg   %ax,%ax
  4026c0:	45 31 ed             	xor    %r13d,%r13d
  4026c3:	48 8d ac 24 b0 00 00 	lea    0xb0(%rsp),%rbp
  4026ca:	00 
  4026cb:	41 83 c7 01          	add    $0x1,%r15d
  4026cf:	b8 01 00 00 00       	mov    $0x1,%eax
  4026d4:	44 89 e9             	mov    %r13d,%ecx
  4026d7:	48 d3 e0             	shl    %cl,%rax
  4026da:	41 80 fd 3f          	cmp    $0x3f,%r13b
  4026de:	77 13                	ja     4026f3 <ini_parse_stream+0x1d3>
  4026e0:	48 b9 01 00 00 00 08 	movabs $0x800000800000001,%rcx
  4026e7:	00 00 08 
  4026ea:	48 21 c8             	and    %rcx,%rax
  4026ed:	0f 85 f3 fe ff ff    	jne    4025e6 <ini_parse_stream+0xc6>
  4026f3:	48 39 eb             	cmp    %rbp,%rbx
  4026f6:	76 10                	jbe    402708 <ini_parse_stream+0x1e8>
  4026f8:	45 84 ed             	test   %r13b,%r13b
  4026fb:	74 0b                	je     402708 <ini_parse_stream+0x1e8>
  4026fd:	80 7c 24 30 00       	cmpb   $0x0,0x30(%rsp)
  402702:	0f 85 b8 fe ff ff    	jne    4025c0 <ini_parse_stream+0xa0>
  402708:	45 84 ed             	test   %r13b,%r13b
  40270b:	0f 84 d5 fe ff ff    	je     4025e6 <ini_parse_stream+0xc6>
  402711:	41 80 fd 5b          	cmp    $0x5b,%r13b
  402715:	0f 85 94 00 00 00    	jne    4027af <ini_parse_stream+0x28f>
  40271b:	44 8a 73 01          	mov    0x1(%rbx),%r14b
  40271f:	45 84 f6             	test   %r14b,%r14b
  402722:	0f 84 79 02 00 00    	je     4029a1 <ini_parse_stream+0x481>
  402728:	4c 8d 63 01          	lea    0x1(%rbx),%r12
  40272c:	48 83 c3 02          	add    $0x2,%rbx
  402730:	31 ed                	xor    %ebp,%ebp
  402732:	e9 2d 00 00 00       	jmp    402764 <ini_parse_stream+0x244>
  402737:	66 0f 1f 84 00 00 00 	nopw   0x0(%rax,%rax,1)
  40273e:	00 00 
  402740:	e8 cb fa ff ff       	call   402210 <__ctype_b_loc@plt>
  402745:	48 8b 00             	mov    (%rax),%rax
  402748:	42 0f b7 2c 68       	movzwl (%rax,%r13,2),%ebp
  40274d:	81 e5 00 20 00 00    	and    $0x2000,%ebp
  402753:	44 0f b6 33          	movzbl (%rbx),%r14d
  402757:	48 83 c3 01          	add    $0x1,%rbx
  40275b:	45 84 f6             	test   %r14b,%r14b
  40275e:	0f 84 3d 02 00 00    	je     4029a1 <ini_parse_stream+0x481>
  402764:	41 0f be f6          	movsbl %r14b,%esi
  402768:	ba 02 00 00 00       	mov    $0x2,%edx
  40276d:	48 8d 3d 85 8b 00 00 	lea    0x8b85(%rip),%rdi        # 40b2f9 <invalid+0x149>
  402774:	e8 b7 fa ff ff       	call   402230 <memchr@plt>
  402779:	48 85 c0             	test   %rax,%rax
  40277c:	0f 85 01 02 00 00    	jne    402983 <ini_parse_stream+0x463>
  402782:	45 0f b6 ee          	movzbl %r14b,%r13d
  402786:	85 ed                	test   %ebp,%ebp
  402788:	74 b6                	je     402740 <ini_parse_stream+0x220>
  40278a:	b8 01 00 00 00       	mov    $0x1,%eax
  40278f:	44 89 e9             	mov    %r13d,%ecx
  402792:	48 d3 e0             	shl    %cl,%rax
  402795:	41 80 fe 3f          	cmp    $0x3f,%r14b
  402799:	77 a5                	ja     402740 <ini_parse_stream+0x220>
  40279b:	48 b9 01 00 00 00 00 	movabs $0x800000000000001,%rcx
  4027a2:	00 00 08 
  4027a5:	48 21 c8             	and    %rcx,%rax
  4027a8:	74 96                	je     402740 <ini_parse_stream+0x220>
  4027aa:	e9 f2 01 00 00       	jmp    4029a1 <ini_parse_stream+0x481>
  4027af:	4c 8d 63 01          	lea    0x1(%rbx),%r12
  4027b3:	4c 8d 73 02          	lea    0x2(%rbx),%r14
  4027b7:	31 c0                	xor    %eax,%eax
  4027b9:	e9 29 00 00 00       	jmp    4027e7 <ini_parse_stream+0x2c7>
  4027be:	66 90                	xchg   %ax,%ax
  4027c0:	e8 4b fa ff ff       	call   402210 <__ctype_b_loc@plt>
  4027c5:	48 8b 00             	mov    (%rax),%rax
  4027c8:	0f b7 04 68          	movzwl (%rax,%rbp,2),%eax
  4027cc:	25 00 20 00 00       	and    $0x2000,%eax
  4027d1:	45 0f b6 2c 24       	movzbl (%r12),%r13d
  4027d6:	49 83 c4 01          	add    $0x1,%r12
  4027da:	49 83 c6 01          	add    $0x1,%r14
  4027de:	45 84 ed             	test   %r13b,%r13b
  4027e1:	0f 84 ba 01 00 00    	je     4029a1 <ini_parse_stream+0x481>
  4027e7:	41 0f b6 ed          	movzbl %r13b,%ebp
  4027eb:	ba 01 00 00 00       	mov    $0x1,%edx
  4027f0:	89 e9                	mov    %ebp,%ecx
  4027f2:	48 d3 e2             	shl    %cl,%rdx
  4027f5:	40 80 fd 3f          	cmp    $0x3f,%bpl
  4027f9:	77 12                	ja     40280d <ini_parse_stream+0x2ed>
  4027fb:	48 89 d1             	mov    %rdx,%rcx
  4027fe:	48 be 01 00 00 00 00 	movabs $0x2400000000000001,%rsi
  402805:	00 00 24 
  402808:	48 21 f1             	and    %rsi,%rcx
  40280b:	75 19                	jne    402826 <ini_parse_stream+0x306>
  40280d:	85 c0                	test   %eax,%eax
  40280f:	74 af                	je     4027c0 <ini_parse_stream+0x2a0>
  402811:	40 80 fd 3f          	cmp    $0x3f,%bpl
  402815:	77 a9                	ja     4027c0 <ini_parse_stream+0x2a0>
  402817:	48 b8 01 00 00 00 00 	movabs $0x800000000000001,%rax
  40281e:	00 00 08 
  402821:	48 21 c2             	and    %rax,%rdx
  402824:	74 9a                	je     4027c0 <ini_parse_stream+0x2a0>
  402826:	40 80 fd 3d          	cmp    $0x3d,%bpl
  40282a:	74 0a                	je     402836 <ini_parse_stream+0x316>
  40282c:	40 80 fd 3a          	cmp    $0x3a,%bpl
  402830:	0f 85 6b 01 00 00    	jne    4029a1 <ini_parse_stream+0x481>
  402836:	41 c6 44 24 ff 00    	movb   $0x0,-0x1(%r12)
  40283c:	48 89 df             	mov    %rbx,%rdi
  40283f:	e8 8c f8 ff ff       	call   4020d0 <strlen@plt>
  402844:	48 85 c0             	test   %rax,%rax
  402847:	0f 8e 2e 00 00 00    	jle    40287b <ini_parse_stream+0x35b>
  40284d:	48 89 c5             	mov    %rax,%rbp
  402850:	48 01 dd             	add    %rbx,%rbp
  402853:	e8 b8 f9 ff ff       	call   402210 <__ctype_b_loc@plt>
  402858:	0f 1f 84 00 00 00 00 	nopl   0x0(%rax,%rax,1)
  40285f:	00 
  402860:	48 8b 08             	mov    (%rax),%rcx
  402863:	0f b6 55 ff          	movzbl -0x1(%rbp),%edx
  402867:	f6 44 51 01 20       	testb  $0x20,0x1(%rcx,%rdx,2)
  40286c:	74 0d                	je     40287b <ini_parse_stream+0x35b>
  40286e:	c6 45 ff 00          	movb   $0x0,-0x1(%rbp)
  402872:	48 83 c5 ff          	add    $0xffffffffffffffff,%rbp
  402876:	48 39 dd             	cmp    %rbx,%rbp
  402879:	77 e5                	ja     402860 <ini_parse_stream+0x340>
  40287b:	45 8a 2c 24          	mov    (%r12),%r13b
  40287f:	45 84 ed             	test   %r13b,%r13b
  402882:	0f 84 82 00 00 00    	je     40290a <ini_parse_stream+0x3ea>
  402888:	31 c0                	xor    %eax,%eax
  40288a:	44 89 e9             	mov    %r13d,%ecx
  40288d:	eb 1e                	jmp    4028ad <ini_parse_stream+0x38d>
  40288f:	90                   	nop
  402890:	e8 7b f9 ff ff       	call   402210 <__ctype_b_loc@plt>
  402895:	48 8b 00             	mov    (%rax),%rax
  402898:	0f b7 04 68          	movzwl (%rax,%rbp,2),%eax
  40289c:	25 00 20 00 00       	and    $0x2000,%eax
  4028a1:	41 0f b6 0e          	movzbl (%r14),%ecx
  4028a5:	49 83 c6 01          	add    $0x1,%r14
  4028a9:	84 c9                	test   %cl,%cl
  4028ab:	74 2f                	je     4028dc <ini_parse_stream+0x3bc>
  4028ad:	0f b6 e9             	movzbl %cl,%ebp
  4028b0:	85 c0                	test   %eax,%eax
  4028b2:	74 dc                	je     402890 <ini_parse_stream+0x370>
  4028b4:	b8 01 00 00 00       	mov    $0x1,%eax
  4028b9:	89 e9                	mov    %ebp,%ecx
  4028bb:	48 d3 e0             	shl    %cl,%rax
  4028be:	40 80 fd 3f          	cmp    $0x3f,%bpl
  4028c2:	77 cc                	ja     402890 <ini_parse_stream+0x370>
  4028c4:	48 b9 01 00 00 00 00 	movabs $0x800000000000001,%rcx
  4028cb:	00 00 08 
  4028ce:	48 21 c8             	and    %rcx,%rax
  4028d1:	74 bd                	je     402890 <ini_parse_stream+0x370>
  4028d3:	41 c6 46 ff 00       	movb   $0x0,-0x1(%r14)
  4028d8:	45 8a 2c 24          	mov    (%r12),%r13b
  4028dc:	45 84 ed             	test   %r13b,%r13b
  4028df:	0f 84 25 00 00 00    	je     40290a <ini_parse_stream+0x3ea>
  4028e5:	e8 26 f9 ff ff       	call   402210 <__ctype_b_loc@plt>
  4028ea:	48 8b 00             	mov    (%rax),%rax
  4028ed:	0f 1f 00             	nopl   (%rax)
  4028f0:	41 0f b6 cd          	movzbl %r13b,%ecx
  4028f4:	f6 44 48 01 20       	testb  $0x20,0x1(%rax,%rcx,2)
  4028f9:	74 0f                	je     40290a <ini_parse_stream+0x3ea>
  4028fb:	45 0f b6 6c 24 01    	movzbl 0x1(%r12),%r13d
  402901:	49 83 c4 01          	add    $0x1,%r12
  402905:	45 84 ed             	test   %r13b,%r13b
  402908:	75 e6                	jne    4028f0 <ini_parse_stream+0x3d0>
  40290a:	4c 89 e7             	mov    %r12,%rdi
  40290d:	e8 be f7 ff ff       	call   4020d0 <strlen@plt>
  402912:	48 85 c0             	test   %rax,%rax
  402915:	0f 8e 30 00 00 00    	jle    40294b <ini_parse_stream+0x42b>
  40291b:	48 89 c5             	mov    %rax,%rbp
  40291e:	4c 01 e5             	add    %r12,%rbp
  402921:	e8 ea f8 ff ff       	call   402210 <__ctype_b_loc@plt>
  402926:	66 2e 0f 1f 84 00 00 	cs nopw 0x0(%rax,%rax,1)
  40292d:	00 00 00 
  402930:	48 8b 08             	mov    (%rax),%rcx
  402933:	0f b6 55 ff          	movzbl -0x1(%rbp),%edx
  402937:	f6 44 51 01 20       	testb  $0x20,0x1(%rcx,%rdx,2)
  40293c:	74 0d                	je     40294b <ini_parse_stream+0x42b>
  40293e:	c6 45 ff 00          	movb   $0x0,-0x1(%rbp)
  402942:	48 83 c5 ff          	add    $0xffffffffffffffff,%rbp
  402946:	4c 39 e5             	cmp    %r12,%rbp
  402949:	77 e5                	ja     402930 <ini_parse_stream+0x410>
  40294b:	48 8d 7c 24 30       	lea    0x30(%rsp),%rdi
  402950:	48 89 de             	mov    %rbx,%rsi
  402953:	e8 a8 00 00 00       	call   402a00 <strncpy0>
  402958:	48 8b 7c 24 18       	mov    0x18(%rsp),%rdi
  40295d:	48 8d 74 24 70       	lea    0x70(%rsp),%rsi
  402962:	48 89 da             	mov    %rbx,%rdx
  402965:	4c 89 e1             	mov    %r12,%rcx
  402968:	45 89 f8             	mov    %r15d,%r8d
  40296b:	4c 8b 64 24 10       	mov    0x10(%rsp),%r12
  402970:	41 ff d4             	call   *%r12
  402973:	8b 4c 24 0c          	mov    0xc(%rsp),%ecx
  402977:	09 c8                	or     %ecx,%eax
  402979:	41 0f 44 cf          	cmove  %r15d,%ecx
  40297d:	89 4c 24 0c          	mov    %ecx,0xc(%rsp)
  402981:	eb 31                	jmp    4029b4 <ini_parse_stream+0x494>
  402983:	41 80 fe 5d          	cmp    $0x5d,%r14b
  402987:	75 18                	jne    4029a1 <ini_parse_stream+0x481>
  402989:	c6 43 ff 00          	movb   $0x0,-0x1(%rbx)
  40298d:	48 8d 7c 24 70       	lea    0x70(%rsp),%rdi
  402992:	4c 89 e6             	mov    %r12,%rsi
  402995:	e8 66 00 00 00       	call   402a00 <strncpy0>
  40299a:	c6 44 24 30 00       	movb   $0x0,0x30(%rsp)
  40299f:	eb 0e                	jmp    4029af <ini_parse_stream+0x48f>
  4029a1:	8b 44 24 0c          	mov    0xc(%rsp),%eax
  4029a5:	85 c0                	test   %eax,%eax
  4029a7:	41 0f 44 c7          	cmove  %r15d,%eax
  4029ab:	89 44 24 0c          	mov    %eax,0xc(%rsp)
  4029af:	4c 8b 64 24 10       	mov    0x10(%rsp),%r12
  4029b4:	48 8d ac 24 b0 00 00 	lea    0xb0(%rsp),%rbp
  4029bb:	00 
  4029bc:	e9 25 fc ff ff       	jmp    4025e6 <ini_parse_stream+0xc6>
  4029c1:	c7 44 24 0c 00 00 00 	movl   $0x0,0xc(%rsp)
  4029c8:	00 
  4029c9:	64 48 8b 04 25 28 00 	mov    %fs:0x28,%rax
  4029d0:	00 00 
  4029d2:	48 3b 84 24 80 01 00 	cmp    0x180(%rsp),%rax
  4029d9:	00 
  4029da:	75 16                	jne    4029f2 <ini_parse_stream+0x4d2>
  4029dc:	8b 44 24 0c          	mov    0xc(%rsp),%eax
  4029e0:	48 81 c4 88 01 00 00 	add    $0x188,%rsp
  4029e7:	5b                   	pop    %rbx
  4029e8:	41 5c                	pop    %r12
  4029ea:	41 5d                	pop    %r13
  4029ec:	41 5e                	pop    %r14
  4029ee:	41 5f                	pop    %r15
  4029f0:	5d                   	pop    %rbp
  4029f1:	c3                   	ret    
  4029f2:	e8 49 f8 ff ff       	call   402240 <__stack_chk_fail@plt>
  4029f7:	66 0f 1f 84 00 00 00 	nopw   0x0(%rax,%rax,1)
  4029fe:	00 00 

0000000000402a00 <strncpy0>:
  402a00:	8a 06                	mov    (%rsi),%al
  402a02:	84 c0                	test   %al,%al
  402a04:	0f 84 ac 02 00 00    	je     402cb6 <strncpy0+0x2b6>
  402a0a:	88 07                	mov    %al,(%rdi)
  402a0c:	8a 46 01             	mov    0x1(%rsi),%al
  402a0f:	84 c0                	test   %al,%al
  402a11:	0f 84 a6 02 00 00    	je     402cbd <strncpy0+0x2bd>
  402a17:	88 47 01             	mov    %al,0x1(%rdi)
  402a1a:	8a 46 02             	mov    0x2(%rsi),%al
  402a1d:	84 c0                	test   %al,%al
  402a1f:	0f 84 a2 02 00 00    	je     402cc7 <strncpy0+0x2c7>
  402a25:	88 47 02             	mov    %al,0x2(%rdi)
  402a28:	8a 46 03             	mov    0x3(%rsi),%al
  402a2b:	84 c0                	test   %al,%al
  402a2d:	0f 84 9e 02 00 00    	je     402cd1 <strncpy0+0x2d1>
  402a33:	88 47 03             	mov    %al,0x3(%rdi)
  402a36:	8a 46 04             	mov    0x4(%rsi),%al
  402a39:	84 c0                	test   %al,%al
  402a3b:	0f 84 9a 02 00 00    	je     402cdb <strncpy0+0x2db>
  402a41:	88 47 04             	mov    %al,0x4(%rdi)
  402a44:	8a 46 05             	mov    0x5(%rsi),%al
  402a47:	84 c0                	test   %al,%al
  402a49:	0f 84 96 02 00 00    	je     402ce5 <strncpy0+0x2e5>
  402a4f:	88 47 05             	mov    %al,0x5(%rdi)
  402a52:	8a 46 06             	mov    0x6(%rsi),%al
  402a55:	84 c0                	test   %al,%al
  402a57:	0f 84 92 02 00 00    	je     402cef <strncpy0+0x2ef>
  402a5d:	88 47 06             	mov    %al,0x6(%rdi)
  402a60:	8a 46 07             	mov    0x7(%rsi),%al
  402a63:	84 c0                	test   %al,%al
  402a65:	0f 84 8e 02 00 00    	je     402cf9 <strncpy0+0x2f9>
  402a6b:	88 47 07             	mov    %al,0x7(%rdi)
  402a6e:	8a 46 08             	mov    0x8(%rsi),%al
  402a71:	84 c0                	test   %al,%al
  402a73:	0f 84 8a 02 00 00    	je     402d03 <strncpy0+0x303>
  402a79:	88 47 08             	mov    %al,0x8(%rdi)
  402a7c:	8a 46 09             	mov    0x9(%rsi),%al
  402a7f:	84 c0                	test   %al,%al
  402a81:	0f 84 86 02 00 00    	je     402d0d <strncpy0+0x30d>
  402a87:	88 47 09             	mov    %al,0x9(%rdi)
  402a8a:	8a 46 0a             	mov    0xa(%rsi),%al
  402a8d:	84 c0                	test   %al,%al
  402a8f:	0f 84 82 02 00 00    	je     402d17 <strncpy0+0x317>
  402a95:	88 47 0a             	mov    %al,0xa(%rdi)
  402a98:	8a 46 0b             	mov    0xb(%rsi),%al
  402a9b:	84 c0                	test   %al,%al
  402a9d:	0f 84 7e 02 00 00    	je     402d21 <strncpy0+0x321>
  402aa3:	88 47 0b             	mov    %al,0xb(%rdi)
  402aa6:	8a 46 0c             	mov    0xc(%rsi),%al
  402aa9:	84 c0                	test   %al,%al
  402aab:	0f 84 7a 02 00 00    	je     402d2b <strncpy0+0x32b>
  402ab1:	88 47 0c             	mov    %al,0xc(%rdi)
  402ab4:	8a 46 0d             	mov    0xd(%rsi),%al
  402ab7:	84 c0                	test   %al,%al
  402ab9:	0f 84 76 02 00 00    	je     402d35 <strncpy0+0x335>
  402abf:	88 47 0d             	mov    %al,0xd(%rdi)
  402ac2:	8a 46 0e             	mov    0xe(%rsi),%al
  402ac5:	84 c0                	test   %al,%al
  402ac7:	0f 84 72 02 00 00    	je     402d3f <strncpy0+0x33f>
  402acd:	88 47 0e             	mov    %al,0xe(%rdi)
  402ad0:	8a 46 0f             	mov    0xf(%rsi),%al
  402ad3:	84 c0                	test   %al,%al
  402ad5:	0f 84 6e 02 00 00    	je     402d49 <strncpy0+0x349>
  402adb:	88 47 0f             	mov    %al,0xf(%rdi)
  402ade:	8a 46 10             	mov    0x10(%rsi),%al
  402ae1:	84 c0                	test   %al,%al
  402ae3:	0f 84 6a 02 00 00    	je     402d53 <strncpy0+0x353>
  402ae9:	88 47 10             	mov    %al,0x10(%rdi)
  402aec:	8a 46 11             	mov    0x11(%rsi),%al
  402aef:	84 c0                	test   %al,%al
  402af1:	0f 84 66 02 00 00    	je     402d5d <strncpy0+0x35d>
  402af7:	88 47 11             	mov    %al,0x11(%rdi)
  402afa:	8a 46 12             	mov    0x12(%rsi),%al
  402afd:	84 c0                	test   %al,%al
  402aff:	0f 84 62 02 00 00    	je     402d67 <strncpy0+0x367>
  402b05:	88 47 12             	mov    %al,0x12(%rdi)
  402b08:	8a 46 13             	mov    0x13(%rsi),%al
  402b0b:	84 c0                	test   %al,%al
  402b0d:	0f 84 5e 02 00 00    	je     402d71 <strncpy0+0x371>
  402b13:	88 47 13             	mov    %al,0x13(%rdi)
  402b16:	8a 46 14             	mov    0x14(%rsi),%al
  402b19:	84 c0                	test   %al,%al
  402b1b:	0f 84 5a 02 00 00    	je     402d7b <strncpy0+0x37b>
  402b21:	88 47 14             	mov    %al,0x14(%rdi)
  402b24:	8a 46 15             	mov    0x15(%rsi),%al
  402b27:	84 c0                	test   %al,%al
  402b29:	0f 84 56 02 00 00    	je     402d85 <strncpy0+0x385>
  402b2f:	88 47 15             	mov    %al,0x15(%rdi)
  402b32:	8a 46 16             	mov    0x16(%rsi),%al
  402b35:	84 c0                	test   %al,%al
  402b37:	0f 84 52 02 00 00    	je     402d8f <strncpy0+0x38f>
  402b3d:	88 47 16             	mov    %al,0x16(%rdi)
  402b40:	8a 46 17             	mov    0x17(%rsi),%al
  402b43:	84 c0                	test   %al,%al
  402b45:	0f 84 4e 02 00 00    	je     402d99 <strncpy0+0x399>
  402b4b:	88 47 17             	mov    %al,0x17(%rdi)
  402b4e:	8a 46 18             	mov    0x18(%rsi),%al
  402b51:	84 c0                	test   %al,%al
  402b53:	0f 84 4a 02 00 00    	je     402da3 <strncpy0+0x3a3>
  402b59:	88 47 18             	mov    %al,0x18(%rdi)
  402b5c:	8a 46 19             	mov    0x19(%rsi),%al
  402b5f:	84 c0                	test   %al,%al
  402b61:	0f 84 46 02 00 00    	je     402dad <strncpy0+0x3ad>
  402b67:	88 47 19             	mov    %al,0x19(%rdi)
  402b6a:	8a 46 1a             	mov    0x1a(%rsi),%al
  402b6d:	84 c0                	test   %al,%al
  402b6f:	0f 84 42 02 00 00    	je     402db7 <strncpy0+0x3b7>
  402b75:	88 47 1a             	mov    %al,0x1a(%rdi)
  402b78:	8a 46 1b             	mov    0x1b(%rsi),%al
  402b7b:	84 c0                	test   %al,%al
  402b7d:	0f 84 3e 02 00 00    	je     402dc1 <strncpy0+0x3c1>
  402b83:	88 47 1b             	mov    %al,0x1b(%rdi)
  402b86:	8a 46 1c             	mov    0x1c(%rsi),%al
  402b89:	84 c0                	test   %al,%al
  402b8b:	0f 84 3a 02 00 00    	je     402dcb <strncpy0+0x3cb>
  402b91:	88 47 1c             	mov    %al,0x1c(%rdi)
  402b94:	8a 46 1d             	mov    0x1d(%rsi),%al
  402b97:	84 c0                	test   %al,%al
  402b99:	0f 84 36 02 00 00    	je     402dd5 <strncpy0+0x3d5>
  402b9f:	88 47 1d             	mov    %al,0x1d(%rdi)
  402ba2:	8a 46 1e             	mov    0x1e(%rsi),%al
  402ba5:	84 c0                	test   %al,%al
  402ba7:	0f 84 32 02 00 00    	je     402ddf <strncpy0+0x3df>
  402bad:	88 47 1e             	mov    %al,0x1e(%rdi)
  402bb0:	8a 46 1f             	mov    0x1f(%rsi),%al
  402bb3:	84 c0                	test   %al,%al
  402bb5:	0f 84 2e 02 00 00    	je     402de9 <strncpy0+0x3e9>
  402bbb:	88 47 1f             	mov    %al,0x1f(%rdi)
  402bbe:	8a 46 20             	mov    0x20(%rsi),%al
  402bc1:	84 c0                	test   %al,%al
  402bc3:	0f 84 2a 02 00 00    	je     402df3 <strncpy0+0x3f3>
  402bc9:	88 47 20             	mov    %al,0x20(%rdi)
  402bcc:	8a 46 21             	mov    0x21(%rsi),%al
  402bcf:	84 c0                	test   %al,%al
  402bd1:	0f 84 26 02 00 00    	je     402dfd <strncpy0+0x3fd>
  402bd7:	88 47 21             	mov    %al,0x21(%rdi)
  402bda:	8a 46 22             	mov    0x22(%rsi),%al
  402bdd:	84 c0                	test   %al,%al
  402bdf:	0f 84 22 02 00 00    	je     402e07 <strncpy0+0x407>
  402be5:	88 47 22             	mov    %al,0x22(%rdi)
  402be8:	8a 46 23             	mov    0x23(%rsi),%al
  402beb:	84 c0                	test   %al,%al
  402bed:	0f 84 1e 02 00 00    	je     402e11 <strncpy0+0x411>
  402bf3:	88 47 23             	mov    %al,0x23(%rdi)
  402bf6:	8a 46 24             	mov    0x24(%rsi),%al
  402bf9:	84 c0                	test   %al,%al
  402bfb:	0f 84 1a 02 00 00    	je     402e1b <strncpy0+0x41b>
  402c01:	88 47 24             	mov    %al,0x24(%rdi)
  402c04:	8a 46 25             	mov    0x25(%rsi),%al
  402c07:	84 c0                	test   %al,%al
  402c09:	0f 84 16 02 00 00    	je     402e25 <strncpy0+0x425>
  402c0f:	88 47 25             	mov    %al,0x25(%rdi)
  402c12:	8a 46 26             	mov    0x26(%rsi),%al
  402c15:	84 c0                	test   %al,%al
  402c17:	0f 84 12 02 00 00    	je     402e2f <strncpy0+0x42f>
  402c1d:	88 47 26             	mov    %al,0x26(%rdi)
  402c20:	8a 46 27             	mov    0x27(%rsi),%al
  402c23:	84 c0                	test   %al,%al
  402c25:	0f 84 0e 02 00 00    	je     402e39 <strncpy0+0x439>
  402c2b:	88 47 27             	mov    %al,0x27(%rdi)
  402c2e:	8a 46 28             	mov    0x28(%rsi),%al
  402c31:	84 c0                	test   %al,%al
  402c33:	0f 84 0a 02 00 00    	je     402e43 <strncpy0+0x443>
  402c39:	88 47 28             	mov    %al,0x28(%rdi)
  402c3c:	8a 46 29             	mov    0x29(%rsi),%al
  402c3f:	84 c0                	test   %al,%al
  402c41:	0f 84 06 02 00 00    	je     402e4d <strncpy0+0x44d>
  402c47:	88 47 29             	mov    %al,0x29(%rdi)
  402c4a:	8a 46 2a             	mov    0x2a(%rsi),%al
  402c4d:	84 c0                	test   %al,%al
  402c4f:	0f 84 02 02 00 00    	je     402e57 <strncpy0+0x457>
  402c55:	88 47 2a             	mov    %al,0x2a(%rdi)
  402c58:	8a 46 2b             	mov    0x2b(%rsi),%al
  402c5b:	84 c0                	test   %al,%al
  402c5d:	0f 84 fe 01 00 00    	je     402e61 <strncpy0+0x461>
  402c63:	88 47 2b             	mov    %al,0x2b(%rdi)
  402c66:	8a 46 2c             	mov    0x2c(%rsi),%al
  402c69:	84 c0                	test   %al,%al
  402c6b:	0f 84 fa 01 00 00    	je     402e6b <strncpy0+0x46b>
  402c71:	88 47 2c             	mov    %al,0x2c(%rdi)
  402c74:	8a 46 2d             	mov    0x2d(%rsi),%al
  402c77:	84 c0                	test   %al,%al
  402c79:	0f 84 f6 01 00 00    	je     402e75 <strncpy0+0x475>
  402c7f:	88 47 2d             	mov    %al,0x2d(%rdi)
  402c82:	8a 46 2e             	mov    0x2e(%rsi),%al
  402c85:	84 c0                	test   %al,%al
  402c87:	0f 84 f2 01 00 00    	je     402e7f <strncpy0+0x47f>
  402c8d:	88 47 2e             	mov    %al,0x2e(%rdi)
  402c90:	8a 46 2f             	mov    0x2f(%rsi),%al
  402c93:	84 c0                	test   %al,%al
  402c95:	0f 84 ee 01 00 00    	je     402e89 <strncpy0+0x489>
  402c9b:	88 47 2f             	mov    %al,0x2f(%rdi)
  402c9e:	8a 46 30             	mov    0x30(%rsi),%al
  402ca1:	84 c0                	test   %al,%al
  402ca3:	0f 84 ea 01 00 00    	je     402e93 <strncpy0+0x493>
  402ca9:	88 47 30             	mov    %al,0x30(%rdi)
  402cac:	b8 31 00 00 00       	mov    $0x31,%eax
  402cb1:	c6 04 07 00          	movb   $0x0,(%rdi,%rax,1)
  402cb5:	c3                   	ret    
  402cb6:	31 c0                	xor    %eax,%eax
  402cb8:	c6 04 07 00          	movb   $0x0,(%rdi,%rax,1)
  402cbc:	c3                   	ret    
  402cbd:	b8 01 00 00 00       	mov    $0x1,%eax
  402cc2:	c6 04 07 00          	movb   $0x0,(%rdi,%rax,1)
  402cc6:	c3                   	ret    
  402cc7:	b8 02 00 00 00       	mov    $0x2,%eax
  402ccc:	c6 04 07 00          	movb   $0x0,(%rdi,%rax,1)
  402cd0:	c3                   	ret    
  402cd1:	b8 03 00 00 00       	mov    $0x3,%eax
  402cd6:	c6 04 07 00          	movb   $0x0,(%rdi,%rax,1)
  402cda:	c3                   	ret    
  402cdb:	b8 04 00 00 00       	mov    $0x4,%eax
  402ce0:	c6 04 07 00          	movb   $0x0,(%rdi,%rax,1)
  402ce4:	c3                   	ret    
  402ce5:	b8 05 00 00 00       	mov    $0x5,%eax
  402cea:	c6 04 07 00          	movb   $0x0,(%rdi,%rax,1)
  402cee:	c3                   	ret    
  402cef:	b8 06 00 00 00       	mov    $0x6,%eax
  402cf4:	c6 04 07 00          	movb   $0x0,(%rdi,%rax,1)
  402cf8:	c3                   	ret    
  402cf9:	b8 07 00 00 00       	mov    $0x7,%eax
  402cfe:	c6 04 07 00          	movb   $0x0,(%rdi,%rax,1)
  402d02:	c3                   	ret    
  402d03:	b8 08 00 00 00       	mov    $0x8,%eax
  402d08:	c6 04 07 00          	movb   $0x0,(%rdi,%rax,1)
  402d0c:	c3                   	ret    
  402d0d:	b8 09 00 00 00       	mov    $0x9,%eax
  402d12:	c6 04 07 00          	movb   $0x0,(%rdi,%rax,1)
  402d16:	c3                   	ret    
  402d17:	b8 0a 00 00 00       	mov    $0xa,%eax
  402d1c:	c6 04 07 00          	movb   $0x0,(%rdi,%rax,1)
  402d20:	c3                   	ret    
  402d21:	b8 0b 00 00 00       	mov    $0xb,%eax
  402d26:	c6 04 07 00          	movb   $0x0,(%rdi,%rax,1)
  402d2a:	c3                   	ret    
  402d2b:	b8 0c 00 00 00       	mov    $0xc,%eax
  402d30:	c6 04 07 00          	movb   $0x0,(%rdi,%rax,1)
  402d34:	c3                   	ret    
  402d35:	b8 0d 00 00 00       	mov    $0xd,%eax
  402d3a:	c6 04 07 00          	movb   $0x0,(%rdi,%rax,1)
  402d3e:	c3                   	ret    
  402d3f:	b8 0e 00 00 00       	mov    $0xe,%eax
  402d44:	c6 04 07 00          	movb   $0x0,(%rdi,%rax,1)
  402d48:	c3                   	ret    
  402d49:	b8 0f 00 00 00       	mov    $0xf,%eax
  402d4e:	c6 04 07 00          	movb   $0x0,(%rdi,%rax,1)
  402d52:	c3                   	ret    
  402d53:	b8 10 00 00 00       	mov    $0x10,%eax
  402d58:	c6 04 07 00          	movb   $0x0,(%rdi,%rax,1)
  402d5c:	c3                   	ret    
  402d5d:	b8 11 00 00 00       	mov    $0x11,%eax
  402d62:	c6 04 07 00          	movb   $0x0,(%rdi,%rax,1)
  402d66:	c3                   	ret    
  402d67:	b8 12 00 00 00       	mov    $0x12,%eax
  402d6c:	c6 04 07 00          	movb   $0x0,(%rdi,%rax,1)
  402d70:	c3                   	ret    
  402d71:	b8 13 00 00 00       	mov    $0x13,%eax
  402d76:	c6 04 07 00          	movb   $0x0,(%rdi,%rax,1)
  402d7a:	c3                   	ret    
  402d7b:	b8 14 00 00 00       	mov    $0x14,%eax
  402d80:	c6 04 07 00          	movb   $0x0,(%rdi,%rax,1)
  402d84:	c3                   	ret    
  402d85:	b8 15 00 00 00       	mov    $0x15,%eax
  402d8a:	c6 04 07 00          	movb   $0x0,(%rdi,%rax,1)
  402d8e:	c3                   	ret    
  402d8f:	b8 16 00 00 00       	mov    $0x16,%eax
  402d94:	c6 04 07 00          	movb   $0x0,(%rdi,%rax,1)
  402d98:	c3                   	ret    
  402d99:	b8 17 00 00 00       	mov    $0x17,%eax
  402d9e:	c6 04 07 00          	movb   $0x0,(%rdi,%rax,1)
  402da2:	c3                   	ret    
  402da3:	b8 18 00 00 00       	mov    $0x18,%eax
  402da8:	c6 04 07 00          	movb   $0x0,(%rdi,%rax,1)
  402dac:	c3                   	ret    
  402dad:	b8 19 00 00 00       	mov    $0x19,%eax
  402db2:	c6 04 07 00          	movb   $0x0,(%rdi,%rax,1)
  402db6:	c3                   	ret    
  402db7:	b8 1a 00 00 00       	mov    $0x1a,%eax
  402dbc:	c6 04 07 00          	movb   $0x0,(%rdi,%rax,1)
  402dc0:	c3                   	ret    
  402dc1:	b8 1b 00 00 00       	mov    $0x1b,%eax
  402dc6:	c6 04 07 00          	movb   $0x0,(%rdi,%rax,1)
  402dca:	c3                   	ret    
  402dcb:	b8 1c 00 00 00       	mov    $0x1c,%eax
  402dd0:	c6 04 07 00          	movb   $0x0,(%rdi,%rax,1)
  402dd4:	c3                   	ret    
  402dd5:	b8 1d 00 00 00       	mov    $0x1d,%eax
  402dda:	c6 04 07 00          	movb   $0x0,(%rdi,%rax,1)
  402dde:	c3                   	ret    
  402ddf:	b8 1e 00 00 00       	mov    $0x1e,%eax
  402de4:	c6 04 07 00          	movb   $0x0,(%rdi,%rax,1)
  402de8:	c3                   	ret    
  402de9:	b8 1f 00 00 00       	mov    $0x1f,%eax
  402dee:	c6 04 07 00          	movb   $0x0,(%rdi,%rax,1)
  402df2:	c3                   	ret    
  402df3:	b8 20 00 00 00       	mov    $0x20,%eax
  402df8:	c6 04 07 00          	movb   $0x0,(%rdi,%rax,1)
  402dfc:	c3                   	ret    
  402dfd:	b8 21 00 00 00       	mov    $0x21,%eax
  402e02:	c6 04 07 00          	movb   $0x0,(%rdi,%rax,1)
  402e06:	c3                   	ret    
  402e07:	b8 22 00 00 00       	mov    $0x22,%eax
  402e0c:	c6 04 07 00          	movb   $0x0,(%rdi,%rax,1)
  402e10:	c3                   	ret    
  402e11:	b8 23 00 00 00       	mov    $0x23,%eax
  402e16:	c6 04 07 00          	movb   $0x0,(%rdi,%rax,1)
  402e1a:	c3                   	ret    
  402e1b:	b8 24 00 00 00       	mov    $0x24,%eax
  402e20:	c6 04 07 00          	movb   $0x0,(%rdi,%rax,1)
  402e24:	c3                   	ret    
  402e25:	b8 25 00 00 00       	mov    $0x25,%eax
  402e2a:	c6 04 07 00          	movb   $0x0,(%rdi,%rax,1)
  402e2e:	c3                   	ret    
  402e2f:	b8 26 00 00 00       	mov    $0x26,%eax
  402e34:	c6 04 07 00          	movb   $0x0,(%rdi,%rax,1)
  402e38:	c3                   	ret    
  402e39:	b8 27 00 00 00       	mov    $0x27,%eax
  402e3e:	c6 04 07 00          	movb   $0x0,(%rdi,%rax,1)
  402e42:	c3                   	ret    
  402e43:	b8 28 00 00 00       	mov    $0x28,%eax
  402e48:	c6 04 07 00          	movb   $0x0,(%rdi,%rax,1)
  402e4c:	c3                   	ret    
  402e4d:	b8 29 00 00 00       	mov    $0x29,%eax
  402e52:	c6 04 07 00          	movb   $0x0,(%rdi,%rax,1)
  402e56:	c3                   	ret    
  402e57:	b8 2a 00 00 00       	mov    $0x2a,%eax
  402e5c:	c6 04 07 00          	movb   $0x0,(%rdi,%rax,1)
  402e60:	c3                   	ret    
  402e61:	b8 2b 00 00 00       	mov    $0x2b,%eax
  402e66:	c6 04 07 00          	movb   $0x0,(%rdi,%rax,1)
  402e6a:	c3                   	ret    
  402e6b:	b8 2c 00 00 00       	mov    $0x2c,%eax
  402e70:	c6 04 07 00          	movb   $0x0,(%rdi,%rax,1)
  402e74:	c3                   	ret    
  402e75:	b8 2d 00 00 00       	mov    $0x2d,%eax
  402e7a:	c6 04 07 00          	movb   $0x0,(%rdi,%rax,1)
  402e7e:	c3                   	ret    
  402e7f:	b8 2e 00 00 00       	mov    $0x2e,%eax
  402e84:	c6 04 07 00          	movb   $0x0,(%rdi,%rax,1)
  402e88:	c3                   	ret    
  402e89:	b8 2f 00 00 00       	mov    $0x2f,%eax
  402e8e:	c6 04 07 00          	movb   $0x0,(%rdi,%rax,1)
  402e92:	c3                   	ret    
  402e93:	b8 30 00 00 00       	mov    $0x30,%eax
  402e98:	c6 04 07 00          	movb   $0x0,(%rdi,%rax,1)
  402e9c:	c3                   	ret    
  402e9d:	0f 1f 00             	nopl   (%rax)

0000000000402ea0 <ini_parse_file>:
  402ea0:	48 89 d1             	mov    %rdx,%rcx
  402ea3:	48 89 f2             	mov    %rsi,%rdx
  402ea6:	48 89 fe             	mov    %rdi,%rsi
  402ea9:	48 8b 3d 30 b1 00 00 	mov    0xb130(%rip),%rdi        # 40dfe0 <fgets@GLIBC_2.2.5>
  402eb0:	e9 6b f6 ff ff       	jmp    402520 <ini_parse_stream>
  402eb5:	66 2e 0f 1f 84 00 00 	cs nopw 0x0(%rax,%rax,1)
  402ebc:	00 00 00 
  402ebf:	90                   	nop

0000000000402ec0 <ini_parse>:
  402ec0:	55                   	push   %rbp
  402ec1:	41 57                	push   %r15
  402ec3:	41 56                	push   %r14
  402ec5:	53                   	push   %rbx
  402ec6:	50                   	push   %rax
  402ec7:	49 89 d6             	mov    %rdx,%r14
  402eca:	49 89 f7             	mov    %rsi,%r15
  402ecd:	48 8d 35 af 6a 00 00 	lea    0x6aaf(%rip),%rsi        # 409983 <short_opt+0x73>
  402ed4:	e8 87 f3 ff ff       	call   402260 <fopen@plt>
  402ed9:	48 85 c0             	test   %rax,%rax
  402edc:	74 26                	je     402f04 <ini_parse+0x44>
  402ede:	48 89 c3             	mov    %rax,%rbx
  402ee1:	48 8b 3d f8 b0 00 00 	mov    0xb0f8(%rip),%rdi        # 40dfe0 <fgets@GLIBC_2.2.5>
  402ee8:	48 89 c6             	mov    %rax,%rsi
  402eeb:	4c 89 fa             	mov    %r15,%rdx
  402eee:	4c 89 f1             	mov    %r14,%rcx
  402ef1:	e8 2a f6 ff ff       	call   402520 <ini_parse_stream>
  402ef6:	89 c5                	mov    %eax,%ebp
  402ef8:	48 89 df             	mov    %rbx,%rdi
  402efb:	e8 e0 f2 ff ff       	call   4021e0 <fclose@plt>
  402f00:	89 e8                	mov    %ebp,%eax
  402f02:	eb 05                	jmp    402f09 <ini_parse+0x49>
  402f04:	b8 ff ff ff ff       	mov    $0xffffffff,%eax
  402f09:	48 83 c4 08          	add    $0x8,%rsp
  402f0d:	5b                   	pop    %rbx
  402f0e:	41 5e                	pop    %r14
  402f10:	41 5f                	pop    %r15
  402f12:	5d                   	pop    %rbp
  402f13:	c3                   	ret    
  402f14:	66 2e 0f 1f 84 00 00 	cs nopw 0x0(%rax,%rax,1)
  402f1b:	00 00 00 
  402f1e:	66 90                	xchg   %ax,%ax

0000000000402f20 <ini_parse_string>:
  402f20:	41 56                	push   %r14
  402f22:	53                   	push   %rbx
  402f23:	48 83 ec 18          	sub    $0x18,%rsp
  402f27:	49 89 d6             	mov    %rdx,%r14
  402f2a:	48 89 f3             	mov    %rsi,%rbx
  402f2d:	64 48 8b 04 25 28 00 	mov    %fs:0x28,%rax
  402f34:	00 00 
  402f36:	48 89 44 24 10       	mov    %rax,0x10(%rsp)
  402f3b:	48 89 3c 24          	mov    %rdi,(%rsp)
  402f3f:	e8 8c f1 ff ff       	call   4020d0 <strlen@plt>
  402f44:	48 89 44 24 08       	mov    %rax,0x8(%rsp)
  402f49:	48 8d 3d 30 00 00 00 	lea    0x30(%rip),%rdi        # 402f80 <ini_reader_string>
  402f50:	48 89 e6             	mov    %rsp,%rsi
  402f53:	48 89 da             	mov    %rbx,%rdx
  402f56:	4c 89 f1             	mov    %r14,%rcx
  402f59:	e8 c2 f5 ff ff       	call   402520 <ini_parse_stream>
  402f5e:	64 48 8b 0c 25 28 00 	mov    %fs:0x28,%rcx
  402f65:	00 00 
  402f67:	48 3b 4c 24 10       	cmp    0x10(%rsp),%rcx
  402f6c:	75 08                	jne    402f76 <ini_parse_string+0x56>
  402f6e:	48 83 c4 18          	add    $0x18,%rsp
  402f72:	5b                   	pop    %rbx
  402f73:	41 5e                	pop    %r14
  402f75:	c3                   	ret    
  402f76:	e8 c5 f2 ff ff       	call   402240 <__stack_chk_fail@plt>
  402f7b:	0f 1f 44 00 00       	nopl   0x0(%rax,%rax,1)

0000000000402f80 <ini_reader_string>:
  402f80:	53                   	push   %rbx
  402f81:	31 c0                	xor    %eax,%eax
  402f83:	83 fe 02             	cmp    $0x2,%esi
  402f86:	7c 5b                	jl     402fe3 <ini_reader_string+0x63>
  402f88:	48 8b 4a 08          	mov    0x8(%rdx),%rcx
  402f8c:	48 85 c9             	test   %rcx,%rcx
  402f8f:	74 52                	je     402fe3 <ini_reader_string+0x63>
  402f91:	4c 8b 12             	mov    (%rdx),%r10
  402f94:	4c 8d 5f 01          	lea    0x1(%rdi),%r11
  402f98:	48 83 c1 ff          	add    $0xffffffffffffffff,%rcx
  402f9c:	49 83 c2 01          	add    $0x1,%r10
  402fa0:	4d 89 d9             	mov    %r11,%r9
  402fa3:	49 89 c8             	mov    %rcx,%r8
  402fa6:	4c 89 d0             	mov    %r10,%rax
  402fa9:	41 0f b6 4a ff       	movzbl -0x1(%r10),%ecx
  402fae:	41 88 4b ff          	mov    %cl,-0x1(%r11)
  402fb2:	80 f9 0a             	cmp    $0xa,%cl
  402fb5:	74 1e                	je     402fd5 <ini_reader_string+0x55>
  402fb7:	4c 89 c1             	mov    %r8,%rcx
  402fba:	48 83 c1 ff          	add    $0xffffffffffffffff,%rcx
  402fbe:	0f 92 c3             	setb   %bl
  402fc1:	83 fe 03             	cmp    $0x3,%esi
  402fc4:	7c 0f                	jl     402fd5 <ini_reader_string+0x55>
  402fc6:	83 c6 ff             	add    $0xffffffff,%esi
  402fc9:	4d 8d 59 01          	lea    0x1(%r9),%r11
  402fcd:	4c 8d 50 01          	lea    0x1(%rax),%r10
  402fd1:	84 db                	test   %bl,%bl
  402fd3:	75 cb                	jne    402fa0 <ini_reader_string+0x20>
  402fd5:	41 c6 01 00          	movb   $0x0,(%r9)
  402fd9:	48 89 02             	mov    %rax,(%rdx)
  402fdc:	4c 89 42 08          	mov    %r8,0x8(%rdx)
  402fe0:	48 89 f8             	mov    %rdi,%rax
  402fe3:	5b                   	pop    %rbx
  402fe4:	c3                   	ret    
  402fe5:	66 2e 0f 1f 84 00 00 	cs nopw 0x0(%rax,%rax,1)
  402fec:	00 00 00 
  402fef:	90                   	nop

0000000000402ff0 <teavpn_server_tcp_handler>:
  402ff0:	55                   	push   %rbp
  402ff1:	41 57                	push   %r15
  402ff3:	41 56                	push   %r14
  402ff5:	41 55                	push   %r13
  402ff7:	41 54                	push   %r12
  402ff9:	53                   	push   %rbx
  402ffa:	48 81 ec e8 41 00 00 	sub    $0x41e8,%rsp
  403001:	48 89 fb             	mov    %rdi,%rbx
  403004:	64 48 8b 04 25 28 00 	mov    %fs:0x28,%rax
  40300b:	00 00 
  40300d:	48 89 84 24 e0 41 00 	mov    %rax,0x41e0(%rsp)
  403014:	00 
  403015:	48 8d ac 24 88 00 00 	lea    0x88(%rsp),%rbp
  40301c:	00 
  40301d:	ba 68 40 00 00       	mov    $0x4068,%edx
  403022:	48 89 ef             	mov    %rbp,%rdi
  403025:	31 f6                	xor    %esi,%esi
  403027:	e8 f4 f0 ff ff       	call   402120 <memset@plt>
  40302c:	48 89 9c 24 a8 00 00 	mov    %rbx,0xa8(%rsp)
  403033:	00 
  403034:	48 89 2d 7d b2 00 00 	mov    %rbp,0xb27d(%rip)        # 40e2b8 <g_state>
  40303b:	48 8d 1d ee 14 00 00 	lea    0x14ee(%rip),%rbx        # 404530 <handle_interrupt>
  403042:	bf 01 00 00 00       	mov    $0x1,%edi
  403047:	48 89 de             	mov    %rbx,%rsi
  40304a:	e8 21 f2 ff ff       	call   402270 <signal@plt>
  40304f:	bf 02 00 00 00       	mov    $0x2,%edi
  403054:	48 89 de             	mov    %rbx,%rsi
  403057:	e8 14 f2 ff ff       	call   402270 <signal@plt>
  40305c:	bf 0f 00 00 00       	mov    $0xf,%edi
  403061:	48 89 de             	mov    %rbx,%rsi
  403064:	e8 07 f2 ff ff       	call   402270 <signal@plt>
  403069:	bf 03 00 00 00       	mov    $0x3,%edi
  40306e:	48 89 de             	mov    %rbx,%rsi
  403071:	e8 fa f1 ff ff       	call   402270 <signal@plt>
  403076:	be 01 00 00 00       	mov    $0x1,%esi
  40307b:	bf 0d 00 00 00       	mov    $0xd,%edi
  403080:	e8 eb f1 ff ff       	call   402270 <signal@plt>
  403085:	4c 8b a4 24 a8 00 00 	mov    0xa8(%rsp),%r12
  40308c:	00 
  40308d:	41 0f b7 5c 24 42    	movzwl 0x42(%r12),%ebx
  403093:	bf ff ff 00 00       	mov    $0xffff,%edi
  403098:	be 02 00 00 00       	mov    $0x2,%esi
  40309d:	e8 ae f0 ff ff       	call   402150 <calloc@plt>
  4030a2:	48 85 c0             	test   %rax,%rax
  4030a5:	0f 84 be 12 00 00    	je     404369 <teavpn_server_tcp_handler+0x1379>
  4030ab:	66 89 9c 24 98 00 00 	mov    %bx,0x98(%rsp)
  4030b2:	00 
  4030b3:	66 89 9c 24 9a 00 00 	mov    %bx,0x9a(%rsp)
  4030ba:	00 
  4030bb:	48 89 84 24 a0 00 00 	mov    %rax,0xa0(%rsp)
  4030c2:	00 
  4030c3:	66 85 db             	test   %bx,%bx
  4030c6:	0f 84 0b 01 00 00    	je     4031d7 <teavpn_server_tcp_handler+0x1e7>
  4030cc:	0f b7 cb             	movzwl %bx,%ecx
  4030cf:	8d 53 ff             	lea    -0x1(%rbx),%edx
  4030d2:	66 83 fa 07          	cmp    $0x7,%dx
  4030d6:	0f 82 d2 00 00 00    	jb     4031ae <teavpn_server_tcp_handler+0x1be>
  4030dc:	0f b7 d2             	movzwl %dx,%edx
  4030df:	48 83 c2 01          	add    $0x1,%rdx
  4030e3:	89 d6                	mov    %edx,%esi
  4030e5:	83 e6 f8             	and    $0xfffffff8,%esi
  4030e8:	66 0f 6e c3          	movd   %ebx,%xmm0
  4030ec:	f2 0f 70 c0 e0       	pshuflw $0xe0,%xmm0,%xmm0
  4030f1:	66 0f 70 c0 00       	pshufd $0x0,%xmm0,%xmm0
  4030f6:	66 0f fd 05 12 5f 00 	paddw  0x5f12(%rip),%xmm0        # 409010 <_IO_stdin_used+0x10>
  4030fd:	00 
  4030fe:	48 8d 7e f8          	lea    -0x8(%rsi),%rdi
  403102:	48 89 fd             	mov    %rdi,%rbp
  403105:	48 c1 ed 03          	shr    $0x3,%rbp
  403109:	48 83 c5 01          	add    $0x1,%rbp
  40310d:	48 85 ff             	test   %rdi,%rdi
  403110:	74 6c                	je     40317e <teavpn_server_tcp_handler+0x18e>
  403112:	48 89 ef             	mov    %rbp,%rdi
  403115:	48 83 e7 fe          	and    $0xfffffffffffffffe,%rdi
  403119:	48 f7 df             	neg    %rdi
  40311c:	66 0f 76 c9          	pcmpeqd %xmm1,%xmm1
  403120:	66 0f 6f 15 f8 5e 00 	movdqa 0x5ef8(%rip),%xmm2        # 409020 <_IO_stdin_used+0x20>
  403127:	00 
  403128:	66 0f 6f 1d 00 5f 00 	movdqa 0x5f00(%rip),%xmm3        # 409030 <_IO_stdin_used+0x30>
  40312f:	00 
  403130:	66 0f 6f e0          	movdqa %xmm0,%xmm4
  403134:	66 0f fd e1          	paddw  %xmm1,%xmm4
  403138:	66 0f c5 dc 00       	pextrw $0x0,%xmm4,%ebx
  40313d:	66 0f 70 e4 4e       	pshufd $0x4e,%xmm4,%xmm4
  403142:	f2 0f 70 e4 1b       	pshuflw $0x1b,%xmm4,%xmm4
  403147:	f3 0f 70 e4 1b       	pshufhw $0x1b,%xmm4,%xmm4
  40314c:	f3 0f 7f 64 58 f2    	movdqu %xmm4,-0xe(%rax,%rbx,2)
  403152:	66 0f 6f e0          	movdqa %xmm0,%xmm4
  403156:	66 0f fd e2          	paddw  %xmm2,%xmm4
  40315a:	66 0f c5 dc 00       	pextrw $0x0,%xmm4,%ebx
  40315f:	66 0f 70 e4 4e       	pshufd $0x4e,%xmm4,%xmm4
  403164:	f2 0f 70 e4 1b       	pshuflw $0x1b,%xmm4,%xmm4
  403169:	f3 0f 70 e4 1b       	pshufhw $0x1b,%xmm4,%xmm4
  40316e:	f3 0f 7f 64 58 f2    	movdqu %xmm4,-0xe(%rax,%rbx,2)
  403174:	66 0f fd c3          	paddw  %xmm3,%xmm0
  403178:	48 83 c7 02          	add    $0x2,%rdi
  40317c:	75 b2                	jne    403130 <teavpn_server_tcp_handler+0x140>
  40317e:	40 f6 c5 01          	test   $0x1,%bpl
  403182:	74 22                	je     4031a6 <teavpn_server_tcp_handler+0x1b6>
  403184:	66 0f 76 c9          	pcmpeqd %xmm1,%xmm1
  403188:	66 0f fd c1          	paddw  %xmm1,%xmm0
  40318c:	66 0f c5 f8 00       	pextrw $0x0,%xmm0,%edi
  403191:	66 0f 70 c0 4e       	pshufd $0x4e,%xmm0,%xmm0
  403196:	f2 0f 70 c0 1b       	pshuflw $0x1b,%xmm0,%xmm0
  40319b:	f3 0f 70 c0 1b       	pshufhw $0x1b,%xmm0,%xmm0
  4031a0:	f3 0f 7f 44 78 f2    	movdqu %xmm0,-0xe(%rax,%rdi,2)
  4031a6:	48 39 f2             	cmp    %rsi,%rdx
  4031a9:	74 22                	je     4031cd <teavpn_server_tcp_handler+0x1dd>
  4031ab:	48 29 f1             	sub    %rsi,%rcx
  4031ae:	83 c1 ff             	add    $0xffffffff,%ecx
  4031b1:	0f b7 d1             	movzwl %cx,%edx
  4031b4:	48 8d 04 50          	lea    (%rax,%rdx,2),%rax
  4031b8:	0f 1f 84 00 00 00 00 	nopl   0x0(%rax,%rax,1)
  4031bf:	00 
  4031c0:	66 89 08             	mov    %cx,(%rax)
  4031c3:	48 83 c0 fe          	add    $0xfffffffffffffffe,%rax
  4031c7:	66 83 c1 ff          	add    $0xffff,%cx
  4031cb:	72 f3                	jb     4031c0 <teavpn_server_tcp_handler+0x1d0>
  4031cd:	66 c7 84 24 98 00 00 	movw   $0x0,0x98(%rsp)
  4031d4:	00 00 00 
  4031d7:	41 0f b7 5c 24 42    	movzwl 0x42(%r12),%ebx
  4031dd:	0f b7 fb             	movzwl %bx,%edi
  4031e0:	be 80 40 00 00       	mov    $0x4080,%esi
  4031e5:	e8 66 ef ff ff       	call   402150 <calloc@plt>
  4031ea:	48 85 c0             	test   %rax,%rax
  4031ed:	0f 84 76 11 00 00    	je     404369 <teavpn_server_tcp_handler+0x1379>
  4031f3:	66 85 db             	test   %bx,%bx
  4031f6:	74 48                	je     403240 <teavpn_server_tcp_handler+0x250>
  4031f8:	83 c3 ff             	add    $0xffffffff,%ebx
  4031fb:	0f b7 cb             	movzwl %bx,%ecx
  4031fe:	48 69 d1 80 40 00 00 	imul   $0x4080,%rcx,%rdx
  403205:	48 89 c1             	mov    %rax,%rcx
  403208:	48 01 d1             	add    %rdx,%rcx
  40320b:	ba ff ff ff ff       	mov    $0xffffffff,%edx
  403210:	48 89 11             	mov    %rdx,(%rcx)
  403213:	c7 41 08 00 00 00 00 	movl   $0x0,0x8(%rcx)
  40321a:	66 89 59 0c          	mov    %bx,0xc(%rcx)
  40321e:	66 c7 41 0e 5f 00    	movw   $0x5f,0xe(%rcx)
  403224:	48 c7 41 68 00 00 00 	movq   $0x0,0x68(%rcx)
  40322b:	00 
  40322c:	c7 41 4e 00 00 00 00 	movl   $0x0,0x4e(%rcx)
  403233:	48 81 c1 80 bf ff ff 	add    $0xffffffffffffbf80,%rcx
  40323a:	66 83 c3 ff          	add    $0xffff,%bx
  40323e:	72 d0                	jb     403210 <teavpn_server_tcp_handler+0x220>
  403240:	48 89 84 24 b0 00 00 	mov    %rax,0xb0(%rsp)
  403247:	00 
  403248:	bf ff ff 00 00       	mov    $0xffff,%edi
  40324d:	be 02 00 00 00       	mov    $0x2,%esi
  403252:	e8 f9 ee ff ff       	call   402150 <calloc@plt>
  403257:	48 85 c0             	test   %rax,%rax
  40325a:	0f 84 09 11 00 00    	je     404369 <teavpn_server_tcp_handler+0x1379>
  403260:	48 89 c3             	mov    %rax,%rbx
  403263:	ba fe ff 01 00       	mov    $0x1fffe,%edx
  403268:	48 89 c7             	mov    %rax,%rdi
  40326b:	31 f6                	xor    %esi,%esi
  40326d:	e8 ae ee ff ff       	call   402120 <memset@plt>
  403272:	48 89 9c 24 b8 00 00 	mov    %rbx,0xb8(%rsp)
  403279:	00 
  40327a:	bf 00 01 00 00       	mov    $0x100,%edi
  40327f:	be 00 02 00 00       	mov    $0x200,%esi
  403284:	e8 c7 ee ff ff       	call   402150 <calloc@plt>
  403289:	48 85 c0             	test   %rax,%rax
  40328c:	0f 84 d7 10 00 00    	je     404369 <teavpn_server_tcp_handler+0x1379>
  403292:	48 89 c3             	mov    %rax,%rbx
  403295:	ba 00 00 02 00       	mov    $0x20000,%edx
  40329a:	48 89 c7             	mov    %rax,%rdi
  40329d:	31 f6                	xor    %esi,%esi
  40329f:	e8 7c ee ff ff       	call   402120 <memset@plt>
  4032a4:	48 89 9c 24 c0 00 00 	mov    %rbx,0xc0(%rsp)
  4032ab:	00 
  4032ac:	41 0f b7 7c 24 42    	movzwl 0x42(%r12),%edi
  4032b2:	be 02 00 00 00       	mov    $0x2,%esi
  4032b7:	e8 94 ee ff ff       	call   402150 <calloc@plt>
  4032bc:	48 85 c0             	test   %rax,%rax
  4032bf:	0f 84 a4 10 00 00    	je     404369 <teavpn_server_tcp_handler+0x1379>
  4032c5:	66 c7 84 24 d8 00 00 	movw   $0x0,0xd8(%rsp)
  4032cc:	00 00 00 
  4032cf:	48 89 84 24 d0 00 00 	mov    %rax,0xd0(%rsp)
  4032d6:	00 
  4032d7:	48 c7 84 24 88 00 00 	movq   $0xffffffffffffffff,0x88(%rsp)
  4032de:	00 ff ff ff ff 
  4032e3:	c7 84 24 90 00 00 00 	movl   $0xffffffff,0x90(%rsp)
  4032ea:	ff ff ff ff 
  4032ee:	c6 84 24 94 00 00 00 	movb   $0x0,0x94(%rsp)
  4032f5:	00 
  4032f6:	48 c7 84 24 c8 00 00 	movq   $0x0,0xc8(%rsp)
  4032fd:	00 00 00 00 00 
  403302:	49 8b 74 24 18       	mov    0x18(%r12),%rsi
  403307:	48 8d 3d aa 5d 00 00 	lea    0x5daa(%rip),%rdi        # 4090b8 <_IO_stdin_used+0xb8>
  40330e:	31 c0                	xor    %eax,%eax
  403310:	e8 8b 4c 00 00       	call   407fa0 <__pr_notice>
  403315:	49 8b 7c 24 18       	mov    0x18(%r12),%rdi
  40331a:	be 01 10 00 00       	mov    $0x1001,%esi
  40331f:	e8 5c 3a 00 00       	call   406d80 <tun_alloc>
  403324:	85 c0                	test   %eax,%eax
  403326:	0f 88 f8 0e 00 00    	js     404224 <teavpn_server_tcp_handler+0x1234>
  40332c:	89 c3                	mov    %eax,%ebx
  40332e:	89 c7                	mov    %eax,%edi
  403330:	e8 eb 3b 00 00       	call   406f20 <fd_set_nonblock>
  403335:	85 c0                	test   %eax,%eax
  403337:	0f 88 9b 10 00 00    	js     4043d8 <teavpn_server_tcp_handler+0x13e8>
  40333d:	66 0f ef c0          	pxor   %xmm0,%xmm0
  403341:	66 0f 7f 84 24 30 41 	movdqa %xmm0,0x4130(%rsp)
  403348:	00 00 
  40334a:	66 0f 7f 84 24 20 41 	movdqa %xmm0,0x4120(%rsp)
  403351:	00 00 
  403353:	66 0f 7f 84 24 10 41 	movdqa %xmm0,0x4110(%rsp)
  40335a:	00 00 
  40335c:	66 0f 7f 84 24 00 41 	movdqa %xmm0,0x4100(%rsp)
  403363:	00 00 
  403365:	66 0f 7f 84 24 f0 40 	movdqa %xmm0,0x40f0(%rsp)
  40336c:	00 00 
  40336e:	66 c7 84 24 40 41 00 	movw   $0x0,0x4140(%rsp)
  403375:	00 00 00 
  403378:	4c 8d b4 24 20 41 00 	lea    0x4120(%rsp),%r14
  40337f:	00 
  403380:	4c 8d bc 24 10 41 00 	lea    0x4110(%rsp),%r15
  403387:	00 
  403388:	49 8b 74 24 18       	mov    0x18(%r12),%rsi
  40338d:	48 8d ac 24 f0 40 00 	lea    0x40f0(%rsp),%rbp
  403394:	00 
  403395:	ba 0f 00 00 00       	mov    $0xf,%edx
  40339a:	48 89 ef             	mov    %rbp,%rdi
  40339d:	e8 6e ed ff ff       	call   402110 <strncpy@plt>
  4033a2:	49 8b 74 24 20       	mov    0x20(%r12),%rsi
  4033a7:	ba 0f 00 00 00       	mov    $0xf,%edx
  4033ac:	4c 89 ff             	mov    %r15,%rdi
  4033af:	e8 5c ed ff ff       	call   402110 <strncpy@plt>
  4033b4:	49 8b 74 24 28       	mov    0x28(%r12),%rsi
  4033b9:	ba 0f 00 00 00       	mov    $0xf,%edx
  4033be:	4c 89 f7             	mov    %r14,%rdi
  4033c1:	e8 4a ed ff ff       	call   402110 <strncpy@plt>
  4033c6:	41 0f b7 44 24 10    	movzwl 0x10(%r12),%eax
  4033cc:	66 89 84 24 40 41 00 	mov    %ax,0x4140(%rsp)
  4033d3:	00 
  4033d4:	48 89 ef             	mov    %rbp,%rdi
  4033d7:	e8 e4 3b 00 00       	call   406fc0 <teavpn_iface_up>
  4033dc:	84 c0                	test   %al,%al
  4033de:	0f 84 e6 0f 00 00    	je     4043ca <teavpn_server_tcp_handler+0x13da>
  4033e4:	89 9c 24 90 00 00 00 	mov    %ebx,0x90(%rsp)
  4033eb:	48 8b 9c 24 a8 00 00 	mov    0xa8(%rsp),%rbx
  4033f2:	00 
  4033f3:	48 8d 3d 14 5d 00 00 	lea    0x5d14(%rip),%rdi        # 40910e <_IO_stdin_used+0x10e>
  4033fa:	31 c0                	xor    %eax,%eax
  4033fc:	e8 9f 4b 00 00       	call   407fa0 <__pr_notice>
  403401:	bf 02 00 00 00       	mov    $0x2,%edi
  403406:	be 01 08 00 00       	mov    $0x801,%esi
  40340b:	ba 06 00 00 00       	mov    $0x6,%edx
  403410:	e8 5b ec ff ff       	call   402070 <socket@plt>
  403415:	85 c0                	test   %eax,%eax
  403417:	0f 88 c7 0f 00 00    	js     4043e4 <teavpn_server_tcp_handler+0x13f4>
  40341d:	89 c5                	mov    %eax,%ebp
  40341f:	48 8d 3d 11 5d 00 00 	lea    0x5d11(%rip),%rdi        # 409137 <_IO_stdin_used+0x137>
  403426:	31 c0                	xor    %eax,%eax
  403428:	e8 73 4b 00 00       	call   407fa0 <__pr_notice>
  40342d:	c7 84 24 c0 41 00 00 	movl   $0x1,0x41c0(%rsp)
  403434:	01 00 00 00 
  403438:	48 8d 8c 24 c0 41 00 	lea    0x41c0(%rsp),%rcx
  40343f:	00 
  403440:	89 ef                	mov    %ebp,%edi
  403442:	be 01 00 00 00       	mov    $0x1,%esi
  403447:	ba 02 00 00 00       	mov    $0x2,%edx
  40344c:	41 b8 04 00 00 00    	mov    $0x4,%r8d
  403452:	e8 89 ef ff ff       	call   4023e0 <setsockopt@plt>
  403457:	4c 8d 35 36 5d 00 00 	lea    0x5d36(%rip),%r14        # 409194 <_IO_stdin_used+0x194>
  40345e:	85 c0                	test   %eax,%eax
  403460:	0f 88 c4 0f 00 00    	js     40442a <teavpn_server_tcp_handler+0x143a>
  403466:	c7 84 24 c0 41 00 00 	movl   $0x1,0x41c0(%rsp)
  40346d:	01 00 00 00 
  403471:	48 8d 8c 24 c0 41 00 	lea    0x41c0(%rsp),%rcx
  403478:	00 
  403479:	89 ef                	mov    %ebp,%edi
  40347b:	be 06 00 00 00       	mov    $0x6,%esi
  403480:	ba 01 00 00 00       	mov    $0x1,%edx
  403485:	41 b8 04 00 00 00    	mov    $0x4,%r8d
  40348b:	e8 50 ef ff ff       	call   4023e0 <setsockopt@plt>
  403490:	85 c0                	test   %eax,%eax
  403492:	0f 88 9e 0f 00 00    	js     404436 <teavpn_server_tcp_handler+0x1446>
  403498:	c7 84 24 c0 41 00 00 	movl   $0x1,0x41c0(%rsp)
  40349f:	01 00 00 00 
  4034a3:	48 8d 8c 24 c0 41 00 	lea    0x41c0(%rsp),%rcx
  4034aa:	00 
  4034ab:	89 ef                	mov    %ebp,%edi
  4034ad:	be 01 00 00 00       	mov    $0x1,%esi
  4034b2:	ba 31 00 00 00       	mov    $0x31,%edx
  4034b7:	41 b8 04 00 00 00    	mov    $0x4,%r8d
  4034bd:	e8 1e ef ff ff       	call   4023e0 <setsockopt@plt>
  4034c2:	85 c0                	test   %eax,%eax
  4034c4:	0f 88 7f 0f 00 00    	js     404449 <teavpn_server_tcp_handler+0x1459>
  4034ca:	c7 84 24 c0 41 00 00 	movl   $0x200000,0x41c0(%rsp)
  4034d1:	00 00 20 00 
  4034d5:	48 8d 8c 24 c0 41 00 	lea    0x41c0(%rsp),%rcx
  4034dc:	00 
  4034dd:	89 ef                	mov    %ebp,%edi
  4034df:	be 01 00 00 00       	mov    $0x1,%esi
  4034e4:	ba 21 00 00 00       	mov    $0x21,%edx
  4034e9:	41 b8 04 00 00 00    	mov    $0x4,%r8d
  4034ef:	e8 ec ee ff ff       	call   4023e0 <setsockopt@plt>
  4034f4:	85 c0                	test   %eax,%eax
  4034f6:	0f 88 59 0f 00 00    	js     404455 <teavpn_server_tcp_handler+0x1465>
  4034fc:	c7 84 24 c0 41 00 00 	movl   $0x200000,0x41c0(%rsp)
  403503:	00 00 20 00 
  403507:	48 8d 8c 24 c0 41 00 	lea    0x41c0(%rsp),%rcx
  40350e:	00 
  40350f:	89 ef                	mov    %ebp,%edi
  403511:	be 01 00 00 00       	mov    $0x1,%esi
  403516:	ba 20 00 00 00       	mov    $0x20,%edx
  40351b:	41 b8 04 00 00 00    	mov    $0x4,%r8d
  403521:	e8 ba ee ff ff       	call   4023e0 <setsockopt@plt>
  403526:	85 c0                	test   %eax,%eax
  403528:	0f 88 33 0f 00 00    	js     404461 <teavpn_server_tcp_handler+0x1471>
  40352e:	c7 84 24 c0 41 00 00 	movl   $0x7530,0x41c0(%rsp)
  403535:	30 75 00 00 
  403539:	48 8d 8c 24 c0 41 00 	lea    0x41c0(%rsp),%rcx
  403540:	00 
  403541:	89 ef                	mov    %ebp,%edi
  403543:	be 01 00 00 00       	mov    $0x1,%esi
  403548:	ba 2e 00 00 00       	mov    $0x2e,%edx
  40354d:	41 b8 04 00 00 00    	mov    $0x4,%r8d
  403553:	e8 88 ee ff ff       	call   4023e0 <setsockopt@plt>
  403558:	85 c0                	test   %eax,%eax
  40355a:	0f 88 0d 0f 00 00    	js     40446d <teavpn_server_tcp_handler+0x147d>
  403560:	48 c7 84 24 f8 40 00 	movq   $0x0,0x40f8(%rsp)
  403567:	00 00 00 00 00 
  40356c:	66 c7 84 24 f0 40 00 	movw   $0x2,0x40f0(%rsp)
  403573:	00 02 00 
  403576:	0f b7 43 40          	movzwl 0x40(%rbx),%eax
  40357a:	66 c1 c0 08          	rol    $0x8,%ax
  40357e:	66 89 84 24 f2 40 00 	mov    %ax,0x40f2(%rsp)
  403585:	00 
  403586:	48 8b 7b 38          	mov    0x38(%rbx),%rdi
  40358a:	e8 61 ec ff ff       	call   4021f0 <inet_addr@plt>
  40358f:	89 84 24 f4 40 00 00 	mov    %eax,0x40f4(%rsp)
  403596:	48 8d b4 24 f0 40 00 	lea    0x40f0(%rsp),%rsi
  40359d:	00 
  40359e:	89 ef                	mov    %ebp,%edi
  4035a0:	ba 10 00 00 00       	mov    $0x10,%edx
  4035a5:	e8 a6 ea ff ff       	call   402050 <bind@plt>
  4035aa:	85 c0                	test   %eax,%eax
  4035ac:	0f 88 ee 0e 00 00    	js     4044a0 <teavpn_server_tcp_handler+0x14b0>
  4035b2:	8b 73 44             	mov    0x44(%rbx),%esi
  4035b5:	89 ef                	mov    %ebp,%edi
  4035b7:	e8 94 ec ff ff       	call   402250 <listen@plt>
  4035bc:	85 c0                	test   %eax,%eax
  4035be:	0f 88 f9 0e 00 00    	js     4044bd <teavpn_server_tcp_handler+0x14cd>
  4035c4:	89 ac 24 8c 00 00 00 	mov    %ebp,0x8c(%rsp)
  4035cb:	48 8b 73 38          	mov    0x38(%rbx),%rsi
  4035cf:	0f b7 53 40          	movzwl 0x40(%rbx),%edx
  4035d3:	48 8d 3d a4 5b 00 00 	lea    0x5ba4(%rip),%rdi        # 40917e <_IO_stdin_used+0x17e>
  4035da:	31 c0                	xor    %eax,%eax
  4035dc:	e8 bf 49 00 00       	call   407fa0 <__pr_notice>
  4035e1:	44 8b b4 24 8c 00 00 	mov    0x8c(%rsp),%r14d
  4035e8:	00 
  4035e9:	8b 9c 24 90 00 00 00 	mov    0x90(%rsp),%ebx
  4035f0:	48 8d 3d 24 5c 00 00 	lea    0x5c24(%rip),%rdi        # 40921b <_IO_stdin_used+0x21b>
  4035f7:	31 c0                	xor    %eax,%eax
  4035f9:	e8 a2 49 00 00       	call   407fa0 <__pr_notice>
  4035fe:	48 8b 84 24 a8 00 00 	mov    0xa8(%rsp),%rax
  403605:	00 
  403606:	0f b7 78 42          	movzwl 0x42(%rax),%edi
  40360a:	83 c7 03             	add    $0x3,%edi
  40360d:	e8 de ed ff ff       	call   4023f0 <epoll_create@plt>
  403612:	85 c0                	test   %eax,%eax
  403614:	0f 88 f6 0d 00 00    	js     404410 <teavpn_server_tcp_handler+0x1420>
  40361a:	89 c5                	mov    %eax,%ebp
  40361c:	48 63 d3             	movslq %ebx,%rdx
  40361f:	48 8b 84 24 b8 00 00 	mov    0xb8(%rsp),%rax
  403626:	00 
  403627:	66 c7 04 50 01 00    	movw   $0x1,(%rax,%rdx,2)
  40362d:	c7 84 24 f8 40 00 00 	movl   $0x0,0x40f8(%rsp)
  403634:	00 00 00 00 
  403638:	c7 84 24 f0 40 00 00 	movl   $0x3,0x40f0(%rsp)
  40363f:	03 00 00 00 
  403643:	89 94 24 f4 40 00 00 	mov    %edx,0x40f4(%rsp)
  40364a:	48 8d 8c 24 f0 40 00 	lea    0x40f0(%rsp),%rcx
  403651:	00 
  403652:	89 ef                	mov    %ebp,%edi
  403654:	be 01 00 00 00       	mov    $0x1,%esi
  403659:	e8 62 ec ff ff       	call   4022c0 <epoll_ctl@plt>
  40365e:	85 c0                	test   %eax,%eax
  403660:	0f 88 29 0d 00 00    	js     40438f <teavpn_server_tcp_handler+0x139f>
  403666:	49 63 d6             	movslq %r14d,%rdx
  403669:	48 8b 84 24 b8 00 00 	mov    0xb8(%rsp),%rax
  403670:	00 
  403671:	66 c7 04 50 02 00    	movw   $0x2,(%rax,%rdx,2)
  403677:	c7 84 24 f8 40 00 00 	movl   $0x0,0x40f8(%rsp)
  40367e:	00 00 00 00 
  403682:	c7 84 24 f0 40 00 00 	movl   $0x3,0x40f0(%rsp)
  403689:	03 00 00 00 
  40368d:	89 94 24 f4 40 00 00 	mov    %edx,0x40f4(%rsp)
  403694:	48 8d 8c 24 f0 40 00 	lea    0x40f0(%rsp),%rcx
  40369b:	00 
  40369c:	89 ef                	mov    %ebp,%edi
  40369e:	be 01 00 00 00       	mov    $0x1,%esi
  4036a3:	e8 18 ec ff ff       	call   4022c0 <epoll_ctl@plt>
  4036a8:	85 c0                	test   %eax,%eax
  4036aa:	0f 88 df 0c 00 00    	js     40438f <teavpn_server_tcp_handler+0x139f>
  4036b0:	89 ac 24 88 00 00 00 	mov    %ebp,0x88(%rsp)
  4036b7:	48 8d 3d 92 59 00 00 	lea    0x5992(%rip),%rdi        # 409050 <_IO_stdin_used+0x50>
  4036be:	45 31 e4             	xor    %r12d,%r12d
  4036c1:	31 c0                	xor    %eax,%eax
  4036c3:	e8 d8 48 00 00       	call   407fa0 <__pr_notice>
  4036c8:	8b 84 24 88 00 00 00 	mov    0x88(%rsp),%eax
  4036cf:	89 44 24 4c          	mov    %eax,0x4c(%rsp)
  4036d3:	66 0f ef c0          	pxor   %xmm0,%xmm0
  4036d7:	66 0f 7f 84 24 a0 41 	movdqa %xmm0,0x41a0(%rsp)
  4036de:	00 00 
  4036e0:	66 0f 7f 84 24 90 41 	movdqa %xmm0,0x4190(%rsp)
  4036e7:	00 00 
  4036e9:	66 0f 7f 84 24 80 41 	movdqa %xmm0,0x4180(%rsp)
  4036f0:	00 00 
  4036f2:	66 0f 7f 84 24 70 41 	movdqa %xmm0,0x4170(%rsp)
  4036f9:	00 00 
  4036fb:	66 0f 7f 84 24 60 41 	movdqa %xmm0,0x4160(%rsp)
  403702:	00 00 
  403704:	66 0f 7f 84 24 50 41 	movdqa %xmm0,0x4150(%rsp)
  40370b:	00 00 
  40370d:	66 0f 7f 84 24 40 41 	movdqa %xmm0,0x4140(%rsp)
  403714:	00 00 
  403716:	66 0f 7f 84 24 30 41 	movdqa %xmm0,0x4130(%rsp)
  40371d:	00 00 
  40371f:	66 0f 7f 84 24 20 41 	movdqa %xmm0,0x4120(%rsp)
  403726:	00 00 
  403728:	66 0f 7f 84 24 10 41 	movdqa %xmm0,0x4110(%rsp)
  40372f:	00 00 
  403731:	66 0f 7f 84 24 00 41 	movdqa %xmm0,0x4100(%rsp)
  403738:	00 00 
  40373a:	66 0f 7f 84 24 f0 40 	movdqa %xmm0,0x40f0(%rsp)
  403741:	00 00 
  403743:	80 bc 24 94 00 00 00 	cmpb   $0x1,0x94(%rsp)
  40374a:	01 
  40374b:	0f 84 d9 0a 00 00    	je     40422a <teavpn_server_tcp_handler+0x123a>
  403751:	48 8d b4 24 f0 40 00 	lea    0x40f0(%rsp),%rsi
  403758:	00 
  403759:	8b 7c 24 4c          	mov    0x4c(%rsp),%edi
  40375d:	ba 10 00 00 00       	mov    $0x10,%edx
  403762:	b9 b8 0b 00 00       	mov    $0xbb8,%ecx
  403767:	e8 84 e9 ff ff       	call   4020f0 <epoll_wait@plt>
  40376c:	85 c0                	test   %eax,%eax
  40376e:	0f 84 5b 0a 00 00    	je     4041cf <teavpn_server_tcp_handler+0x11df>
  403774:	41 89 c4             	mov    %eax,%r12d
  403777:	0f 88 38 0a 00 00    	js     4041b5 <teavpn_server_tcp_handler+0x11c5>
  40377d:	44 89 e0             	mov    %r12d,%eax
  403780:	48 89 44 24 68       	mov    %rax,0x68(%rsp)
  403785:	45 31 f6             	xor    %r14d,%r14d
  403788:	eb 1a                	jmp    4037a4 <teavpn_server_tcp_handler+0x7b4>
  40378a:	45 31 ed             	xor    %r13d,%r13d
  40378d:	48 8b 44 24 58       	mov    0x58(%rsp),%rax
  403792:	4c 89 28             	mov    %r13,(%rax)
  403795:	49 83 c6 01          	add    $0x1,%r14
  403799:	4c 3b 74 24 68       	cmp    0x68(%rsp),%r14
  40379e:	0f 84 2b 0a 00 00    	je     4041cf <teavpn_server_tcp_handler+0x11df>
  4037a4:	48 8b 8c 24 b8 00 00 	mov    0xb8(%rsp),%rcx
  4037ab:	00 
  4037ac:	4b 8d 04 76          	lea    (%r14,%r14,2),%rax
  4037b0:	48 63 ac 84 f4 40 00 	movslq 0x40f4(%rsp,%rax,4),%rbp
  4037b7:	00 
  4037b8:	8b 84 84 f0 40 00 00 	mov    0x40f0(%rsp,%rax,4),%eax
  4037bf:	0f b7 0c 69          	movzwl (%rcx,%rbp,2),%ecx
  4037c3:	66 83 f9 01          	cmp    $0x1,%cx
  4037c7:	0f 84 a3 06 00 00    	je     403e70 <teavpn_server_tcp_handler+0xe80>
  4037cd:	66 83 f9 02          	cmp    $0x2,%cx
  4037d1:	0f 84 39 05 00 00    	je     403d10 <teavpn_server_tcp_handler+0xd20>
  4037d7:	66 85 c9             	test   %cx,%cx
  4037da:	0f 84 36 0a 00 00    	je     404216 <teavpn_server_tcp_handler+0x1226>
  4037e0:	83 c1 fd             	add    $0xfffffffd,%ecx
  4037e3:	4c 8b bc 24 b0 00 00 	mov    0xb0(%rsp),%r15
  4037ea:	00 
  4037eb:	0f b7 c9             	movzwl %cx,%ecx
  4037ee:	48 69 d9 80 40 00 00 	imul   $0x4080,%rcx,%rbx
  4037f5:	49 8d 0c 1f          	lea    (%r15,%rbx,1),%rcx
  4037f9:	a8 18                	test   $0x18,%al
  4037fb:	48 89 4c 24 30       	mov    %rcx,0x30(%rsp)
  403800:	0f 85 d8 07 00 00    	jne    403fde <teavpn_server_tcp_handler+0xfee>
  403806:	49 8d 04 1f          	lea    (%r15,%rbx,1),%rax
  40380a:	48 83 c0 68          	add    $0x68,%rax
  40380e:	48 89 44 24 58       	mov    %rax,0x58(%rsp)
  403813:	48 89 d8             	mov    %rbx,%rax
  403816:	49 8b 5c 1f 68       	mov    0x68(%r15,%rbx,1),%rbx
  40381b:	ba 10 40 00 00       	mov    $0x4010,%edx
  403820:	48 29 da             	sub    %rbx,%rdx
  403823:	48 89 44 24 20       	mov    %rax,0x20(%rsp)
  403828:	41 83 44 07 04 01    	addl   $0x1,0x4(%r15,%rax,1)
  40382e:	48 8d 34 0b          	lea    (%rbx,%rcx,1),%rsi
  403832:	48 83 c6 70          	add    $0x70,%rsi
  403836:	89 ef                	mov    %ebp,%edi
  403838:	31 c9                	xor    %ecx,%ecx
  40383a:	e8 61 e8 ff ff       	call   4020a0 <recv@plt>
  40383f:	48 85 c0             	test   %rax,%rax
  403842:	0f 88 f4 06 00 00    	js     403f3c <teavpn_server_tcp_handler+0xf4c>
  403848:	0f 84 8b 07 00 00    	je     403fd9 <teavpn_server_tcp_handler+0xfe9>
  40384e:	49 89 c5             	mov    %rax,%r13
  403851:	49 01 dd             	add    %rbx,%r13
  403854:	49 83 fd 04          	cmp    $0x4,%r13
  403858:	0f 82 2f ff ff ff    	jb     40378d <teavpn_server_tcp_handler+0x79d>
  40385e:	48 89 6c 24 40       	mov    %rbp,0x40(%rsp)
  403863:	4c 89 f8             	mov    %r15,%rax
  403866:	48 8b 5c 24 20       	mov    0x20(%rsp),%rbx
  40386b:	49 01 df             	add    %rbx,%r15
  40386e:	49 83 c7 70          	add    $0x70,%r15
  403872:	48 8d 4c 18 74       	lea    0x74(%rax,%rbx,1),%rcx
  403877:	48 89 4c 24 28       	mov    %rcx,0x28(%rsp)
  40387c:	48 8d 8c 18 b4 00 00 	lea    0xb4(%rax,%rbx,1),%rcx
  403883:	00 
  403884:	48 89 4c 24 50       	mov    %rcx,0x50(%rsp)
  403889:	48 8d 4c 18 52       	lea    0x52(%rax,%rbx,1),%rcx
  40388e:	48 89 4c 24 10       	mov    %rcx,0x10(%rsp)
  403893:	48 8d 4c 18 0e       	lea    0xe(%rax,%rbx,1),%rcx
  403898:	48 89 4c 24 08       	mov    %rcx,0x8(%rsp)
  40389d:	48 89 44 24 38       	mov    %rax,0x38(%rsp)
  4038a2:	48 01 d8             	add    %rbx,%rax
  4038a5:	48 83 c0 77          	add    $0x77,%rax
  4038a9:	48 89 44 24 60       	mov    %rax,0x60(%rsp)
  4038ae:	66 90                	xchg   %ax,%ax
  4038b0:	41 0f b7 47 02       	movzwl 0x2(%r15),%eax
  4038b5:	89 c1                	mov    %eax,%ecx
  4038b7:	66 c1 c1 08          	rol    $0x8,%cx
  4038bb:	44 0f b7 c9          	movzwl %cx,%r9d
  4038bf:	41 81 f9 05 10 00 00 	cmp    $0x1005,%r9d
  4038c6:	0f 83 e4 05 00 00    	jae    403eb0 <teavpn_server_tcp_handler+0xec0>
  4038cc:	41 0f b6 6f 01       	movzbl 0x1(%r15),%ebp
  4038d1:	4c 01 cd             	add    %r9,%rbp
  4038d4:	4d 8d 65 fc          	lea    -0x4(%r13),%r12
  4038d8:	49 39 ec             	cmp    %rbp,%r12
  4038db:	0f 82 ac fe ff ff    	jb     40378d <teavpn_server_tcp_handler+0x79d>
  4038e1:	41 0f b6 0f          	movzbl (%r15),%ecx
  4038e5:	8d 51 fe             	lea    -0x2(%rcx),%edx
  4038e8:	80 fa 05             	cmp    $0x5,%dl
  4038eb:	73 2e                	jae    40391b <teavpn_server_tcp_handler+0x92b>
  4038ed:	49 39 ec             	cmp    %rbp,%r12
  4038f0:	0f 86 94 fe ff ff    	jbe    40378a <teavpn_server_tcp_handler+0x79a>
  4038f6:	48 8d 45 04          	lea    0x4(%rbp),%rax
  4038fa:	49 29 c5             	sub    %rax,%r13
  4038fd:	49 8d 34 2f          	lea    (%r15,%rbp,1),%rsi
  403901:	48 83 c6 04          	add    $0x4,%rsi
  403905:	4c 89 ff             	mov    %r15,%rdi
  403908:	4c 89 ea             	mov    %r13,%rdx
  40390b:	e8 90 ea ff ff       	call   4023a0 <memmove@plt>
  403910:	49 83 fd 03          	cmp    $0x3,%r13
  403914:	77 9a                	ja     4038b0 <teavpn_server_tcp_handler+0x8c0>
  403916:	e9 72 fe ff ff       	jmp    40378d <teavpn_server_tcp_handler+0x79d>
  40391b:	84 c9                	test   %cl,%cl
  40391d:	0f 85 53 01 00 00    	jne    403a76 <teavpn_server_tcp_handler+0xa86>
  403923:	8b 0d fa 5d 00 00    	mov    0x5dfa(%rip),%ecx        # 409723 <_IO_stdin_used+0x723>
  403929:	89 8c 24 c7 41 00 00 	mov    %ecx,0x41c7(%rsp)
  403930:	48 8b 0d e5 5d 00 00 	mov    0x5de5(%rip),%rcx        # 40971c <_IO_stdin_used+0x71c>
  403937:	48 89 8c 24 c0 41 00 	mov    %rcx,0x41c0(%rsp)
  40393e:	00 
  40393f:	41 80 7f de 00       	cmpb   $0x0,-0x22(%r15)
  403944:	75 77                	jne    4039bd <teavpn_server_tcp_handler+0x9cd>
  403946:	0f b7 c0             	movzwl %ax,%eax
  403949:	3d 00 0b 00 00       	cmp    $0xb00,%eax
  40394e:	75 71                	jne    4039c1 <teavpn_server_tcp_handler+0x9d1>
  403950:	48 8b 4c 24 28       	mov    0x28(%rsp),%rcx
  403955:	48 8b 01             	mov    (%rcx),%rax
  403958:	48 33 84 24 c0 41 00 	xor    0x41c0(%rsp),%rax
  40395f:	00 
  403960:	48 8b 49 03          	mov    0x3(%rcx),%rcx
  403964:	48 33 8c 24 c3 41 00 	xor    0x41c3(%rsp),%rcx
  40396b:	00 
  40396c:	48 09 c1             	or     %rax,%rcx
  40396f:	75 78                	jne    4039e9 <teavpn_server_tcp_handler+0x9f9>
  403971:	c7 84 24 e0 00 00 00 	movl   $0x0,0xe0(%rsp)
  403978:	00 00 00 00 
  40397c:	48 8b 44 24 30       	mov    0x30(%rsp),%rax
  403981:	8b 38                	mov    (%rax),%edi
  403983:	41 83 47 98 01       	addl   $0x1,-0x68(%r15)
  403988:	ba 04 00 00 00       	mov    $0x4,%edx
  40398d:	89 3c 24             	mov    %edi,(%rsp)
  403990:	48 8d b4 24 e0 00 00 	lea    0xe0(%rsp),%rsi
  403997:	00 
  403998:	31 c9                	xor    %ecx,%ecx
  40399a:	e8 61 e7 ff ff       	call   402100 <send@plt>
  40399f:	48 85 c0             	test   %rax,%rax
  4039a2:	0f 88 9c 00 00 00    	js     403a44 <teavpn_server_tcp_handler+0xa54>
  4039a8:	0f 94 c0             	sete   %al
  4039ab:	0f b6 f0             	movzbl %al,%esi
  4039ae:	01 f6                	add    %esi,%esi
  4039b0:	85 f6                	test   %esi,%esi
  4039b2:	0f 84 35 ff ff ff    	je     4038ed <teavpn_server_tcp_handler+0x8fd>
  4039b8:	e9 8e 07 00 00       	jmp    40414b <teavpn_server_tcp_handler+0x115b>
  4039bd:	31 f6                	xor    %esi,%esi
  4039bf:	eb ef                	jmp    4039b0 <teavpn_server_tcp_handler+0x9c0>
  4039c1:	41 0f b7 57 f2       	movzwl -0xe(%r15),%edx
  4039c6:	41 b8 0b 00 00 00    	mov    $0xb,%r8d
  4039cc:	48 8d 3d 4a 5b 00 00 	lea    0x5b4a(%rip),%rdi        # 40951d <_IO_stdin_used+0x51d>
  4039d3:	48 8b 74 24 10       	mov    0x10(%rsp),%rsi
  4039d8:	48 8b 4c 24 08       	mov    0x8(%rsp),%rcx
  4039dd:	31 c0                	xor    %eax,%eax
  4039df:	e8 bc 45 00 00       	call   407fa0 <__pr_notice>
  4039e4:	e9 83 00 00 00       	jmp    403a6c <teavpn_server_tcp_handler+0xa7c>
  4039e9:	41 c6 47 0e 00       	movb   $0x0,0xe(%r15)
  4039ee:	41 0f b7 57 f2       	movzwl -0xe(%r15),%edx
  4039f3:	48 8b 44 24 28       	mov    0x28(%rsp),%rax
  4039f8:	44 0f b6 00          	movzbl (%rax),%r8d
  4039fc:	45 0f b6 4f 05       	movzbl 0x5(%r15),%r9d
  403a01:	45 0f b6 57 06       	movzbl 0x6(%r15),%r10d
  403a06:	48 8d 3d 5b 5b 00 00 	lea    0x5b5b(%rip),%rdi        # 409568 <_IO_stdin_used+0x568>
  403a0d:	48 8b 74 24 10       	mov    0x10(%rsp),%rsi
  403a12:	48 8b 4c 24 08       	mov    0x8(%rsp),%rcx
  403a17:	b8 00 00 00 00       	mov    $0x0,%eax
  403a1c:	48 8d 9c 24 c3 41 00 	lea    0x41c3(%rsp),%rbx
  403a23:	00 
  403a24:	53                   	push   %rbx
  403a25:	48 8b 5c 24 28       	mov    0x28(%rsp),%rbx
  403a2a:	6a 01                	push   $0x1
  403a2c:	6a 00                	push   $0x0
  403a2e:	6a 00                	push   $0x0
  403a30:	ff b4 24 80 00 00 00 	push   0x80(%rsp)
  403a37:	41 52                	push   %r10
  403a39:	e8 b2 40 00 00       	call   407af0 <__pr_error>
  403a3e:	48 83 c4 30          	add    $0x30,%rsp
  403a42:	eb 28                	jmp    403a6c <teavpn_server_tcp_handler+0xa7c>
  403a44:	e8 e7 e5 ff ff       	call   402030 <__errno_location@plt>
  403a49:	8b 38                	mov    (%rax),%edi
  403a4b:	89 7c 24 18          	mov    %edi,0x18(%rsp)
  403a4f:	e8 5c e6 ff ff       	call   4020b0 <strerror@plt>
  403a54:	48 8d 3d 5c 5b 00 00 	lea    0x5b5c(%rip),%rdi        # 4095b7 <_IO_stdin_used+0x5b7>
  403a5b:	8b 34 24             	mov    (%rsp),%esi
  403a5e:	8b 54 24 18          	mov    0x18(%rsp),%edx
  403a62:	48 89 c1             	mov    %rax,%rcx
  403a65:	31 c0                	xor    %eax,%eax
  403a67:	e8 84 40 00 00       	call   407af0 <__pr_error>
  403a6c:	be 02 00 00 00       	mov    $0x2,%esi
  403a71:	e9 3a ff ff ff       	jmp    4039b0 <teavpn_server_tcp_handler+0x9c0>
  403a76:	80 f9 01             	cmp    $0x1,%cl
  403a79:	0f 85 10 07 00 00    	jne    40418f <teavpn_server_tcp_handler+0x119f>
  403a7f:	31 f6                	xor    %esi,%esi
  403a81:	41 80 7f de 00       	cmpb   $0x0,-0x22(%r15)
  403a86:	0f 85 24 ff ff ff    	jne    4039b0 <teavpn_server_tcp_handler+0x9c0>
  403a8c:	0f b7 c0             	movzwl %ax,%eax
  403a8f:	3d 00 80 00 00       	cmp    $0x8000,%eax
  403a94:	0f 85 52 01 00 00    	jne    403bec <teavpn_server_tcp_handler+0xbfc>
  403a9a:	48 8b 84 24 a8 00 00 	mov    0xa8(%rsp),%rax
  403aa1:	00 
  403aa2:	48 89 04 24          	mov    %rax,(%rsp)
  403aa6:	ba 40 00 00 00       	mov    $0x40,%edx
  403aab:	48 8b 7c 24 08       	mov    0x8(%rsp),%rdi
  403ab0:	48 8b 74 24 28       	mov    0x28(%rsp),%rsi
  403ab5:	e8 56 e6 ff ff       	call   402110 <strncpy@plt>
  403aba:	41 c6 47 dd 00       	movb   $0x0,-0x23(%r15)
  403abf:	66 0f ef c0          	pxor   %xmm0,%xmm0
  403ac3:	48 8d b4 24 e4 00 00 	lea    0xe4(%rsp),%rsi
  403aca:	00 
  403acb:	f3 0f 7f 06          	movdqu %xmm0,(%rsi)
  403acf:	f3 0f 7f 46 10       	movdqu %xmm0,0x10(%rsi)
  403ad4:	f3 0f 7f 46 20       	movdqu %xmm0,0x20(%rsi)
  403ad9:	f3 0f 7f 46 30       	movdqu %xmm0,0x30(%rsi)
  403ade:	f3 0f 7f 46 40       	movdqu %xmm0,0x40(%rsi)
  403ae3:	66 c7 46 50 00 00    	movw   $0x0,0x50(%rsi)
  403ae9:	48 8b 3c 24          	mov    (%rsp),%rdi
  403aed:	48 8b 54 24 28       	mov    0x28(%rsp),%rdx
  403af2:	48 8b 4c 24 50       	mov    0x50(%rsp),%rcx
  403af7:	e8 84 0d 00 00       	call   404880 <teavpn_server_auth>
  403afc:	88 44 24 18          	mov    %al,0x18(%rsp)
  403b00:	be 40 00 00 00       	mov    $0x40,%esi
  403b05:	48 8b 7c 24 50       	mov    0x50(%rsp),%rdi
  403b0a:	e8 61 32 00 00       	call   406d70 <memzero_explicit>
  403b0f:	80 7c 24 18 00       	cmpb   $0x0,0x18(%rsp)
  403b14:	0f 84 e9 00 00 00    	je     403c03 <teavpn_server_tcp_handler+0xc13>
  403b1a:	48 8b 04 24          	mov    (%rsp),%rax
  403b1e:	48 8b 70 20          	mov    0x20(%rax),%rsi
  403b22:	ba 0f 00 00 00       	mov    $0xf,%edx
  403b27:	48 8d bc 24 24 01 00 	lea    0x124(%rsp),%rdi
  403b2e:	00 
  403b2f:	e8 dc e5 ff ff       	call   402110 <strncpy@plt>
  403b34:	e8 f7 e4 ff ff       	call   402030 <__errno_location@plt>
  403b39:	48 89 44 24 18       	mov    %rax,0x18(%rsp)
  403b3e:	c7 00 00 00 00 00    	movl   $0x0,(%rax)
  403b44:	c7 84 24 c0 41 00 00 	movl   $0x0,0x41c0(%rsp)
  403b4b:	00 00 00 00 
  403b4f:	bf 02 00 00 00       	mov    $0x2,%edi
  403b54:	48 8d b4 24 04 01 00 	lea    0x104(%rsp),%rsi
  403b5b:	00 
  403b5c:	48 8d 94 24 c0 41 00 	lea    0x41c0(%rsp),%rdx
  403b63:	00 
  403b64:	e8 97 e8 ff ff       	call   402400 <inet_pton@plt>
  403b69:	85 c0                	test   %eax,%eax
  403b6b:	0f 84 a3 00 00 00    	je     403c14 <teavpn_server_tcp_handler+0xc24>
  403b71:	8b 84 24 c0 41 00 00 	mov    0x41c0(%rsp),%eax
  403b78:	48 89 04 24          	mov    %rax,(%rsp)
  403b7c:	41 89 47 f4          	mov    %eax,-0xc(%r15)
  403b80:	c7 84 24 e0 00 00 00 	movl   $0x52000001,0xe0(%rsp)
  403b87:	01 00 00 52 
  403b8b:	48 8b 44 24 30       	mov    0x30(%rsp),%rax
  403b90:	8b 38                	mov    (%rax),%edi
  403b92:	41 83 47 98 01       	addl   $0x1,-0x68(%r15)
  403b97:	ba 56 00 00 00       	mov    $0x56,%edx
  403b9c:	89 7c 24 48          	mov    %edi,0x48(%rsp)
  403ba0:	48 8d b4 24 e0 00 00 	lea    0xe0(%rsp),%rsi
  403ba7:	00 
  403ba8:	31 c9                	xor    %ecx,%ecx
  403baa:	e8 51 e5 ff ff       	call   402100 <send@plt>
  403baf:	48 85 c0             	test   %rax,%rax
  403bb2:	0f 88 b2 00 00 00    	js     403c6a <teavpn_server_tcp_handler+0xc7a>
  403bb8:	be 00 00 00 00       	mov    $0x0,%esi
  403bbd:	0f 84 cc 00 00 00    	je     403c8f <teavpn_server_tcp_handler+0xc9f>
  403bc3:	48 8b 14 24          	mov    (%rsp),%rdx
  403bc7:	0f b6 c2             	movzbl %dl,%eax
  403bca:	41 c6 47 de 01       	movb   $0x1,-0x22(%r15)
  403bcf:	41 0f b7 4f 9c       	movzwl -0x64(%r15),%ecx
  403bd4:	48 c1 e0 09          	shl    $0x9,%rax
  403bd8:	48 03 84 24 c0 00 00 	add    0xc0(%rsp),%rax
  403bdf:	00 
  403be0:	0f b6 d6             	movzbl %dh,%edx
  403be3:	66 89 0c 50          	mov    %cx,(%rax,%rdx,2)
  403be7:	e9 c4 fd ff ff       	jmp    4039b0 <teavpn_server_tcp_handler+0x9c0>
  403bec:	41 0f b7 57 f2       	movzwl -0xe(%r15),%edx
  403bf1:	41 b8 80 00 00 00    	mov    $0x80,%r8d
  403bf7:	48 8d 3d cc 59 00 00 	lea    0x59cc(%rip),%rdi        # 4095ca <_IO_stdin_used+0x5ca>
  403bfe:	e9 d0 fd ff ff       	jmp    4039d3 <teavpn_server_tcp_handler+0x9e3>
  403c03:	41 0f b7 57 f2       	movzwl -0xe(%r15),%edx
  403c08:	48 8d 3d 07 5a 00 00 	lea    0x5a07(%rip),%rdi        # 409616 <_IO_stdin_used+0x616>
  403c0f:	e9 87 00 00 00       	jmp    403c9b <teavpn_server_tcp_handler+0xcab>
  403c14:	48 8b 44 24 18       	mov    0x18(%rsp),%rax
  403c19:	8b 18                	mov    (%rax),%ebx
  403c1b:	85 db                	test   %ebx,%ebx
  403c1d:	b8 16 00 00 00       	mov    $0x16,%eax
  403c22:	0f 44 d8             	cmove  %eax,%ebx
  403c25:	41 0f b7 47 f2       	movzwl -0xe(%r15),%eax
  403c2a:	89 04 24             	mov    %eax,(%rsp)
  403c2d:	89 df                	mov    %ebx,%edi
  403c2f:	e8 7c e4 ff ff       	call   4020b0 <strerror@plt>
  403c34:	49 89 c2             	mov    %rax,%r10
  403c37:	48 83 ec 08          	sub    $0x8,%rsp
  403c3b:	48 8d 3d fa 59 00 00 	lea    0x59fa(%rip),%rdi        # 40963c <_IO_stdin_used+0x63c>
  403c42:	48 8d b4 24 0c 01 00 	lea    0x10c(%rsp),%rsi
  403c49:	00 
  403c4a:	48 8b 54 24 18       	mov    0x18(%rsp),%rdx
  403c4f:	8b 4c 24 08          	mov    0x8(%rsp),%ecx
  403c53:	4c 8b 44 24 10       	mov    0x10(%rsp),%r8
  403c58:	41 89 d9             	mov    %ebx,%r9d
  403c5b:	31 c0                	xor    %eax,%eax
  403c5d:	41 52                	push   %r10
  403c5f:	e8 8c 3e 00 00       	call   407af0 <__pr_error>
  403c64:	48 83 c4 10          	add    $0x10,%rsp
  403c68:	eb 42                	jmp    403cac <teavpn_server_tcp_handler+0xcbc>
  403c6a:	48 8b 44 24 18       	mov    0x18(%rsp),%rax
  403c6f:	8b 18                	mov    (%rax),%ebx
  403c71:	89 df                	mov    %ebx,%edi
  403c73:	e8 38 e4 ff ff       	call   4020b0 <strerror@plt>
  403c78:	48 8d 3d 38 59 00 00 	lea    0x5938(%rip),%rdi        # 4095b7 <_IO_stdin_used+0x5b7>
  403c7f:	8b 74 24 48          	mov    0x48(%rsp),%esi
  403c83:	89 da                	mov    %ebx,%edx
  403c85:	48 89 c1             	mov    %rax,%rcx
  403c88:	31 c0                	xor    %eax,%eax
  403c8a:	e8 61 3e 00 00       	call   407af0 <__pr_error>
  403c8f:	41 0f b7 57 f2       	movzwl -0xe(%r15),%edx
  403c94:	48 8d 3d c7 59 00 00 	lea    0x59c7(%rip),%rdi        # 409662 <_IO_stdin_used+0x662>
  403c9b:	48 8b 74 24 10       	mov    0x10(%rsp),%rsi
  403ca0:	48 8b 4c 24 08       	mov    0x8(%rsp),%rcx
  403ca5:	31 c0                	xor    %eax,%eax
  403ca7:	e8 f4 42 00 00       	call   407fa0 <__pr_notice>
  403cac:	c7 84 24 e0 00 00 00 	movl   $0x2,0xe0(%rsp)
  403cb3:	02 00 00 00 
  403cb7:	48 8b 44 24 30       	mov    0x30(%rsp),%rax
  403cbc:	8b 18                	mov    (%rax),%ebx
  403cbe:	41 83 47 98 01       	addl   $0x1,-0x68(%r15)
  403cc3:	ba 04 00 00 00       	mov    $0x4,%edx
  403cc8:	89 df                	mov    %ebx,%edi
  403cca:	48 8d b4 24 e0 00 00 	lea    0xe0(%rsp),%rsi
  403cd1:	00 
  403cd2:	31 c9                	xor    %ecx,%ecx
  403cd4:	e8 27 e4 ff ff       	call   402100 <send@plt>
  403cd9:	48 85 c0             	test   %rax,%rax
  403cdc:	78 0a                	js     403ce8 <teavpn_server_tcp_handler+0xcf8>
  403cde:	48 8b 5c 24 20       	mov    0x20(%rsp),%rbx
  403ce3:	e9 84 fd ff ff       	jmp    403a6c <teavpn_server_tcp_handler+0xa7c>
  403ce8:	e8 43 e3 ff ff       	call   402030 <__errno_location@plt>
  403ced:	8b 38                	mov    (%rax),%edi
  403cef:	89 3c 24             	mov    %edi,(%rsp)
  403cf2:	e8 b9 e3 ff ff       	call   4020b0 <strerror@plt>
  403cf7:	48 8d 3d b9 58 00 00 	lea    0x58b9(%rip),%rdi        # 4095b7 <_IO_stdin_used+0x5b7>
  403cfe:	89 de                	mov    %ebx,%esi
  403d00:	8b 14 24             	mov    (%rsp),%edx
  403d03:	48 89 c1             	mov    %rax,%rcx
  403d06:	31 c0                	xor    %eax,%eax
  403d08:	e8 e3 3d 00 00       	call   407af0 <__pr_error>
  403d0d:	eb cf                	jmp    403cde <teavpn_server_tcp_handler+0xcee>
  403d0f:	90                   	nop
  403d10:	a8 18                	test   $0x18,%al
  403d12:	0f 85 0c 05 00 00    	jne    404224 <teavpn_server_tcp_handler+0x1234>
  403d18:	c7 44 24 74 10 00 00 	movl   $0x10,0x74(%rsp)
  403d1f:	00 
  403d20:	66 0f ef c0          	pxor   %xmm0,%xmm0
  403d24:	66 0f 7f 84 24 b0 41 	movdqa %xmm0,0x41b0(%rsp)
  403d2b:	00 00 
  403d2d:	89 ef                	mov    %ebp,%edi
  403d2f:	48 8d b4 24 b0 41 00 	lea    0x41b0(%rsp),%rsi
  403d36:	00 
  403d37:	48 8d 54 24 74       	lea    0x74(%rsp),%rdx
  403d3c:	e8 4f e3 ff ff       	call   402090 <accept@plt>
  403d41:	85 c0                	test   %eax,%eax
  403d43:	0f 88 4c 02 00 00    	js     403f95 <teavpn_server_tcp_handler+0xfa5>
  403d49:	41 89 c5             	mov    %eax,%r13d
  403d4c:	bf 02 00 00 00       	mov    $0x2,%edi
  403d51:	48 8d b4 24 b4 41 00 	lea    0x41b4(%rsp),%rsi
  403d58:	00 
  403d59:	48 8d 94 24 c0 41 00 	lea    0x41c0(%rsp),%rdx
  403d60:	00 
  403d61:	b9 10 00 00 00       	mov    $0x10,%ecx
  403d66:	e8 95 e4 ff ff       	call   402200 <inet_ntop@plt>
  403d6b:	48 85 c0             	test   %rax,%rax
  403d6e:	0f 84 3e 03 00 00    	je     4040b2 <teavpn_server_tcp_handler+0x10c2>
  403d74:	49 89 c7             	mov    %rax,%r15
  403d77:	44 0f b7 a4 24 b2 41 	movzwl 0x41b2(%rsp),%r12d
  403d7e:	00 00 
  403d80:	66 41 c1 c4 08       	rol    $0x8,%r12w
  403d85:	0f b7 84 24 98 00 00 	movzwl 0x98(%rsp),%eax
  403d8c:	00 
  403d8d:	66 3b 84 24 9a 00 00 	cmp    0x9a(%rsp),%ax
  403d94:	00 
  403d95:	0f 84 44 03 00 00    	je     4040df <teavpn_server_tcp_handler+0x10ef>
  403d9b:	48 8b 8c 24 a0 00 00 	mov    0xa0(%rsp),%rcx
  403da2:	00 
  403da3:	0f b7 2c 41          	movzwl (%rcx,%rax,2),%ebp
  403da7:	83 c0 01             	add    $0x1,%eax
  403daa:	66 89 84 24 98 00 00 	mov    %ax,0x98(%rsp)
  403db1:	00 
  403db2:	8b bc 24 88 00 00 00 	mov    0x88(%rsp),%edi
  403db9:	c7 84 24 80 00 00 00 	movl   $0x0,0x80(%rsp)
  403dc0:	00 00 00 00 
  403dc4:	c7 44 24 78 03 00 00 	movl   $0x3,0x78(%rsp)
  403dcb:	00 
  403dcc:	44 89 6c 24 7c       	mov    %r13d,0x7c(%rsp)
  403dd1:	be 01 00 00 00       	mov    $0x1,%esi
  403dd6:	44 89 ea             	mov    %r13d,%edx
  403dd9:	48 8d 4c 24 78       	lea    0x78(%rsp),%rcx
  403dde:	e8 dd e4 ff ff       	call   4022c0 <epoll_ctl@plt>
  403de3:	85 c0                	test   %eax,%eax
  403de5:	0f 88 08 03 00 00    	js     4040f3 <teavpn_server_tcp_handler+0x1103>
  403deb:	8d 45 03             	lea    0x3(%rbp),%eax
  403dee:	48 8b 8c 24 b8 00 00 	mov    0xb8(%rsp),%rcx
  403df5:	00 
  403df6:	44 89 ea             	mov    %r13d,%edx
  403df9:	66 89 04 51          	mov    %ax,(%rcx,%rdx,2)
  403dfd:	48 8b 9c 24 b0 00 00 	mov    0xb0(%rsp),%rbx
  403e04:	00 
  403e05:	4c 89 fe             	mov    %r15,%rsi
  403e08:	4c 69 fd 80 40 00 00 	imul   $0x4080,%rbp,%r15
  403e0f:	66 42 c7 44 3b 4f 01 	movw   $0x101,0x4f(%rbx,%r15,1)
  403e16:	01 
  403e17:	46 89 2c 3b          	mov    %r13d,(%rbx,%r15,1)
  403e1b:	66 46 89 64 3b 62    	mov    %r12w,0x62(%rbx,%r15,1)
  403e21:	4a 8d 2c 3b          	lea    (%rbx,%r15,1),%rbp
  403e25:	48 83 c5 52          	add    $0x52,%rbp
  403e29:	ba 0f 00 00 00       	mov    $0xf,%edx
  403e2e:	48 89 ef             	mov    %rbp,%rdi
  403e31:	e8 da e2 ff ff       	call   402110 <strncpy@plt>
  403e36:	42 c6 44 3b 61 00    	movb   $0x0,0x61(%rbx,%r15,1)
  403e3c:	42 0f b7 54 3b 62    	movzwl 0x62(%rbx,%r15,1),%edx
  403e42:	4a 8d 0c 3b          	lea    (%rbx,%r15,1),%rcx
  403e46:	48 83 c1 0e          	add    $0xe,%rcx
  403e4a:	48 8d 3d 3e 55 00 00 	lea    0x553e(%rip),%rdi        # 40938f <_IO_stdin_used+0x38f>
  403e51:	48 89 ee             	mov    %rbp,%rsi
  403e54:	45 89 e8             	mov    %r13d,%r8d
  403e57:	31 c0                	xor    %eax,%eax
  403e59:	e8 42 41 00 00       	call   407fa0 <__pr_notice>
  403e5e:	e9 32 f9 ff ff       	jmp    403795 <teavpn_server_tcp_handler+0x7a5>
  403e63:	66 2e 0f 1f 84 00 00 	cs nopw 0x0(%rax,%rax,1)
  403e6a:	00 00 00 
  403e6d:	0f 1f 00             	nopl   (%rax)
  403e70:	41 bc ff ff ff ff    	mov    $0xffffffff,%r12d
  403e76:	a8 18                	test   $0x18,%al
  403e78:	0f 85 ac 03 00 00    	jne    40422a <teavpn_server_tcp_handler+0x123a>
  403e7e:	83 84 24 c8 00 00 00 	addl   $0x1,0xc8(%rsp)
  403e85:	01 
  403e86:	ba 00 10 00 00       	mov    $0x1000,%edx
  403e8b:	89 ef                	mov    %ebp,%edi
  403e8d:	48 8d b4 24 e4 00 00 	lea    0xe4(%rsp),%rsi
  403e94:	00 
  403e95:	e8 96 e4 ff ff       	call   402330 <read@plt>
  403e9a:	48 85 c0             	test   %rax,%rax
  403e9d:	0f 88 21 01 00 00    	js     403fc4 <teavpn_server_tcp_handler+0xfd4>
  403ea3:	85 c0                	test   %eax,%eax
  403ea5:	0f 89 ea f8 ff ff    	jns    403795 <teavpn_server_tcp_handler+0x7a5>
  403eab:	e9 7a 03 00 00       	jmp    40422a <teavpn_server_tcp_handler+0x123a>
  403eb0:	41 0f b7 57 f2       	movzwl -0xe(%r15),%edx
  403eb5:	48 83 ec 08          	sub    $0x8,%rsp
  403eb9:	41 b8 04 10 00 00    	mov    $0x1004,%r8d
  403ebf:	48 8d 3d 92 55 00 00 	lea    0x5592(%rip),%rdi        # 409458 <_IO_stdin_used+0x458>
  403ec6:	48 8b 74 24 18       	mov    0x18(%rsp),%rsi
  403ecb:	48 8b 4c 24 10       	mov    0x10(%rsp),%rcx
  403ed0:	31 c0                	xor    %eax,%eax
  403ed2:	41 55                	push   %r13
  403ed4:	e8 c7 40 00 00       	call   407fa0 <__pr_notice>
  403ed9:	48 83 c4 10          	add    $0x10,%rsp
  403edd:	41 80 7f de 00       	cmpb   $0x0,-0x22(%r15)
  403ee2:	48 8b 6c 24 40       	mov    0x40(%rsp),%rbp
  403ee7:	4c 8b 7c 24 38       	mov    0x38(%rsp),%r15
  403eec:	0f 84 10 01 00 00    	je     404002 <teavpn_server_tcp_handler+0x1012>
  403ef2:	48 8b 44 24 58       	mov    0x58(%rsp),%rax
  403ef7:	48 c7 00 00 00 00 00 	movq   $0x0,(%rax)
  403efe:	41 8a 44 1f 51       	mov    0x51(%r15,%rbx,1),%al
  403f03:	8d 48 01             	lea    0x1(%rax),%ecx
  403f06:	41 88 4c 1f 51       	mov    %cl,0x51(%r15,%rbx,1)
  403f0b:	3c 0f                	cmp    $0xf,%al
  403f0d:	0f 82 82 f8 ff ff    	jb     403795 <teavpn_server_tcp_handler+0x7a5>
  403f13:	49 8d 34 1f          	lea    (%r15,%rbx,1),%rsi
  403f17:	48 83 c6 52          	add    $0x52,%rsi
  403f1b:	41 0f b7 54 1f 62    	movzwl 0x62(%r15,%rbx,1),%edx
  403f21:	49 8d 0c 1f          	lea    (%r15,%rbx,1),%rcx
  403f25:	48 83 c1 0e          	add    $0xe,%rcx
  403f29:	48 8d 3d ab 54 00 00 	lea    0x54ab(%rip),%rdi        # 4093db <_IO_stdin_used+0x3db>
  403f30:	31 c0                	xor    %eax,%eax
  403f32:	e8 b9 3b 00 00       	call   407af0 <__pr_error>
  403f37:	e9 c6 00 00 00       	jmp    404002 <teavpn_server_tcp_handler+0x1012>
  403f3c:	e8 ef e0 ff ff       	call   402030 <__errno_location@plt>
  403f41:	8b 18                	mov    (%rax),%ebx
  403f43:	83 fb 0b             	cmp    $0xb,%ebx
  403f46:	4c 8b 64 24 20       	mov    0x20(%rsp),%r12
  403f4b:	0f 84 44 f8 ff ff    	je     403795 <teavpn_server_tcp_handler+0x7a5>
  403f51:	89 df                	mov    %ebx,%edi
  403f53:	e8 58 e1 ff ff       	call   4020b0 <strerror@plt>
  403f58:	4f 8d 04 27          	lea    (%r15,%r12,1),%r8
  403f5c:	49 83 c0 52          	add    $0x52,%r8
  403f60:	47 0f b7 4c 27 62    	movzwl 0x62(%r15,%r12,1),%r9d
  403f66:	4f 8d 14 27          	lea    (%r15,%r12,1),%r10
  403f6a:	49 83 c2 0e          	add    $0xe,%r10
  403f6e:	48 83 ec 08          	sub    $0x8,%rsp
  403f72:	48 8d 3d bf 54 00 00 	lea    0x54bf(%rip),%rdi        # 409438 <_IO_stdin_used+0x438>
  403f79:	89 ee                	mov    %ebp,%esi
  403f7b:	89 da                	mov    %ebx,%edx
  403f7d:	48 89 c1             	mov    %rax,%rcx
  403f80:	31 c0                	xor    %eax,%eax
  403f82:	41 52                	push   %r10
  403f84:	e8 67 3b 00 00       	call   407af0 <__pr_error>
  403f89:	48 83 c4 10          	add    $0x10,%rsp
  403f8d:	4c 89 e3             	mov    %r12,%rbx
  403f90:	e9 5d ff ff ff       	jmp    403ef2 <teavpn_server_tcp_handler+0xf02>
  403f95:	e8 96 e0 ff ff       	call   402030 <__errno_location@plt>
  403f9a:	8b 18                	mov    (%rax),%ebx
  403f9c:	83 fb 0b             	cmp    $0xb,%ebx
  403f9f:	0f 84 f0 f7 ff ff    	je     403795 <teavpn_server_tcp_handler+0x7a5>
  403fa5:	89 df                	mov    %ebx,%edi
  403fa7:	e8 04 e1 ff ff       	call   4020b0 <strerror@plt>
  403fac:	48 8d 3d 21 53 00 00 	lea    0x5321(%rip),%rdi        # 4092d4 <_IO_stdin_used+0x2d4>
  403fb3:	89 de                	mov    %ebx,%esi
  403fb5:	48 89 c2             	mov    %rax,%rdx
  403fb8:	31 c0                	xor    %eax,%eax
  403fba:	e8 31 3b 00 00       	call   407af0 <__pr_error>
  403fbf:	e9 d1 f7 ff ff       	jmp    403795 <teavpn_server_tcp_handler+0x7a5>
  403fc4:	e8 67 e0 ff ff       	call   402030 <__errno_location@plt>
  403fc9:	8b 18                	mov    (%rax),%ebx
  403fcb:	83 fb 0b             	cmp    $0xb,%ebx
  403fce:	0f 84 c1 f7 ff ff    	je     403795 <teavpn_server_tcp_handler+0x7a5>
  403fd4:	e9 24 05 00 00       	jmp    4044fd <teavpn_server_tcp_handler+0x150d>
  403fd9:	48 8b 5c 24 20       	mov    0x20(%rsp),%rbx
  403fde:	49 8d 34 1f          	lea    (%r15,%rbx,1),%rsi
  403fe2:	48 83 c6 52          	add    $0x52,%rsi
  403fe6:	41 0f b7 54 1f 62    	movzwl 0x62(%r15,%rbx,1),%edx
  403fec:	49 8d 0c 1f          	lea    (%r15,%rbx,1),%rcx
  403ff0:	48 83 c1 0e          	add    $0xe,%rcx
  403ff4:	48 8d 3d bb 53 00 00 	lea    0x53bb(%rip),%rdi        # 4093b6 <_IO_stdin_used+0x3b6>
  403ffb:	31 c0                	xor    %eax,%eax
  403ffd:	e8 9e 3f 00 00       	call   407fa0 <__pr_notice>
  404002:	8b bc 24 88 00 00 00 	mov    0x88(%rsp),%edi
  404009:	be 02 00 00 00       	mov    $0x2,%esi
  40400e:	89 ea                	mov    %ebp,%edx
  404010:	31 c9                	xor    %ecx,%ecx
  404012:	e8 a9 e2 ff ff       	call   4022c0 <epoll_ctl@plt>
  404017:	85 c0                	test   %eax,%eax
  404019:	0f 88 44 01 00 00    	js     404163 <teavpn_server_tcp_handler+0x1173>
  40401f:	89 ef                	mov    %ebp,%edi
  404021:	e8 fa e3 ff ff       	call   402420 <close@plt>
  404026:	49 8d 34 1f          	lea    (%r15,%rbx,1),%rsi
  40402a:	48 83 c6 52          	add    $0x52,%rsi
  40402e:	41 0f b7 54 1f 62    	movzwl 0x62(%r15,%rbx,1),%edx
  404034:	49 8d 0c 1f          	lea    (%r15,%rbx,1),%rcx
  404038:	48 83 c1 0e          	add    $0xe,%rcx
  40403c:	48 8d 3d cf 53 00 00 	lea    0x53cf(%rip),%rdi        # 409412 <_IO_stdin_used+0x412>
  404043:	31 c0                	xor    %eax,%eax
  404045:	e8 56 3f 00 00       	call   407fa0 <__pr_notice>
  40404a:	41 0f b7 44 1f 0c    	movzwl 0xc(%r15,%rbx,1),%eax
  404050:	8b 8c 24 98 00 00 00 	mov    0x98(%rsp),%ecx
  404057:	48 8b 94 24 a0 00 00 	mov    0xa0(%rsp),%rdx
  40405e:	00 
  40405f:	83 c1 ff             	add    $0xffffffff,%ecx
  404062:	0f b7 f1             	movzwl %cx,%esi
  404065:	66 89 04 72          	mov    %ax,(%rdx,%rsi,2)
  404069:	66 89 8c 24 98 00 00 	mov    %cx,0x98(%rsp)
  404070:	00 
  404071:	48 8b 44 24 30       	mov    0x30(%rsp),%rax
  404076:	c7 00 ff ff ff ff    	movl   $0xffffffff,(%rax)
  40407c:	49 c7 44 1f 04 00 00 	movq   $0x0,0x4(%r15,%rbx,1)
  404083:	00 00 
  404085:	66 41 c7 44 1f 0e 5f 	movw   $0x5f,0xe(%r15,%rbx,1)
  40408c:	00 
  40408d:	49 c7 44 1f 68 00 00 	movq   $0x0,0x68(%r15,%rbx,1)
  404094:	00 00 
  404096:	41 c7 44 1f 4e 00 00 	movl   $0x0,0x4e(%r15,%rbx,1)
  40409d:	00 00 
  40409f:	48 8b 84 24 b8 00 00 	mov    0xb8(%rsp),%rax
  4040a6:	00 
  4040a7:	66 c7 04 68 00 00    	movw   $0x0,(%rax,%rbp,2)
  4040ad:	e9 e3 f6 ff ff       	jmp    403795 <teavpn_server_tcp_handler+0x7a5>
  4040b2:	e8 79 df ff ff       	call   402030 <__errno_location@plt>
  4040b7:	8b 28                	mov    (%rax),%ebp
  4040b9:	85 ed                	test   %ebp,%ebp
  4040bb:	b8 16 00 00 00       	mov    $0x16,%eax
  4040c0:	0f 44 e8             	cmove  %eax,%ebp
  4040c3:	89 ef                	mov    %ebp,%edi
  4040c5:	e8 e6 df ff ff       	call   4020b0 <strerror@plt>
  4040ca:	48 8d 3d 34 52 00 00 	lea    0x5234(%rip),%rdi        # 409305 <_IO_stdin_used+0x305>
  4040d1:	89 ee                	mov    %ebp,%esi
  4040d3:	48 89 c2             	mov    %rax,%rdx
  4040d6:	31 c0                	xor    %eax,%eax
  4040d8:	e8 13 3a 00 00       	call   407af0 <__pr_error>
  4040dd:	eb 5f                	jmp    40413e <teavpn_server_tcp_handler+0x114e>
  4040df:	48 8d 3d 34 52 00 00 	lea    0x5234(%rip),%rdi        # 40931a <_IO_stdin_used+0x31a>
  4040e6:	31 c0                	xor    %eax,%eax
  4040e8:	e8 b3 3e 00 00       	call   407fa0 <__pr_notice>
  4040ed:	41 0f b7 ec          	movzwl %r12w,%ebp
  4040f1:	eb 38                	jmp    40412b <teavpn_server_tcp_handler+0x113b>
  4040f3:	e8 38 df ff ff       	call   402030 <__errno_location@plt>
  4040f8:	8b 18                	mov    (%rax),%ebx
  4040fa:	89 df                	mov    %ebx,%edi
  4040fc:	e8 af df ff ff       	call   4020b0 <strerror@plt>
  404101:	48 8d 3d 44 51 00 00 	lea    0x5144(%rip),%rdi        # 40924c <_IO_stdin_used+0x24c>
  404108:	89 de                	mov    %ebx,%esi
  40410a:	48 89 c2             	mov    %rax,%rdx
  40410d:	31 c0                	xor    %eax,%eax
  40410f:	e8 dc 39 00 00       	call   407af0 <__pr_error>
  404114:	41 0f b7 ec          	movzwl %r12w,%ebp
  404118:	48 8d 3d 28 52 00 00 	lea    0x5228(%rip),%rdi        # 409347 <_IO_stdin_used+0x347>
  40411f:	4c 89 fe             	mov    %r15,%rsi
  404122:	89 ea                	mov    %ebp,%edx
  404124:	31 c0                	xor    %eax,%eax
  404126:	e8 c5 39 00 00       	call   407af0 <__pr_error>
  40412b:	48 8d 3d b4 51 00 00 	lea    0x51b4(%rip),%rdi        # 4092e6 <_IO_stdin_used+0x2e6>
  404132:	4c 89 fe             	mov    %r15,%rsi
  404135:	89 ea                	mov    %ebp,%edx
  404137:	31 c0                	xor    %eax,%eax
  404139:	e8 62 3e 00 00       	call   407fa0 <__pr_notice>
  40413e:	44 89 ef             	mov    %r13d,%edi
  404141:	e8 da e2 ff ff       	call   402420 <close@plt>
  404146:	e9 4a f6 ff ff       	jmp    403795 <teavpn_server_tcp_handler+0x7a5>
  40414b:	83 fe 01             	cmp    $0x1,%esi
  40414e:	48 8b 6c 24 40       	mov    0x40(%rsp),%rbp
  404153:	4c 8b 7c 24 38       	mov    0x38(%rsp),%r15
  404158:	0f 85 a4 fe ff ff    	jne    404002 <teavpn_server_tcp_handler+0x1012>
  40415e:	e9 8f fd ff ff       	jmp    403ef2 <teavpn_server_tcp_handler+0xf02>
  404163:	e8 c8 de ff ff       	call   402030 <__errno_location@plt>
  404168:	49 89 dc             	mov    %rbx,%r12
  40416b:	8b 18                	mov    (%rax),%ebx
  40416d:	89 df                	mov    %ebx,%edi
  40416f:	e8 3c df ff ff       	call   4020b0 <strerror@plt>
  404174:	48 8d 3d 0c 55 00 00 	lea    0x550c(%rip),%rdi        # 409687 <_IO_stdin_used+0x687>
  40417b:	89 de                	mov    %ebx,%esi
  40417d:	4c 89 e3             	mov    %r12,%rbx
  404180:	48 89 c2             	mov    %rax,%rdx
  404183:	31 c0                	xor    %eax,%eax
  404185:	e8 66 39 00 00       	call   407af0 <__pr_error>
  40418a:	e9 90 fe ff ff       	jmp    40401f <teavpn_server_tcp_handler+0x102f>
  40418f:	44 0f b6 c1          	movzbl %cl,%r8d
  404193:	41 0f b7 57 f2       	movzwl -0xe(%r15),%edx
  404198:	48 8d 3d 35 53 00 00 	lea    0x5335(%rip),%rdi        # 4094d4 <_IO_stdin_used+0x4d4>
  40419f:	48 8b 74 24 10       	mov    0x10(%rsp),%rsi
  4041a4:	48 8b 4c 24 08       	mov    0x8(%rsp),%rcx
  4041a9:	31 c0                	xor    %eax,%eax
  4041ab:	e8 f0 3d 00 00       	call   407fa0 <__pr_notice>
  4041b0:	e9 28 fd ff ff       	jmp    403edd <teavpn_server_tcp_handler+0xeed>
  4041b5:	e8 76 de ff ff       	call   402030 <__errno_location@plt>
  4041ba:	8b 18                	mov    (%rax),%ebx
  4041bc:	83 fb 04             	cmp    $0x4,%ebx
  4041bf:	75 29                	jne    4041ea <teavpn_server_tcp_handler+0x11fa>
  4041c1:	48 8d 3d a6 50 00 00 	lea    0x50a6(%rip),%rdi        # 40926e <_IO_stdin_used+0x26e>
  4041c8:	31 c0                	xor    %eax,%eax
  4041ca:	e8 d1 3d 00 00       	call   407fa0 <__pr_notice>
  4041cf:	80 bc 24 94 00 00 00 	cmpb   $0x1,0x94(%rsp)
  4041d6:	01 
  4041d7:	48 8d b4 24 f0 40 00 	lea    0x40f0(%rsp),%rsi
  4041de:	00 
  4041df:	0f 85 74 f5 ff ff    	jne    403759 <teavpn_server_tcp_handler+0x769>
  4041e5:	e9 34 03 00 00       	jmp    40451e <teavpn_server_tcp_handler+0x152e>
  4041ea:	89 df                	mov    %ebx,%edi
  4041ec:	e8 bf de ff ff       	call   4020b0 <strerror@plt>
  4041f1:	48 8d 3d 83 50 00 00 	lea    0x5083(%rip),%rdi        # 40927b <_IO_stdin_used+0x27b>
  4041f8:	89 de                	mov    %ebx,%esi
  4041fa:	48 89 c2             	mov    %rax,%rdx
  4041fd:	31 c0                	xor    %eax,%eax
  4041ff:	e8 ec 38 00 00       	call   407af0 <__pr_error>
  404204:	41 89 dc             	mov    %ebx,%r12d
  404207:	41 f7 dc             	neg    %r12d
  40420a:	85 db                	test   %ebx,%ebx
  40420c:	74 c1                	je     4041cf <teavpn_server_tcp_handler+0x11df>
  40420e:	0f 8e 69 f5 ff ff    	jle    40377d <teavpn_server_tcp_handler+0x78d>
  404214:	eb 14                	jmp    40422a <teavpn_server_tcp_handler+0x123a>
  404216:	48 8d 3d 74 50 00 00 	lea    0x5074(%rip),%rdi        # 409291 <_IO_stdin_used+0x291>
  40421d:	31 c0                	xor    %eax,%eax
  40421f:	e8 cc 38 00 00       	call   407af0 <__pr_error>
  404224:	41 bc ff ff ff ff    	mov    $0xffffffff,%r12d
  40422a:	8b ac 24 90 00 00 00 	mov    0x90(%rsp),%ebp
  404231:	44 8b b4 24 88 00 00 	mov    0x88(%rsp),%r14d
  404238:	00 
  404239:	8b 9c 24 8c 00 00 00 	mov    0x8c(%rsp),%ebx
  404240:	83 fd ff             	cmp    $0xffffffff,%ebp
  404243:	74 17                	je     40425c <teavpn_server_tcp_handler+0x126c>
  404245:	48 8d 3d 5d 54 00 00 	lea    0x545d(%rip),%rdi        # 4096a9 <_IO_stdin_used+0x6a9>
  40424c:	89 ee                	mov    %ebp,%esi
  40424e:	31 c0                	xor    %eax,%eax
  404250:	e8 4b 3d 00 00       	call   407fa0 <__pr_notice>
  404255:	89 ef                	mov    %ebp,%edi
  404257:	e8 c4 e1 ff ff       	call   402420 <close@plt>
  40425c:	83 fb ff             	cmp    $0xffffffff,%ebx
  40425f:	74 17                	je     404278 <teavpn_server_tcp_handler+0x1288>
  404261:	48 8d 3d 5c 54 00 00 	lea    0x545c(%rip),%rdi        # 4096c4 <_IO_stdin_used+0x6c4>
  404268:	89 de                	mov    %ebx,%esi
  40426a:	31 c0                	xor    %eax,%eax
  40426c:	e8 2f 3d 00 00       	call   407fa0 <__pr_notice>
  404271:	89 df                	mov    %ebx,%edi
  404273:	e8 a8 e1 ff ff       	call   402420 <close@plt>
  404278:	41 83 fe ff          	cmp    $0xffffffff,%r14d
  40427c:	74 19                	je     404297 <teavpn_server_tcp_handler+0x12a7>
  40427e:	48 8d 3d 5a 54 00 00 	lea    0x545a(%rip),%rdi        # 4096df <_IO_stdin_used+0x6df>
  404285:	44 89 f6             	mov    %r14d,%esi
  404288:	31 c0                	xor    %eax,%eax
  40428a:	e8 11 3d 00 00       	call   407fa0 <__pr_notice>
  40428f:	44 89 f7             	mov    %r14d,%edi
  404292:	e8 89 e1 ff ff       	call   402420 <close@plt>
  404297:	48 8b 84 24 a8 00 00 	mov    0xa8(%rsp),%rax
  40429e:	00 
  40429f:	44 0f b7 78 42       	movzwl 0x42(%rax),%r15d
  4042a4:	66 45 85 ff          	test   %r15w,%r15w
  4042a8:	0f 84 4e 00 00 00    	je     4042fc <teavpn_server_tcp_handler+0x130c>
  4042ae:	41 8d 47 ff          	lea    -0x1(%r15),%eax
  4042b2:	0f b7 e8             	movzwl %ax,%ebp
  4042b5:	0f b7 c0             	movzwl %ax,%eax
  4042b8:	48 69 d8 80 40 00 00 	imul   $0x4080,%rax,%rbx
  4042bf:	48 03 9c 24 b0 00 00 	add    0xb0(%rsp),%rbx
  4042c6:	00 
  4042c7:	4c 8d 35 2e 54 00 00 	lea    0x542e(%rip),%r14        # 4096fc <_IO_stdin_used+0x6fc>
  4042ce:	66 90                	xchg   %ax,%ax
  4042d0:	80 7b 4f 00          	cmpb   $0x0,0x4f(%rbx)
  4042d4:	74 15                	je     4042eb <teavpn_server_tcp_handler+0x12fb>
  4042d6:	8b 13                	mov    (%rbx),%edx
  4042d8:	4c 89 f7             	mov    %r14,%rdi
  4042db:	89 ee                	mov    %ebp,%esi
  4042dd:	31 c0                	xor    %eax,%eax
  4042df:	e8 bc 3c 00 00       	call   407fa0 <__pr_notice>
  4042e4:	8b 3b                	mov    (%rbx),%edi
  4042e6:	e8 35 e1 ff ff       	call   402420 <close@plt>
  4042eb:	83 c5 ff             	add    $0xffffffff,%ebp
  4042ee:	48 81 c3 80 bf ff ff 	add    $0xffffffffffffbf80,%rbx
  4042f5:	66 41 83 c7 ff       	add    $0xffff,%r15w
  4042fa:	75 d4                	jne    4042d0 <teavpn_server_tcp_handler+0x12e0>
  4042fc:	48 8b bc 24 a0 00 00 	mov    0xa0(%rsp),%rdi
  404303:	00 
  404304:	e8 77 df ff ff       	call   402280 <free@plt>
  404309:	48 8b bc 24 b0 00 00 	mov    0xb0(%rsp),%rdi
  404310:	00 
  404311:	e8 6a df ff ff       	call   402280 <free@plt>
  404316:	48 8b bc 24 b8 00 00 	mov    0xb8(%rsp),%rdi
  40431d:	00 
  40431e:	e8 5d df ff ff       	call   402280 <free@plt>
  404323:	48 8b bc 24 c0 00 00 	mov    0xc0(%rsp),%rdi
  40432a:	00 
  40432b:	e8 50 df ff ff       	call   402280 <free@plt>
  404330:	48 8b bc 24 d0 00 00 	mov    0xd0(%rsp),%rdi
  404337:	00 
  404338:	e8 43 df ff ff       	call   402280 <free@plt>
  40433d:	64 48 8b 04 25 28 00 	mov    %fs:0x28,%rax
  404344:	00 00 
  404346:	48 3b 84 24 e0 41 00 	cmp    0x41e0(%rsp),%rax
  40434d:	00 
  40434e:	0f 85 d2 01 00 00    	jne    404526 <teavpn_server_tcp_handler+0x1536>
  404354:	44 89 e0             	mov    %r12d,%eax
  404357:	48 81 c4 e8 41 00 00 	add    $0x41e8,%rsp
  40435e:	5b                   	pop    %rbx
  40435f:	41 5c                	pop    %r12
  404361:	41 5d                	pop    %r13
  404363:	41 5e                	pop    %r14
  404365:	41 5f                	pop    %r15
  404367:	5d                   	pop    %rbp
  404368:	c3                   	ret    
  404369:	e8 c2 dc ff ff       	call   402030 <__errno_location@plt>
  40436e:	8b 18                	mov    (%rax),%ebx
  404370:	89 df                	mov    %ebx,%edi
  404372:	e8 39 dd ff ff       	call   4020b0 <strerror@plt>
  404377:	48 8d 3d 13 4d 00 00 	lea    0x4d13(%rip),%rdi        # 409091 <_IO_stdin_used+0x91>
  40437e:	89 de                	mov    %ebx,%esi
  404380:	48 89 c2             	mov    %rax,%rdx
  404383:	31 c0                	xor    %eax,%eax
  404385:	e8 66 37 00 00       	call   407af0 <__pr_error>
  40438a:	e9 95 fe ff ff       	jmp    404224 <teavpn_server_tcp_handler+0x1234>
  40438f:	e8 9c dc ff ff       	call   402030 <__errno_location@plt>
  404394:	8b 18                	mov    (%rax),%ebx
  404396:	89 df                	mov    %ebx,%edi
  404398:	e8 13 dd ff ff       	call   4020b0 <strerror@plt>
  40439d:	48 8d 3d a8 4e 00 00 	lea    0x4ea8(%rip),%rdi        # 40924c <_IO_stdin_used+0x24c>
  4043a4:	89 de                	mov    %ebx,%esi
  4043a6:	48 89 c2             	mov    %rax,%rdx
  4043a9:	31 c0                	xor    %eax,%eax
  4043ab:	e8 40 37 00 00       	call   407af0 <__pr_error>
  4043b0:	41 bc ff ff ff ff    	mov    $0xffffffff,%r12d
  4043b6:	85 ed                	test   %ebp,%ebp
  4043b8:	0f 8e 6c fe ff ff    	jle    40422a <teavpn_server_tcp_handler+0x123a>
  4043be:	89 ef                	mov    %ebp,%edi
  4043c0:	e8 5b e0 ff ff       	call   402420 <close@plt>
  4043c5:	e9 60 fe ff ff       	jmp    40422a <teavpn_server_tcp_handler+0x123a>
  4043ca:	48 8d 3d 13 4d 00 00 	lea    0x4d13(%rip),%rdi        # 4090e4 <_IO_stdin_used+0xe4>
  4043d1:	31 c0                	xor    %eax,%eax
  4043d3:	e8 18 37 00 00       	call   407af0 <__pr_error>
  4043d8:	89 df                	mov    %ebx,%edi
  4043da:	e8 41 e0 ff ff       	call   402420 <close@plt>
  4043df:	e9 40 fe ff ff       	jmp    404224 <teavpn_server_tcp_handler+0x1234>
  4043e4:	e8 47 dc ff ff       	call   402030 <__errno_location@plt>
  4043e9:	8b 18                	mov    (%rax),%ebx
  4043eb:	41 89 dc             	mov    %ebx,%r12d
  4043ee:	41 f7 dc             	neg    %r12d
  4043f1:	89 df                	mov    %ebx,%edi
  4043f3:	e8 b8 dc ff ff       	call   4020b0 <strerror@plt>
  4043f8:	48 8d 3d 26 4d 00 00 	lea    0x4d26(%rip),%rdi        # 409125 <_IO_stdin_used+0x125>
  4043ff:	89 de                	mov    %ebx,%esi
  404401:	48 89 c2             	mov    %rax,%rdx
  404404:	31 c0                	xor    %eax,%eax
  404406:	e8 e5 36 00 00       	call   407af0 <__pr_error>
  40440b:	e9 df 00 00 00       	jmp    4044ef <teavpn_server_tcp_handler+0x14ff>
  404410:	e8 1b dc ff ff       	call   402030 <__errno_location@plt>
  404415:	8b 18                	mov    (%rax),%ebx
  404417:	89 df                	mov    %ebx,%edi
  404419:	e8 92 dc ff ff       	call   4020b0 <strerror@plt>
  40441e:	48 8d 3d 0f 4e 00 00 	lea    0x4e0f(%rip),%rdi        # 409234 <_IO_stdin_used+0x234>
  404425:	e9 54 ff ff ff       	jmp    40437e <teavpn_server_tcp_handler+0x138e>
  40442a:	41 89 c4             	mov    %eax,%r12d
  40442d:	4c 8d 3d 6b 4d 00 00 	lea    0x4d6b(%rip),%r15        # 40919f <_IO_stdin_used+0x19f>
  404434:	eb 41                	jmp    404477 <teavpn_server_tcp_handler+0x1487>
  404436:	41 89 c4             	mov    %eax,%r12d
  404439:	4c 8d 3d 78 4d 00 00 	lea    0x4d78(%rip),%r15        # 4091b8 <_IO_stdin_used+0x1b8>
  404440:	4c 8d 35 65 4d 00 00 	lea    0x4d65(%rip),%r14        # 4091ac <_IO_stdin_used+0x1ac>
  404447:	eb 2e                	jmp    404477 <teavpn_server_tcp_handler+0x1487>
  404449:	41 89 c4             	mov    %eax,%r12d
  40444c:	4c 8d 3d 71 4d 00 00 	lea    0x4d71(%rip),%r15        # 4091c4 <_IO_stdin_used+0x1c4>
  404453:	eb 22                	jmp    404477 <teavpn_server_tcp_handler+0x1487>
  404455:	41 89 c4             	mov    %eax,%r12d
  404458:	4c 8d 3d 75 4d 00 00 	lea    0x4d75(%rip),%r15        # 4091d4 <_IO_stdin_used+0x1d4>
  40445f:	eb 16                	jmp    404477 <teavpn_server_tcp_handler+0x1487>
  404461:	41 89 c4             	mov    %eax,%r12d
  404464:	4c 8d 3d 78 4d 00 00 	lea    0x4d78(%rip),%r15        # 4091e3 <_IO_stdin_used+0x1e3>
  40446b:	eb 0a                	jmp    404477 <teavpn_server_tcp_handler+0x1487>
  40446d:	41 89 c4             	mov    %eax,%r12d
  404470:	4c 8d 3d 7b 4d 00 00 	lea    0x4d7b(%rip),%r15        # 4091f2 <_IO_stdin_used+0x1f2>
  404477:	e8 b4 db ff ff       	call   402030 <__errno_location@plt>
  40447c:	8b 18                	mov    (%rax),%ebx
  40447e:	89 df                	mov    %ebx,%edi
  404480:	e8 2b dc ff ff       	call   4020b0 <strerror@plt>
  404485:	48 8d 3d 73 4d 00 00 	lea    0x4d73(%rip),%rdi        # 4091ff <_IO_stdin_used+0x1ff>
  40448c:	4c 89 f6             	mov    %r14,%rsi
  40448f:	4c 89 fa             	mov    %r15,%rdx
  404492:	89 d9                	mov    %ebx,%ecx
  404494:	49 89 c0             	mov    %rax,%r8
  404497:	31 c0                	xor    %eax,%eax
  404499:	e8 52 36 00 00       	call   407af0 <__pr_error>
  40449e:	eb 44                	jmp    4044e4 <teavpn_server_tcp_handler+0x14f4>
  4044a0:	e8 8b db ff ff       	call   402030 <__errno_location@plt>
  4044a5:	8b 18                	mov    (%rax),%ebx
  4044a7:	41 89 dc             	mov    %ebx,%r12d
  4044aa:	41 f7 dc             	neg    %r12d
  4044ad:	89 df                	mov    %ebx,%edi
  4044af:	e8 fc db ff ff       	call   4020b0 <strerror@plt>
  4044b4:	48 8d 3d a1 4c 00 00 	lea    0x4ca1(%rip),%rdi        # 40915c <_IO_stdin_used+0x15c>
  4044bb:	eb 1b                	jmp    4044d8 <teavpn_server_tcp_handler+0x14e8>
  4044bd:	e8 6e db ff ff       	call   402030 <__errno_location@plt>
  4044c2:	8b 18                	mov    (%rax),%ebx
  4044c4:	41 89 dc             	mov    %ebx,%r12d
  4044c7:	41 f7 dc             	neg    %r12d
  4044ca:	89 df                	mov    %ebx,%edi
  4044cc:	e8 df db ff ff       	call   4020b0 <strerror@plt>
  4044d1:	48 8d 3d 94 4c 00 00 	lea    0x4c94(%rip),%rdi        # 40916c <_IO_stdin_used+0x16c>
  4044d8:	89 de                	mov    %ebx,%esi
  4044da:	48 89 c2             	mov    %rax,%rdx
  4044dd:	31 c0                	xor    %eax,%eax
  4044df:	e8 0c 36 00 00       	call   407af0 <__pr_error>
  4044e4:	85 ed                	test   %ebp,%ebp
  4044e6:	7e 07                	jle    4044ef <teavpn_server_tcp_handler+0x14ff>
  4044e8:	89 ef                	mov    %ebp,%edi
  4044ea:	e8 31 df ff ff       	call   402420 <close@plt>
  4044ef:	45 85 e4             	test   %r12d,%r12d
  4044f2:	0f 89 e9 f0 ff ff    	jns    4035e1 <teavpn_server_tcp_handler+0x5f1>
  4044f8:	e9 2d fd ff ff       	jmp    40422a <teavpn_server_tcp_handler+0x123a>
  4044fd:	89 df                	mov    %ebx,%edi
  4044ff:	e8 ac db ff ff       	call   4020b0 <strerror@plt>
  404504:	48 8d 3d a9 4d 00 00 	lea    0x4da9(%rip),%rdi        # 4092b4 <_IO_stdin_used+0x2b4>
  40450b:	89 ee                	mov    %ebp,%esi
  40450d:	89 da                	mov    %ebx,%edx
  40450f:	48 89 c1             	mov    %rax,%rcx
  404512:	31 c0                	xor    %eax,%eax
  404514:	e8 d7 35 00 00       	call   407af0 <__pr_error>
  404519:	e9 0c fd ff ff       	jmp    40422a <teavpn_server_tcp_handler+0x123a>
  40451e:	45 31 e4             	xor    %r12d,%r12d
  404521:	e9 04 fd ff ff       	jmp    40422a <teavpn_server_tcp_handler+0x123a>
  404526:	e8 15 dd ff ff       	call   402240 <__stack_chk_fail@plt>
  40452b:	0f 1f 44 00 00       	nopl   0x0(%rax,%rax,1)

0000000000404530 <handle_interrupt>:
  404530:	53                   	push   %rbx
  404531:	89 fb                	mov    %edi,%ebx
  404533:	48 8b 05 7e 9d 00 00 	mov    0x9d7e(%rip),%rax        # 40e2b8 <g_state>
  40453a:	c6 40 0c 01          	movb   $0x1,0xc(%rax)
  40453e:	48 8b 05 8b 9a 00 00 	mov    0x9a8b(%rip),%rax        # 40dfd0 <stdout@GLIBC_2.2.5>
  404545:	48 8b 30             	mov    (%rax),%rsi
  404548:	bf 0a 00 00 00       	mov    $0xa,%edi
  40454d:	e8 be de ff ff       	call   402410 <putc@plt>
  404552:	89 df                	mov    %ebx,%edi
  404554:	e8 77 de ff ff       	call   4023d0 <strsignal@plt>
  404559:	48 8d 3d 12 4b 00 00 	lea    0x4b12(%rip),%rdi        # 409072 <_IO_stdin_used+0x72>
  404560:	89 de                	mov    %ebx,%esi
  404562:	48 89 c2             	mov    %rax,%rdx
  404565:	31 c0                	xor    %eax,%eax
  404567:	5b                   	pop    %rbx
  404568:	e9 33 3a 00 00       	jmp    407fa0 <__pr_notice>
  40456d:	0f 1f 00             	nopl   (%rax)

0000000000404570 <teavpn_server_argv_parse>:
  404570:	55                   	push   %rbp
  404571:	41 57                	push   %r15
  404573:	41 56                	push   %r14
  404575:	41 55                	push   %r13
  404577:	41 54                	push   %r12
  404579:	53                   	push   %rbx
  40457a:	48 83 ec 18          	sub    $0x18,%rsp
  40457e:	48 89 d3             	mov    %rdx,%rbx
  404581:	49 89 f6             	mov    %rsi,%r14
  404584:	89 fd                	mov    %edi,%ebp
  404586:	64 48 8b 04 25 28 00 	mov    %fs:0x28,%rax
  40458d:	00 00 
  40458f:	48 89 44 24 10       	mov    %rax,0x10(%rsp)
  404594:	48 8b 06             	mov    (%rsi),%rax
  404597:	48 89 04 24          	mov    %rax,(%rsp)
  40459b:	48 8d 05 8e 9c 00 00 	lea    0x9c8e(%rip),%rax        # 40e230 <d_srv_cfg_file>
  4045a2:	48 89 02             	mov    %rax,(%rdx)
  4045a5:	48 c7 42 08 00 00 00 	movq   $0x0,0x8(%rdx)
  4045ac:	00 
  4045ad:	0f b7 05 8e 9c 00 00 	movzwl 0x9c8e(%rip),%eax        # 40e242 <d_srv_mtu>
  4045b4:	66 89 42 10          	mov    %ax,0x10(%rdx)
  4045b8:	48 8d 05 85 9c 00 00 	lea    0x9c85(%rip),%rax        # 40e244 <d_srv_dev>
  4045bf:	48 89 42 18          	mov    %rax,0x18(%rdx)
  4045c3:	48 8d 05 82 9c 00 00 	lea    0x9c82(%rip),%rax        # 40e24c <d_srv_ipv4>
  4045ca:	48 89 42 20          	mov    %rax,0x20(%rdx)
  4045ce:	48 8d 05 80 9c 00 00 	lea    0x9c80(%rip),%rax        # 40e255 <d_srv_ipv4_netmask>
  4045d5:	48 89 42 28          	mov    %rax,0x28(%rdx)
  4045d9:	8b 05 e1 9c 00 00    	mov    0x9ce1(%rip),%eax        # 40e2c0 <d_srv_sock_type>
  4045df:	89 42 30             	mov    %eax,0x30(%rdx)
  4045e2:	48 8d 05 7a 9c 00 00 	lea    0x9c7a(%rip),%rax        # 40e263 <d_srv_bind_addr>
  4045e9:	48 89 42 38          	mov    %rax,0x38(%rdx)
  4045ed:	0f b7 05 78 9c 00 00 	movzwl 0x9c78(%rip),%eax        # 40e26c <d_srv_bind_port>
  4045f4:	66 89 42 40          	mov    %ax,0x40(%rdx)
  4045f8:	0f b7 05 6f 9c 00 00 	movzwl 0x9c6f(%rip),%eax        # 40e26e <d_srv_max_conn>
  4045ff:	66 89 42 42          	mov    %ax,0x42(%rdx)
  404603:	8b 05 67 9c 00 00    	mov    0x9c67(%rip),%eax        # 40e270 <d_srv_backlog>
  404609:	89 42 44             	mov    %eax,0x44(%rdx)
  40460c:	83 c5 ff             	add    $0xffffffff,%ebp
  40460f:	49 83 c6 08          	add    $0x8,%r14
  404613:	4c 8d 2d 76 94 00 00 	lea    0x9476(%rip),%r13        # 40da90 <long_opt>
  40461a:	4c 8d 7c 24 0c       	lea    0xc(%rsp),%r15
  40461f:	4c 8d 25 0a 51 00 00 	lea    0x510a(%rip),%r12        # 409730 <_IO_stdin_used+0x730>
  404626:	66 2e 0f 1f 84 00 00 	cs nopw 0x0(%rax,%rax,1)
  40462d:	00 00 00 
  404630:	c7 44 24 0c 00 00 00 	movl   $0x0,0xc(%rsp)
  404637:	00 
  404638:	89 ef                	mov    %ebp,%edi
  40463a:	4c 89 f6             	mov    %r14,%rsi
  40463d:	48 8d 15 cc 52 00 00 	lea    0x52cc(%rip),%rdx        # 409910 <short_opt>
  404644:	4c 89 e9             	mov    %r13,%rcx
  404647:	4d 89 f8             	mov    %r15,%r8
  40464a:	e8 61 dd ff ff       	call   4023b0 <getopt_long@plt>
  40464f:	83 c0 01             	add    $0x1,%eax
  404652:	83 f8 77             	cmp    $0x77,%eax
  404655:	0f 87 c8 01 00 00    	ja     404823 <teavpn_server_argv_parse+0x2b3>
  40465b:	49 63 04 84          	movslq (%r12,%rax,4),%rax
  40465f:	4c 01 e0             	add    %r12,%rax
  404662:	ff e0                	jmp    *%rax
  404664:	48 8b 05 6d 99 00 00 	mov    0x996d(%rip),%rax        # 40dfd8 <optarg@GLIBC_2.2.5>
  40466b:	48 8b 38             	mov    (%rax),%rdi
  40466e:	be 20 00 00 00       	mov    $0x20,%esi
  404673:	e8 c8 26 00 00       	call   406d40 <trunc_str>
  404678:	48 89 43 20          	mov    %rax,0x20(%rbx)
  40467c:	eb b2                	jmp    404630 <teavpn_server_argv_parse+0xc0>
  40467e:	48 8b 05 53 99 00 00 	mov    0x9953(%rip),%rax        # 40dfd8 <optarg@GLIBC_2.2.5>
  404685:	48 8b 38             	mov    (%rax),%rdi
  404688:	be 20 00 00 00       	mov    $0x20,%esi
  40468d:	e8 ae 26 00 00       	call   406d40 <trunc_str>
  404692:	48 89 43 18          	mov    %rax,0x18(%rbx)
  404696:	eb 98                	jmp    404630 <teavpn_server_argv_parse+0xc0>
  404698:	48 8b 05 39 99 00 00 	mov    0x9939(%rip),%rax        # 40dfd8 <optarg@GLIBC_2.2.5>
  40469f:	48 8b 38             	mov    (%rax),%rdi
  4046a2:	be 06 00 00 00       	mov    $0x6,%esi
  4046a7:	e8 94 26 00 00       	call   406d40 <trunc_str>
  4046ac:	48 89 c7             	mov    %rax,%rdi
  4046af:	31 f6                	xor    %esi,%esi
  4046b1:	ba 0a 00 00 00       	mov    $0xa,%edx
  4046b6:	e8 35 dc ff ff       	call   4022f0 <strtol@plt>
  4046bb:	66 89 43 10          	mov    %ax,0x10(%rbx)
  4046bf:	e9 6c ff ff ff       	jmp    404630 <teavpn_server_argv_parse+0xc0>
  4046c4:	48 8b 05 0d 99 00 00 	mov    0x990d(%rip),%rax        # 40dfd8 <optarg@GLIBC_2.2.5>
  4046cb:	48 8b 38             	mov    (%rax),%rdi
  4046ce:	be ff 00 00 00       	mov    $0xff,%esi
  4046d3:	e8 68 26 00 00       	call   406d40 <trunc_str>
  4046d8:	48 89 43 38          	mov    %rax,0x38(%rbx)
  4046dc:	e9 4f ff ff ff       	jmp    404630 <teavpn_server_argv_parse+0xc0>
  4046e1:	48 8b 05 f0 98 00 00 	mov    0x98f0(%rip),%rax        # 40dfd8 <optarg@GLIBC_2.2.5>
  4046e8:	48 8b 38             	mov    (%rax),%rdi
  4046eb:	be 20 00 00 00       	mov    $0x20,%esi
  4046f0:	e8 4b 26 00 00       	call   406d40 <trunc_str>
  4046f5:	48 89 43 28          	mov    %rax,0x28(%rbx)
  4046f9:	e9 32 ff ff ff       	jmp    404630 <teavpn_server_argv_parse+0xc0>
  4046fe:	48 8b 05 d3 98 00 00 	mov    0x98d3(%rip),%rax        # 40dfd8 <optarg@GLIBC_2.2.5>
  404705:	48 8b 38             	mov    (%rax),%rdi
  404708:	be ff 00 00 00       	mov    $0xff,%esi
  40470d:	e8 2e 26 00 00       	call   406d40 <trunc_str>
  404712:	48 89 43 08          	mov    %rax,0x8(%rbx)
  404716:	e9 15 ff ff ff       	jmp    404630 <teavpn_server_argv_parse+0xc0>
  40471b:	48 8b 05 b6 98 00 00 	mov    0x98b6(%rip),%rax        # 40dfd8 <optarg@GLIBC_2.2.5>
  404722:	48 8b 38             	mov    (%rax),%rdi
  404725:	be ff 00 00 00       	mov    $0xff,%esi
  40472a:	e8 11 26 00 00       	call   406d40 <trunc_str>
  40472f:	48 89 03             	mov    %rax,(%rbx)
  404732:	e9 f9 fe ff ff       	jmp    404630 <teavpn_server_argv_parse+0xc0>
  404737:	48 8b 05 9a 98 00 00 	mov    0x989a(%rip),%rax        # 40dfd8 <optarg@GLIBC_2.2.5>
  40473e:	48 8b 38             	mov    (%rax),%rdi
  404741:	be 06 00 00 00       	mov    $0x6,%esi
  404746:	e8 f5 25 00 00       	call   406d40 <trunc_str>
  40474b:	48 89 c7             	mov    %rax,%rdi
  40474e:	31 f6                	xor    %esi,%esi
  404750:	ba 0a 00 00 00       	mov    $0xa,%edx
  404755:	e8 96 db ff ff       	call   4022f0 <strtol@plt>
  40475a:	89 43 44             	mov    %eax,0x44(%rbx)
  40475d:	e9 ce fe ff ff       	jmp    404630 <teavpn_server_argv_parse+0xc0>
  404762:	48 8b 05 6f 98 00 00 	mov    0x986f(%rip),%rax        # 40dfd8 <optarg@GLIBC_2.2.5>
  404769:	48 8b 38             	mov    (%rax),%rdi
  40476c:	be 06 00 00 00       	mov    $0x6,%esi
  404771:	e8 ca 25 00 00       	call   406d40 <trunc_str>
  404776:	48 89 c7             	mov    %rax,%rdi
  404779:	31 f6                	xor    %esi,%esi
  40477b:	ba 0a 00 00 00       	mov    $0xa,%edx
  404780:	e8 6b db ff ff       	call   4022f0 <strtol@plt>
  404785:	66 89 43 42          	mov    %ax,0x42(%rbx)
  404789:	e9 a2 fe ff ff       	jmp    404630 <teavpn_server_argv_parse+0xc0>
  40478e:	c7 44 24 08 00 00 00 	movl   $0x0,0x8(%rsp)
  404795:	00 
  404796:	48 8b 05 3b 98 00 00 	mov    0x983b(%rip),%rax        # 40dfd8 <optarg@GLIBC_2.2.5>
  40479d:	48 8b 30             	mov    (%rax),%rsi
  4047a0:	ba 03 00 00 00       	mov    $0x3,%edx
  4047a5:	48 8d 7c 24 08       	lea    0x8(%rsp),%rdi
  4047aa:	e8 61 d9 ff ff       	call   402110 <strncpy@plt>
  4047af:	81 4c 24 08 20 20 20 	orl    $0x20202020,0x8(%rsp)
  4047b6:	20 
  4047b7:	c6 44 24 0b 00       	movb   $0x0,0xb(%rsp)
  4047bc:	31 c0                	xor    %eax,%eax
  4047be:	8b 4c 24 08          	mov    0x8(%rsp),%ecx
  4047c2:	81 f9 74 63 70 00    	cmp    $0x706374,%ecx
  4047c8:	74 0d                	je     4047d7 <teavpn_server_argv_parse+0x267>
  4047ca:	81 f9 75 64 70 00    	cmp    $0x706475,%ecx
  4047d0:	75 39                	jne    40480b <teavpn_server_argv_parse+0x29b>
  4047d2:	b8 01 00 00 00       	mov    $0x1,%eax
  4047d7:	89 43 30             	mov    %eax,0x30(%rbx)
  4047da:	e9 51 fe ff ff       	jmp    404630 <teavpn_server_argv_parse+0xc0>
  4047df:	48 8b 05 f2 97 00 00 	mov    0x97f2(%rip),%rax        # 40dfd8 <optarg@GLIBC_2.2.5>
  4047e6:	48 8b 38             	mov    (%rax),%rdi
  4047e9:	be 06 00 00 00       	mov    $0x6,%esi
  4047ee:	e8 4d 25 00 00       	call   406d40 <trunc_str>
  4047f3:	48 89 c7             	mov    %rax,%rdi
  4047f6:	31 f6                	xor    %esi,%esi
  4047f8:	ba 0a 00 00 00       	mov    $0xa,%edx
  4047fd:	e8 ee da ff ff       	call   4022f0 <strtol@plt>
  404802:	66 89 43 40          	mov    %ax,0x40(%rbx)
  404806:	e9 25 fe ff ff       	jmp    404630 <teavpn_server_argv_parse+0xc0>
  40480b:	48 8b 05 c6 97 00 00 	mov    0x97c6(%rip),%rax        # 40dfd8 <optarg@GLIBC_2.2.5>
  404812:	48 8b 30             	mov    (%rax),%rsi
  404815:	48 8d 3d 0d 51 00 00 	lea    0x510d(%rip),%rdi        # 409929 <short_opt+0x19>
  40481c:	31 c0                	xor    %eax,%eax
  40481e:	e8 cd 32 00 00       	call   407af0 <__pr_error>
  404823:	b8 ff ff ff ff       	mov    $0xffffffff,%eax
  404828:	64 48 8b 0c 25 28 00 	mov    %fs:0x28,%rcx
  40482f:	00 00 
  404831:	48 3b 4c 24 10       	cmp    0x10(%rsp),%rcx
  404836:	75 21                	jne    404859 <teavpn_server_argv_parse+0x2e9>
  404838:	48 83 c4 18          	add    $0x18,%rsp
  40483c:	5b                   	pop    %rbx
  40483d:	41 5c                	pop    %r12
  40483f:	41 5d                	pop    %r13
  404841:	41 5e                	pop    %r14
  404843:	41 5f                	pop    %r15
  404845:	5d                   	pop    %rbp
  404846:	c3                   	ret    
  404847:	31 c0                	xor    %eax,%eax
  404849:	64 48 8b 0c 25 28 00 	mov    %fs:0x28,%rcx
  404850:	00 00 
  404852:	48 3b 4c 24 10       	cmp    0x10(%rsp),%rcx
  404857:	74 df                	je     404838 <teavpn_server_argv_parse+0x2c8>
  404859:	e8 e2 d9 ff ff       	call   402240 <__stack_chk_fail@plt>
  40485e:	e8 7d 32 00 00       	call   407ae0 <teavpn_print_version>
  404863:	31 ff                	xor    %edi,%edi
  404865:	e8 26 da ff ff       	call   402290 <exit@plt>
  40486a:	48 8b 3c 24          	mov    (%rsp),%rdi
  40486e:	e8 4d 09 00 00       	call   4051c0 <teavpn_server_show_help>
  404873:	31 ff                	xor    %edi,%edi
  404875:	e8 16 da ff ff       	call   402290 <exit@plt>
  40487a:	66 0f 1f 44 00 00    	nopw   0x0(%rax,%rax,1)

0000000000404880 <teavpn_server_auth>:
  404880:	55                   	push   %rbp
  404881:	41 57                	push   %r15
  404883:	41 56                	push   %r14
  404885:	41 55                	push   %r13
  404887:	41 54                	push   %r12
  404889:	53                   	push   %rbx
  40488a:	48 81 ec 98 04 00 00 	sub    $0x498,%rsp
  404891:	49 89 ce             	mov    %rcx,%r14
  404894:	48 89 d3             	mov    %rdx,%rbx
  404897:	49 89 f7             	mov    %rsi,%r15
  40489a:	64 48 8b 04 25 28 00 	mov    %fs:0x28,%rax
  4048a1:	00 00 
  4048a3:	48 89 84 24 90 04 00 	mov    %rax,0x490(%rsp)
  4048aa:	00 
  4048ab:	4c 8b 67 08          	mov    0x8(%rdi),%r12
  4048af:	48 8d 7c 24 08       	lea    0x8(%rsp),%rdi
  4048b4:	31 ed                	xor    %ebp,%ebp
  4048b6:	ba 88 04 00 00       	mov    $0x488,%edx
  4048bb:	31 f6                	xor    %esi,%esi
  4048bd:	e8 5e d8 ff ff       	call   402120 <memset@plt>
  4048c2:	48 b8 03 00 00 00 00 	movabs $0x4000000000003,%rax
  4048c9:	00 04 00 
  4048cc:	eb 0c                	jmp    4048da <teavpn_server_auth+0x5a>
  4048ce:	66 90                	xchg   %ax,%ax
  4048d0:	48 83 c5 02          	add    $0x2,%rbp
  4048d4:	66 83 fd 40          	cmp    $0x40,%bp
  4048d8:	74 63                	je     40493d <teavpn_server_auth+0xbd>
  4048da:	0f b6 0c 2b          	movzbl (%rbx,%rbp,1),%ecx
  4048de:	84 c9                	test   %cl,%cl
  4048e0:	0f 84 8a 00 00 00    	je     404970 <teavpn_server_auth+0xf0>
  4048e6:	8d 51 d0             	lea    -0x30(%rcx),%edx
  4048e9:	80 fa 0a             	cmp    $0xa,%dl
  4048ec:	72 0d                	jb     4048fb <teavpn_server_auth+0x7b>
  4048ee:	89 ca                	mov    %ecx,%edx
  4048f0:	80 e2 df             	and    $0xdf,%dl
  4048f3:	80 c2 bf             	add    $0xbf,%dl
  4048f6:	80 fa 1a             	cmp    $0x1a,%dl
  4048f9:	73 31                	jae    40492c <teavpn_server_auth+0xac>
  4048fb:	0f b6 4c 2b 01       	movzbl 0x1(%rbx,%rbp,1),%ecx
  404900:	84 c9                	test   %cl,%cl
  404902:	74 6c                	je     404970 <teavpn_server_auth+0xf0>
  404904:	8d 51 d0             	lea    -0x30(%rcx),%edx
  404907:	80 fa 0a             	cmp    $0xa,%dl
  40490a:	72 c4                	jb     4048d0 <teavpn_server_auth+0x50>
  40490c:	89 ca                	mov    %ecx,%edx
  40490e:	80 e2 df             	and    $0xdf,%dl
  404911:	80 c2 bf             	add    $0xbf,%dl
  404914:	80 fa 1a             	cmp    $0x1a,%dl
  404917:	72 b7                	jb     4048d0 <teavpn_server_auth+0x50>
  404919:	80 c1 d3             	add    $0xd3,%cl
  40491c:	80 f9 32             	cmp    $0x32,%cl
  40491f:	77 1c                	ja     40493d <teavpn_server_auth+0xbd>
  404921:	0f b6 c9             	movzbl %cl,%ecx
  404924:	48 0f a3 c8          	bt     %rcx,%rax
  404928:	72 a6                	jb     4048d0 <teavpn_server_auth+0x50>
  40492a:	eb 11                	jmp    40493d <teavpn_server_auth+0xbd>
  40492c:	80 c1 d3             	add    $0xd3,%cl
  40492f:	80 f9 32             	cmp    $0x32,%cl
  404932:	77 09                	ja     40493d <teavpn_server_auth+0xbd>
  404934:	0f b6 c9             	movzbl %cl,%ecx
  404937:	48 0f a3 c8          	bt     %rcx,%rax
  40493b:	72 be                	jb     4048fb <teavpn_server_auth+0x7b>
  40493d:	c6 43 3f 00          	movb   $0x0,0x3f(%rbx)
  404941:	48 8d 3d 58 50 00 00 	lea    0x5058(%rip),%rdi        # 4099a0 <short_opt+0x90>
  404948:	31 ed                	xor    %ebp,%ebp
  40494a:	48 89 de             	mov    %rbx,%rsi
  40494d:	31 c0                	xor    %eax,%eax
  40494f:	e8 4c 36 00 00       	call   407fa0 <__pr_notice>
  404954:	64 48 8b 04 25 28 00 	mov    %fs:0x28,%rax
  40495b:	00 00 
  40495d:	48 3b 84 24 90 04 00 	cmp    0x490(%rsp),%rax
  404964:	00 
  404965:	0f 84 af 00 00 00    	je     404a1a <teavpn_server_auth+0x19a>
  40496b:	e9 f7 00 00 00       	jmp    404a67 <teavpn_server_auth+0x1e7>
  404970:	4c 8d 6c 24 10       	lea    0x10(%rsp),%r13
  404975:	48 8d 15 3b 50 00 00 	lea    0x503b(%rip),%rdx        # 4099b7 <short_opt+0xa7>
  40497c:	be ff 03 00 00       	mov    $0x3ff,%esi
  404981:	4c 89 ef             	mov    %r13,%rdi
  404984:	4c 89 e1             	mov    %r12,%rcx
  404987:	49 89 d8             	mov    %rbx,%r8
  40498a:	31 c0                	xor    %eax,%eax
  40498c:	e8 ff d9 ff ff       	call   402390 <snprintf@plt>
  404991:	48 8d 35 eb 4f 00 00 	lea    0x4feb(%rip),%rsi        # 409983 <short_opt+0x73>
  404998:	4c 89 ef             	mov    %r13,%rdi
  40499b:	e8 c0 d8 ff ff       	call   402260 <fopen@plt>
  4049a0:	48 85 c0             	test   %rax,%rax
  4049a3:	0f 84 85 00 00 00    	je     404a2e <teavpn_server_auth+0x1ae>
  4049a9:	49 89 c4             	mov    %rax,%r12
  4049ac:	4c 89 7c 24 08       	mov    %r15,0x8(%rsp)
  4049b1:	48 8d 35 e8 00 00 00 	lea    0xe8(%rip),%rsi        # 404aa0 <auth_parser_handler>
  4049b8:	48 8d 54 24 08       	lea    0x8(%rsp),%rdx
  4049bd:	48 89 c7             	mov    %rax,%rdi
  4049c0:	e8 db e4 ff ff       	call   402ea0 <ini_parse_file>
  4049c5:	85 c0                	test   %eax,%eax
  4049c7:	0f 88 9f 00 00 00    	js     404a6c <teavpn_server_auth+0x1ec>
  4049cd:	48 8d bc 24 50 04 00 	lea    0x450(%rsp),%rdi
  4049d4:	00 
  4049d5:	ba 40 00 00 00       	mov    $0x40,%edx
  4049da:	4c 89 f6             	mov    %r14,%rsi
  4049dd:	e8 fe d6 ff ff       	call   4020e0 <strncmp@plt>
  4049e2:	40 b5 01             	mov    $0x1,%bpl
  4049e5:	85 c0                	test   %eax,%eax
  4049e7:	0f 85 8d 00 00 00    	jne    404a7a <teavpn_server_auth+0x1fa>
  4049ed:	48 8d bc 24 50 04 00 	lea    0x450(%rsp),%rdi
  4049f4:	00 
  4049f5:	be 40 00 00 00       	mov    $0x40,%esi
  4049fa:	e8 71 23 00 00       	call   406d70 <memzero_explicit>
  4049ff:	4c 89 e7             	mov    %r12,%rdi
  404a02:	e8 d9 d7 ff ff       	call   4021e0 <fclose@plt>
  404a07:	64 48 8b 04 25 28 00 	mov    %fs:0x28,%rax
  404a0e:	00 00 
  404a10:	48 3b 84 24 90 04 00 	cmp    0x490(%rsp),%rax
  404a17:	00 
  404a18:	75 4d                	jne    404a67 <teavpn_server_auth+0x1e7>
  404a1a:	89 e8                	mov    %ebp,%eax
  404a1c:	48 81 c4 98 04 00 00 	add    $0x498,%rsp
  404a23:	5b                   	pop    %rbx
  404a24:	41 5c                	pop    %r12
  404a26:	41 5d                	pop    %r13
  404a28:	41 5e                	pop    %r14
  404a2a:	41 5f                	pop    %r15
  404a2c:	5d                   	pop    %rbp
  404a2d:	c3                   	ret    
  404a2e:	e8 fd d5 ff ff       	call   402030 <__errno_location@plt>
  404a33:	8b 18                	mov    (%rax),%ebx
  404a35:	89 df                	mov    %ebx,%edi
  404a37:	e8 74 d6 ff ff       	call   4020b0 <strerror@plt>
  404a3c:	48 8d 3d 84 4f 00 00 	lea    0x4f84(%rip),%rdi        # 4099c7 <short_opt+0xb7>
  404a43:	31 ed                	xor    %ebp,%ebp
  404a45:	89 de                	mov    %ebx,%esi
  404a47:	48 89 c2             	mov    %rax,%rdx
  404a4a:	4c 89 e9             	mov    %r13,%rcx
  404a4d:	31 c0                	xor    %eax,%eax
  404a4f:	e8 4c 35 00 00       	call   407fa0 <__pr_notice>
  404a54:	64 48 8b 04 25 28 00 	mov    %fs:0x28,%rax
  404a5b:	00 00 
  404a5d:	48 3b 84 24 90 04 00 	cmp    0x490(%rsp),%rax
  404a64:	00 
  404a65:	74 b3                	je     404a1a <teavpn_server_auth+0x19a>
  404a67:	e8 d4 d7 ff ff       	call   402240 <__stack_chk_fail@plt>
  404a6c:	48 8d 3d 78 4f 00 00 	lea    0x4f78(%rip),%rdi        # 4099eb <short_opt+0xdb>
  404a73:	31 ed                	xor    %ebp,%ebp
  404a75:	4c 89 ee             	mov    %r13,%rsi
  404a78:	eb 0c                	jmp    404a86 <teavpn_server_auth+0x206>
  404a7a:	48 8d 3d 81 4f 00 00 	lea    0x4f81(%rip),%rdi        # 409a02 <short_opt+0xf2>
  404a81:	31 ed                	xor    %ebp,%ebp
  404a83:	48 89 de             	mov    %rbx,%rsi
  404a86:	31 c0                	xor    %eax,%eax
  404a88:	e8 13 35 00 00       	call   407fa0 <__pr_notice>
  404a8d:	e9 5b ff ff ff       	jmp    4049ed <teavpn_server_auth+0x16d>
  404a92:	66 2e 0f 1f 84 00 00 	cs nopw 0x0(%rax,%rax,1)
  404a99:	00 00 00 
  404a9c:	0f 1f 40 00          	nopl   0x0(%rax)

0000000000404aa0 <auth_parser_handler>:
  404aa0:	55                   	push   %rbp
  404aa1:	41 57                	push   %r15
  404aa3:	41 56                	push   %r14
  404aa5:	41 55                	push   %r13
  404aa7:	41 54                	push   %r12
  404aa9:	53                   	push   %rbx
  404aaa:	50                   	push   %rax
  404aab:	45 89 c7             	mov    %r8d,%r15d
  404aae:	49 89 ce             	mov    %rcx,%r14
  404ab1:	49 89 d4             	mov    %rdx,%r12
  404ab4:	48 89 f5             	mov    %rsi,%rbp
  404ab7:	48 89 fb             	mov    %rdi,%rbx
  404aba:	4c 8b 2f             	mov    (%rdi),%r13
  404abd:	48 8d 35 5d 4f 00 00 	lea    0x4f5d(%rip),%rsi        # 409a21 <short_opt+0x111>
  404ac4:	48 89 ef             	mov    %rbp,%rdi
  404ac7:	e8 14 d8 ff ff       	call   4022e0 <strcmp@plt>
  404acc:	85 c0                	test   %eax,%eax
  404ace:	74 43                	je     404b13 <auth_parser_handler+0x73>
  404ad0:	48 8d 35 61 4f 00 00 	lea    0x4f61(%rip),%rsi        # 409a38 <short_opt+0x128>
  404ad7:	48 89 ef             	mov    %rbp,%rdi
  404ada:	e8 01 d8 ff ff       	call   4022e0 <strcmp@plt>
  404adf:	85 c0                	test   %eax,%eax
  404ae1:	0f 84 90 00 00 00    	je     404b77 <auth_parser_handler+0xd7>
  404ae7:	48 8d 3d 5d 4f 00 00 	lea    0x4f5d(%rip),%rdi        # 409a4b <short_opt+0x13b>
  404aee:	48 89 ee             	mov    %rbp,%rsi
  404af1:	44 89 fa             	mov    %r15d,%edx
  404af4:	31 c0                	xor    %eax,%eax
  404af6:	e8 f5 2f 00 00       	call   407af0 <__pr_error>
  404afb:	c6 83 07 04 00 00 00 	movb   $0x0,0x407(%rbx)
  404b02:	31 c0                	xor    %eax,%eax
  404b04:	48 83 c4 08          	add    $0x8,%rsp
  404b08:	5b                   	pop    %rbx
  404b09:	41 5c                	pop    %r12
  404b0b:	41 5d                	pop    %r13
  404b0d:	41 5e                	pop    %r14
  404b0f:	41 5f                	pop    %r15
  404b11:	5d                   	pop    %rbp
  404b12:	c3                   	ret    
  404b13:	48 8d 35 0c 4f 00 00 	lea    0x4f0c(%rip),%rsi        # 409a26 <short_opt+0x116>
  404b1a:	4c 89 e7             	mov    %r12,%rdi
  404b1d:	e8 be d7 ff ff       	call   4022e0 <strcmp@plt>
  404b22:	85 c0                	test   %eax,%eax
  404b24:	0f 84 a6 00 00 00    	je     404bd0 <auth_parser_handler+0x130>
  404b2a:	48 8d 35 fe 4e 00 00 	lea    0x4efe(%rip),%rsi        # 409a2f <short_opt+0x11f>
  404b31:	4c 89 e7             	mov    %r12,%rdi
  404b34:	e8 a7 d7 ff ff       	call   4022e0 <strcmp@plt>
  404b39:	85 c0                	test   %eax,%eax
  404b3b:	75 73                	jne    404bb0 <auth_parser_handler+0x110>
  404b3d:	48 8d bb 48 04 00 00 	lea    0x448(%rbx),%rdi
  404b44:	ba 3f 00 00 00       	mov    $0x3f,%edx
  404b49:	4c 89 f6             	mov    %r14,%rsi
  404b4c:	e8 bf d5 ff ff       	call   402110 <strncpy@plt>
  404b51:	c6 83 87 04 00 00 00 	movb   $0x0,0x487(%rbx)
  404b58:	be 40 00 00 00       	mov    $0x40,%esi
  404b5d:	4c 89 f7             	mov    %r14,%rdi
  404b60:	e8 1b d8 ff ff       	call   402380 <strnlen@plt>
  404b65:	4c 89 f7             	mov    %r14,%rdi
  404b68:	48 89 c6             	mov    %rax,%rsi
  404b6b:	e8 00 22 00 00       	call   406d70 <memzero_explicit>
  404b70:	b8 01 00 00 00       	mov    $0x1,%eax
  404b75:	eb 8d                	jmp    404b04 <auth_parser_handler+0x64>
  404b77:	48 8d 35 e1 4d 00 00 	lea    0x4de1(%rip),%rsi        # 40995f <short_opt+0x4f>
  404b7e:	4c 89 e7             	mov    %r12,%rdi
  404b81:	e8 5a d7 ff ff       	call   4022e0 <strcmp@plt>
  404b86:	85 c0                	test   %eax,%eax
  404b88:	74 6b                	je     404bf5 <auth_parser_handler+0x155>
  404b8a:	48 8d 35 ad 4e 00 00 	lea    0x4ead(%rip),%rsi        # 409a3e <short_opt+0x12e>
  404b91:	4c 89 e7             	mov    %r12,%rdi
  404b94:	e8 47 d7 ff ff       	call   4022e0 <strcmp@plt>
  404b99:	85 c0                	test   %eax,%eax
  404b9b:	74 5e                	je     404bfb <auth_parser_handler+0x15b>
  404b9d:	48 8d 35 b3 4d 00 00 	lea    0x4db3(%rip),%rsi        # 409957 <short_opt+0x47>
  404ba4:	4c 89 e7             	mov    %r12,%rdi
  404ba7:	e8 34 d7 ff ff       	call   4022e0 <strcmp@plt>
  404bac:	85 c0                	test   %eax,%eax
  404bae:	74 69                	je     404c19 <auth_parser_handler+0x179>
  404bb0:	4c 8d 43 08          	lea    0x8(%rbx),%r8
  404bb4:	48 8d 3d b0 4e 00 00 	lea    0x4eb0(%rip),%rdi        # 409a6b <short_opt+0x15b>
  404bbb:	4c 89 e6             	mov    %r12,%rsi
  404bbe:	48 89 ea             	mov    %rbp,%rdx
  404bc1:	44 89 f9             	mov    %r15d,%ecx
  404bc4:	31 c0                	xor    %eax,%eax
  404bc6:	e8 25 2f 00 00       	call   407af0 <__pr_error>
  404bcb:	e9 2b ff ff ff       	jmp    404afb <auth_parser_handler+0x5b>
  404bd0:	48 8d bb 08 04 00 00 	lea    0x408(%rbx),%rdi
  404bd7:	ba 3f 00 00 00       	mov    $0x3f,%edx
  404bdc:	4c 89 f6             	mov    %r14,%rsi
  404bdf:	e8 2c d5 ff ff       	call   402110 <strncpy@plt>
  404be4:	c6 83 47 04 00 00 00 	movb   $0x0,0x447(%rbx)
  404beb:	b8 01 00 00 00       	mov    $0x1,%eax
  404bf0:	e9 0f ff ff ff       	jmp    404b04 <auth_parser_handler+0x64>
  404bf5:	49 83 c5 20          	add    $0x20,%r13
  404bf9:	eb 04                	jmp    404bff <auth_parser_handler+0x15f>
  404bfb:	49 83 c5 30          	add    $0x30,%r13
  404bff:	ba 0f 00 00 00       	mov    $0xf,%edx
  404c04:	4c 89 ef             	mov    %r13,%rdi
  404c07:	4c 89 f6             	mov    %r14,%rsi
  404c0a:	e8 01 d5 ff ff       	call   402110 <strncpy@plt>
  404c0f:	b8 01 00 00 00       	mov    $0x1,%eax
  404c14:	e9 eb fe ff ff       	jmp    404b04 <auth_parser_handler+0x64>
  404c19:	4c 89 f7             	mov    %r14,%rdi
  404c1c:	31 f6                	xor    %esi,%esi
  404c1e:	ba 0a 00 00 00       	mov    $0xa,%edx
  404c23:	e8 c8 d6 ff ff       	call   4022f0 <strtol@plt>
  404c28:	66 41 89 45 50       	mov    %ax,0x50(%r13)
  404c2d:	b8 01 00 00 00       	mov    $0x1,%eax
  404c32:	e9 cd fe ff ff       	jmp    404b04 <auth_parser_handler+0x64>
  404c37:	66 0f 1f 84 00 00 00 	nopw   0x0(%rax,%rax,1)
  404c3e:	00 00 

0000000000404c40 <teavpn_server_cfg_parse>:
  404c40:	55                   	push   %rbp
  404c41:	41 56                	push   %r14
  404c43:	53                   	push   %rbx
  404c44:	48 83 ec 20          	sub    $0x20,%rsp
  404c48:	64 48 8b 04 25 28 00 	mov    %fs:0x28,%rax
  404c4f:	00 00 
  404c51:	48 89 44 24 18       	mov    %rax,0x18(%rsp)
  404c56:	48 8b 1f             	mov    (%rdi),%rbx
  404c59:	c6 44 24 08 01       	movb   $0x1,0x8(%rsp)
  404c5e:	48 89 7c 24 10       	mov    %rdi,0x10(%rsp)
  404c63:	31 ed                	xor    %ebp,%ebp
  404c65:	48 85 db             	test   %rbx,%rbx
  404c68:	0f 84 a1 00 00 00    	je     404d0f <teavpn_server_cfg_parse+0xcf>
  404c6e:	80 3b 00             	cmpb   $0x0,(%rbx)
  404c71:	0f 84 98 00 00 00    	je     404d0f <teavpn_server_cfg_parse+0xcf>
  404c77:	48 8d 35 05 4d 00 00 	lea    0x4d05(%rip),%rsi        # 409983 <short_opt+0x73>
  404c7e:	48 89 df             	mov    %rbx,%rdi
  404c81:	e8 da d5 ff ff       	call   402260 <fopen@plt>
  404c86:	48 85 c0             	test   %rax,%rax
  404c89:	74 3c                	je     404cc7 <teavpn_server_cfg_parse+0x87>
  404c8b:	49 89 c6             	mov    %rax,%r14
  404c8e:	48 8d 35 9b 00 00 00 	lea    0x9b(%rip),%rsi        # 404d30 <parser_handler>
  404c95:	48 8d 54 24 08       	lea    0x8(%rsp),%rdx
  404c9a:	48 89 c7             	mov    %rax,%rdi
  404c9d:	e8 fe e1 ff ff       	call   402ea0 <ini_parse_file>
  404ca2:	85 c0                	test   %eax,%eax
  404ca4:	78 5c                	js     404d02 <teavpn_server_cfg_parse+0xc2>
  404ca6:	31 ed                	xor    %ebp,%ebp
  404ca8:	80 7c 24 08 00       	cmpb   $0x0,0x8(%rsp)
  404cad:	75 58                	jne    404d07 <teavpn_server_cfg_parse+0xc7>
  404caf:	48 8d 3d 0d 4e 00 00 	lea    0x4e0d(%rip),%rdi        # 409ac3 <short_opt+0x1b3>
  404cb6:	48 89 de             	mov    %rbx,%rsi
  404cb9:	31 c0                	xor    %eax,%eax
  404cbb:	e8 30 2e 00 00       	call   407af0 <__pr_error>
  404cc0:	bd ea ff ff ff       	mov    $0xffffffea,%ebp
  404cc5:	eb 40                	jmp    404d07 <teavpn_server_cfg_parse+0xc7>
  404cc7:	48 8d 35 62 95 00 00 	lea    0x9562(%rip),%rsi        # 40e230 <d_srv_cfg_file>
  404cce:	48 89 df             	mov    %rbx,%rdi
  404cd1:	e8 0a d6 ff ff       	call   4022e0 <strcmp@plt>
  404cd6:	85 c0                	test   %eax,%eax
  404cd8:	74 35                	je     404d0f <teavpn_server_cfg_parse+0xcf>
  404cda:	e8 51 d3 ff ff       	call   402030 <__errno_location@plt>
  404cdf:	8b 28                	mov    (%rax),%ebp
  404ce1:	89 ef                	mov    %ebp,%edi
  404ce3:	e8 c8 d3 ff ff       	call   4020b0 <strerror@plt>
  404ce8:	48 8d 3d af 4d 00 00 	lea    0x4daf(%rip),%rdi        # 409a9e <short_opt+0x18e>
  404cef:	48 89 de             	mov    %rbx,%rsi
  404cf2:	89 ea                	mov    %ebp,%edx
  404cf4:	48 89 c1             	mov    %rax,%rcx
  404cf7:	31 c0                	xor    %eax,%eax
  404cf9:	e8 f2 2d 00 00       	call   407af0 <__pr_error>
  404cfe:	f7 dd                	neg    %ebp
  404d00:	eb 0d                	jmp    404d0f <teavpn_server_cfg_parse+0xcf>
  404d02:	bd ff ff ff ff       	mov    $0xffffffff,%ebp
  404d07:	4c 89 f7             	mov    %r14,%rdi
  404d0a:	e8 d1 d4 ff ff       	call   4021e0 <fclose@plt>
  404d0f:	64 48 8b 04 25 28 00 	mov    %fs:0x28,%rax
  404d16:	00 00 
  404d18:	48 3b 44 24 18       	cmp    0x18(%rsp),%rax
  404d1d:	75 0b                	jne    404d2a <teavpn_server_cfg_parse+0xea>
  404d1f:	89 e8                	mov    %ebp,%eax
  404d21:	48 83 c4 20          	add    $0x20,%rsp
  404d25:	5b                   	pop    %rbx
  404d26:	41 5e                	pop    %r14
  404d28:	5d                   	pop    %rbp
  404d29:	c3                   	ret    
  404d2a:	e8 11 d5 ff ff       	call   402240 <__stack_chk_fail@plt>
  404d2f:	90                   	nop

0000000000404d30 <parser_handler>:
  404d30:	55                   	push   %rbp
  404d31:	41 57                	push   %r15
  404d33:	41 56                	push   %r14
  404d35:	41 55                	push   %r13
  404d37:	41 54                	push   %r12
  404d39:	53                   	push   %rbx
  404d3a:	48 83 ec 18          	sub    $0x18,%rsp
  404d3e:	45 89 c7             	mov    %r8d,%r15d
  404d41:	49 89 ce             	mov    %rcx,%r14
  404d44:	49 89 d4             	mov    %rdx,%r12
  404d47:	48 89 f5             	mov    %rsi,%rbp
  404d4a:	48 89 fb             	mov    %rdi,%rbx
  404d4d:	64 48 8b 04 25 28 00 	mov    %fs:0x28,%rax
  404d54:	00 00 
  404d56:	48 89 44 24 10       	mov    %rax,0x10(%rsp)
  404d5b:	4c 8b 6f 08          	mov    0x8(%rdi),%r13
  404d5f:	48 8d 35 7d 4d 00 00 	lea    0x4d7d(%rip),%rsi        # 409ae3 <short_opt+0x1d3>
  404d66:	48 89 ef             	mov    %rbp,%rdi
  404d69:	e8 72 d5 ff ff       	call   4022e0 <strcmp@plt>
  404d6e:	85 c0                	test   %eax,%eax
  404d70:	74 6a                	je     404ddc <parser_handler+0xac>
  404d72:	48 8d 35 87 4d 00 00 	lea    0x4d87(%rip),%rsi        # 409b00 <short_opt+0x1f0>
  404d79:	48 89 ef             	mov    %rbp,%rdi
  404d7c:	e8 5f d5 ff ff       	call   4022e0 <strcmp@plt>
  404d81:	85 c0                	test   %eax,%eax
  404d83:	0f 84 a0 00 00 00    	je     404e29 <parser_handler+0xf9>
  404d89:	48 8d 35 a8 4c 00 00 	lea    0x4ca8(%rip),%rsi        # 409a38 <short_opt+0x128>
  404d90:	48 89 ef             	mov    %rbp,%rdi
  404d93:	e8 48 d5 ff ff       	call   4022e0 <strcmp@plt>
  404d98:	85 c0                	test   %eax,%eax
  404d9a:	0f 84 26 01 00 00    	je     404ec6 <parser_handler+0x196>
  404da0:	48 8d 3d a4 4c 00 00 	lea    0x4ca4(%rip),%rdi        # 409a4b <short_opt+0x13b>
  404da7:	48 89 ee             	mov    %rbp,%rsi
  404daa:	44 89 fa             	mov    %r15d,%edx
  404dad:	31 c0                	xor    %eax,%eax
  404daf:	e8 3c 2d 00 00       	call   407af0 <__pr_error>
  404db4:	c6 03 00             	movb   $0x0,(%rbx)
  404db7:	31 c0                	xor    %eax,%eax
  404db9:	64 48 8b 0c 25 28 00 	mov    %fs:0x28,%rcx
  404dc0:	00 00 
  404dc2:	48 3b 4c 24 10       	cmp    0x10(%rsp),%rcx
  404dc7:	0f 85 ea 02 00 00    	jne    4050b7 <parser_handler+0x387>
  404dcd:	48 83 c4 18          	add    $0x18,%rsp
  404dd1:	5b                   	pop    %rbx
  404dd2:	41 5c                	pop    %r12
  404dd4:	41 5d                	pop    %r13
  404dd6:	41 5e                	pop    %r14
  404dd8:	41 5f                	pop    %r15
  404dda:	5d                   	pop    %rbp
  404ddb:	c3                   	ret    
  404ddc:	48 8d 35 06 4d 00 00 	lea    0x4d06(%rip),%rsi        # 409ae9 <short_opt+0x1d9>
  404de3:	4c 89 e7             	mov    %r12,%rdi
  404de6:	e8 f5 d4 ff ff       	call   4022e0 <strcmp@plt>
  404deb:	85 c0                	test   %eax,%eax
  404ded:	0f 84 4b 01 00 00    	je     404f3e <parser_handler+0x20e>
  404df3:	48 8d 35 f8 4c 00 00 	lea    0x4cf8(%rip),%rsi        # 409af2 <short_opt+0x1e2>
  404dfa:	4c 89 e7             	mov    %r12,%rdi
  404dfd:	e8 de d4 ff ff       	call   4022e0 <strcmp@plt>
  404e02:	85 c0                	test   %eax,%eax
  404e04:	0f 85 18 01 00 00    	jne    404f22 <parser_handler+0x1f2>
  404e0a:	4c 89 f7             	mov    %r14,%rdi
  404e0d:	31 f6                	xor    %esi,%esi
  404e0f:	ba 0a 00 00 00       	mov    $0xa,%edx
  404e14:	e8 d7 d4 ff ff       	call   4022f0 <strtol@plt>
  404e19:	48 8d 0d 88 94 00 00 	lea    0x9488(%rip),%rcx        # 40e2a8 <__notice_level>
  404e20:	88 01                	mov    %al,(%rcx)
  404e22:	b8 01 00 00 00       	mov    $0x1,%eax
  404e27:	eb 90                	jmp    404db9 <parser_handler+0x89>
  404e29:	48 8d 35 d7 4c 00 00 	lea    0x4cd7(%rip),%rsi        # 409b07 <short_opt+0x1f7>
  404e30:	4c 89 e7             	mov    %r12,%rdi
  404e33:	e8 a8 d4 ff ff       	call   4022e0 <strcmp@plt>
  404e38:	85 c0                	test   %eax,%eax
  404e3a:	0f 84 19 01 00 00    	je     404f59 <parser_handler+0x229>
  404e40:	48 8d 35 ca 4c 00 00 	lea    0x4cca(%rip),%rsi        # 409b11 <short_opt+0x201>
  404e47:	4c 89 e7             	mov    %r12,%rdi
  404e4a:	e8 91 d4 ff ff       	call   4022e0 <strcmp@plt>
  404e4f:	85 c0                	test   %eax,%eax
  404e51:	0f 84 4d 01 00 00    	je     404fa4 <parser_handler+0x274>
  404e57:	48 8d 35 bd 4c 00 00 	lea    0x4cbd(%rip),%rsi        # 409b1b <short_opt+0x20b>
  404e5e:	4c 89 e7             	mov    %r12,%rdi
  404e61:	e8 7a d4 ff ff       	call   4022e0 <strcmp@plt>
  404e66:	85 c0                	test   %eax,%eax
  404e68:	0f 84 6c 01 00 00    	je     404fda <parser_handler+0x2aa>
  404e6e:	48 8d 35 b0 4c 00 00 	lea    0x4cb0(%rip),%rsi        # 409b25 <short_opt+0x215>
  404e75:	4c 89 e7             	mov    %r12,%rdi
  404e78:	e8 63 d4 ff ff       	call   4022e0 <strcmp@plt>
  404e7d:	85 c0                	test   %eax,%eax
  404e7f:	0f 84 ab 01 00 00    	je     405030 <parser_handler+0x300>
  404e85:	48 8d 35 0c 4b 00 00 	lea    0x4b0c(%rip),%rsi        # 409998 <short_opt+0x88>
  404e8c:	4c 89 e7             	mov    %r12,%rdi
  404e8f:	e8 4c d4 ff ff       	call   4022e0 <strcmp@plt>
  404e94:	85 c0                	test   %eax,%eax
  404e96:	0f 85 86 00 00 00    	jne    404f22 <parser_handler+0x1f2>
  404e9c:	be 06 00 00 00       	mov    $0x6,%esi
  404ea1:	4c 89 f7             	mov    %r14,%rdi
  404ea4:	e8 b7 19 00 00       	call   406860 <ar_strndup>
  404ea9:	48 89 c7             	mov    %rax,%rdi
  404eac:	31 f6                	xor    %esi,%esi
  404eae:	ba 0a 00 00 00       	mov    $0xa,%edx
  404eb3:	e8 38 d4 ff ff       	call   4022f0 <strtol@plt>
  404eb8:	41 89 45 44          	mov    %eax,0x44(%r13)
  404ebc:	b8 01 00 00 00       	mov    $0x1,%eax
  404ec1:	e9 f3 fe ff ff       	jmp    404db9 <parser_handler+0x89>
  404ec6:	48 8d 35 8e 4a 00 00 	lea    0x4a8e(%rip),%rsi        # 40995b <short_opt+0x4b>
  404ecd:	4c 89 e7             	mov    %r12,%rdi
  404ed0:	e8 0b d4 ff ff       	call   4022e0 <strcmp@plt>
  404ed5:	85 c0                	test   %eax,%eax
  404ed7:	0f 84 e2 00 00 00    	je     404fbf <parser_handler+0x28f>
  404edd:	48 8d 35 73 4a 00 00 	lea    0x4a73(%rip),%rsi        # 409957 <short_opt+0x47>
  404ee4:	4c 89 e7             	mov    %r12,%rdi
  404ee7:	e8 f4 d3 ff ff       	call   4022e0 <strcmp@plt>
  404eec:	85 c0                	test   %eax,%eax
  404eee:	0f 84 11 01 00 00    	je     405005 <parser_handler+0x2d5>
  404ef4:	48 8d 35 64 4a 00 00 	lea    0x4a64(%rip),%rsi        # 40995f <short_opt+0x4f>
  404efb:	4c 89 e7             	mov    %r12,%rdi
  404efe:	e8 dd d3 ff ff       	call   4022e0 <strcmp@plt>
  404f03:	85 c0                	test   %eax,%eax
  404f05:	0f 84 50 01 00 00    	je     40505b <parser_handler+0x32b>
  404f0b:	48 8d 35 2c 4b 00 00 	lea    0x4b2c(%rip),%rsi        # 409a3e <short_opt+0x12e>
  404f12:	4c 89 e7             	mov    %r12,%rdi
  404f15:	e8 c6 d3 ff ff       	call   4022e0 <strcmp@plt>
  404f1a:	85 c0                	test   %eax,%eax
  404f1c:	0f 84 54 01 00 00    	je     405076 <parser_handler+0x346>
  404f22:	48 8d 3d 05 4c 00 00 	lea    0x4c05(%rip),%rdi        # 409b2e <short_opt+0x21e>
  404f29:	4c 89 e6             	mov    %r12,%rsi
  404f2c:	48 89 ea             	mov    %rbp,%rdx
  404f2f:	44 89 f9             	mov    %r15d,%ecx
  404f32:	31 c0                	xor    %eax,%eax
  404f34:	e8 b7 2b 00 00       	call   407af0 <__pr_error>
  404f39:	e9 76 fe ff ff       	jmp    404db4 <parser_handler+0x84>
  404f3e:	be ff 00 00 00       	mov    $0xff,%esi
  404f43:	4c 89 f7             	mov    %r14,%rdi
  404f46:	e8 15 19 00 00       	call   406860 <ar_strndup>
  404f4b:	49 89 45 08          	mov    %rax,0x8(%r13)
  404f4f:	b8 01 00 00 00       	mov    $0x1,%eax
  404f54:	e9 60 fe ff ff       	jmp    404db9 <parser_handler+0x89>
  404f59:	c7 44 24 08 00 00 00 	movl   $0x0,0x8(%rsp)
  404f60:	00 
  404f61:	48 8d 7c 24 08       	lea    0x8(%rsp),%rdi
  404f66:	ba 03 00 00 00       	mov    $0x3,%edx
  404f6b:	4c 89 f6             	mov    %r14,%rsi
  404f6e:	e8 9d d1 ff ff       	call   402110 <strncpy@plt>
  404f73:	81 4c 24 08 20 20 20 	orl    $0x20202020,0x8(%rsp)
  404f7a:	20 
  404f7b:	c6 44 24 0b 00       	movb   $0x0,0xb(%rsp)
  404f80:	8b 44 24 08          	mov    0x8(%rsp),%eax
  404f84:	3d 74 63 70 00       	cmp    $0x706374,%eax
  404f89:	0f 84 02 01 00 00    	je     405091 <parser_handler+0x361>
  404f8f:	3d 75 64 70 00       	cmp    $0x706475,%eax
  404f94:	0f 85 07 01 00 00    	jne    4050a1 <parser_handler+0x371>
  404f9a:	b8 01 00 00 00       	mov    $0x1,%eax
  404f9f:	e9 ef 00 00 00       	jmp    405093 <parser_handler+0x363>
  404fa4:	be 20 00 00 00       	mov    $0x20,%esi
  404fa9:	4c 89 f7             	mov    %r14,%rdi
  404fac:	e8 af 18 00 00       	call   406860 <ar_strndup>
  404fb1:	49 89 45 38          	mov    %rax,0x38(%r13)
  404fb5:	b8 01 00 00 00       	mov    $0x1,%eax
  404fba:	e9 fa fd ff ff       	jmp    404db9 <parser_handler+0x89>
  404fbf:	be 10 00 00 00       	mov    $0x10,%esi
  404fc4:	4c 89 f7             	mov    %r14,%rdi
  404fc7:	e8 94 18 00 00       	call   406860 <ar_strndup>
  404fcc:	49 89 45 18          	mov    %rax,0x18(%r13)
  404fd0:	b8 01 00 00 00       	mov    $0x1,%eax
  404fd5:	e9 df fd ff ff       	jmp    404db9 <parser_handler+0x89>
  404fda:	be 06 00 00 00       	mov    $0x6,%esi
  404fdf:	4c 89 f7             	mov    %r14,%rdi
  404fe2:	e8 79 18 00 00       	call   406860 <ar_strndup>
  404fe7:	48 89 c7             	mov    %rax,%rdi
  404fea:	31 f6                	xor    %esi,%esi
  404fec:	ba 0a 00 00 00       	mov    $0xa,%edx
  404ff1:	e8 fa d2 ff ff       	call   4022f0 <strtol@plt>
  404ff6:	66 41 89 45 40       	mov    %ax,0x40(%r13)
  404ffb:	b8 01 00 00 00       	mov    $0x1,%eax
  405000:	e9 b4 fd ff ff       	jmp    404db9 <parser_handler+0x89>
  405005:	be 06 00 00 00       	mov    $0x6,%esi
  40500a:	4c 89 f7             	mov    %r14,%rdi
  40500d:	e8 4e 18 00 00       	call   406860 <ar_strndup>
  405012:	48 89 c7             	mov    %rax,%rdi
  405015:	31 f6                	xor    %esi,%esi
  405017:	ba 0a 00 00 00       	mov    $0xa,%edx
  40501c:	e8 cf d2 ff ff       	call   4022f0 <strtol@plt>
  405021:	66 41 89 45 10       	mov    %ax,0x10(%r13)
  405026:	b8 01 00 00 00       	mov    $0x1,%eax
  40502b:	e9 89 fd ff ff       	jmp    404db9 <parser_handler+0x89>
  405030:	be 06 00 00 00       	mov    $0x6,%esi
  405035:	4c 89 f7             	mov    %r14,%rdi
  405038:	e8 23 18 00 00       	call   406860 <ar_strndup>
  40503d:	48 89 c7             	mov    %rax,%rdi
  405040:	31 f6                	xor    %esi,%esi
  405042:	ba 0a 00 00 00       	mov    $0xa,%edx
  405047:	e8 a4 d2 ff ff       	call   4022f0 <strtol@plt>
  40504c:	66 41 89 45 42       	mov    %ax,0x42(%r13)
  405051:	b8 01 00 00 00       	mov    $0x1,%eax
  405056:	e9 5e fd ff ff       	jmp    404db9 <parser_handler+0x89>
  40505b:	be 11 00 00 00       	mov    $0x11,%esi
  405060:	4c 89 f7             	mov    %r14,%rdi
  405063:	e8 f8 17 00 00       	call   406860 <ar_strndup>
  405068:	49 89 45 20          	mov    %rax,0x20(%r13)
  40506c:	b8 01 00 00 00       	mov    $0x1,%eax
  405071:	e9 43 fd ff ff       	jmp    404db9 <parser_handler+0x89>
  405076:	be 11 00 00 00       	mov    $0x11,%esi
  40507b:	4c 89 f7             	mov    %r14,%rdi
  40507e:	e8 dd 17 00 00       	call   406860 <ar_strndup>
  405083:	49 89 45 28          	mov    %rax,0x28(%r13)
  405087:	b8 01 00 00 00       	mov    $0x1,%eax
  40508c:	e9 28 fd ff ff       	jmp    404db9 <parser_handler+0x89>
  405091:	31 c0                	xor    %eax,%eax
  405093:	41 89 45 30          	mov    %eax,0x30(%r13)
  405097:	b8 01 00 00 00       	mov    $0x1,%eax
  40509c:	e9 18 fd ff ff       	jmp    404db9 <parser_handler+0x89>
  4050a1:	48 8d 3d 81 48 00 00 	lea    0x4881(%rip),%rdi        # 409929 <short_opt+0x19>
  4050a8:	4c 89 f6             	mov    %r14,%rsi
  4050ab:	31 c0                	xor    %eax,%eax
  4050ad:	e8 3e 2a 00 00       	call   407af0 <__pr_error>
  4050b2:	e9 fd fc ff ff       	jmp    404db4 <parser_handler+0x84>
  4050b7:	e8 84 d1 ff ff       	call   402240 <__stack_chk_fail@plt>
  4050bc:	0f 1f 40 00          	nopl   0x0(%rax)

00000000004050c0 <teavpn_server_entry>:
  4050c0:	53                   	push   %rbx
  4050c1:	48 83 ec 50          	sub    $0x50,%rsp
  4050c5:	64 48 8b 04 25 28 00 	mov    %fs:0x28,%rax
  4050cc:	00 00 
  4050ce:	48 89 44 24 48       	mov    %rax,0x48(%rsp)
  4050d3:	0f 57 c0             	xorps  %xmm0,%xmm0
  4050d6:	0f 29 44 24 30       	movaps %xmm0,0x30(%rsp)
  4050db:	0f 29 44 24 20       	movaps %xmm0,0x20(%rsp)
  4050e0:	0f 29 44 24 10       	movaps %xmm0,0x10(%rsp)
  4050e5:	0f 29 04 24          	movaps %xmm0,(%rsp)
  4050e9:	48 c7 44 24 40 00 00 	movq   $0x0,0x40(%rsp)
  4050f0:	00 00 
  4050f2:	48 89 e2             	mov    %rsp,%rdx
  4050f5:	e8 76 f4 ff ff       	call   404570 <teavpn_server_argv_parse>
  4050fa:	bb 01 00 00 00       	mov    $0x1,%ebx
  4050ff:	85 c0                	test   %eax,%eax
  405101:	78 75                	js     405178 <teavpn_server_entry+0xb8>
  405103:	48 89 e7             	mov    %rsp,%rdi
  405106:	e8 35 fb ff ff       	call   404c40 <teavpn_server_cfg_parse>
  40510b:	85 c0                	test   %eax,%eax
  40510d:	78 69                	js     405178 <teavpn_server_entry+0xb8>
  40510f:	48 83 7c 24 08 00    	cmpq   $0x0,0x8(%rsp)
  405115:	74 79                	je     405190 <teavpn_server_entry+0xd0>
  405117:	8b 74 24 30          	mov    0x30(%rsp),%esi
  40511b:	83 fe 01             	cmp    $0x1,%esi
  40511e:	74 20                	je     405140 <teavpn_server_entry+0x80>
  405120:	85 f6                	test   %esi,%esi
  405122:	75 41                	jne    405165 <teavpn_server_entry+0xa5>
  405124:	48 89 e7             	mov    %rsp,%rdi
  405127:	e8 44 02 00 00       	call   405370 <teavpn_server_tcp>
  40512c:	89 c3                	mov    %eax,%ebx
  40512e:	64 48 8b 04 25 28 00 	mov    %fs:0x28,%rax
  405135:	00 00 
  405137:	48 3b 44 24 48       	cmp    0x48(%rsp),%rax
  40513c:	74 4a                	je     405188 <teavpn_server_entry+0xc8>
  40513e:	eb 6e                	jmp    4051ae <teavpn_server_entry+0xee>
  405140:	48 8d 3d 14 4a 00 00 	lea    0x4a14(%rip),%rdi        # 409b5b <short_opt+0x24b>
  405147:	31 c0                	xor    %eax,%eax
  405149:	e8 a2 29 00 00       	call   407af0 <__pr_error>
  40514e:	bb a2 ff ff ff       	mov    $0xffffffa2,%ebx
  405153:	64 48 8b 04 25 28 00 	mov    %fs:0x28,%rax
  40515a:	00 00 
  40515c:	48 3b 44 24 48       	cmp    0x48(%rsp),%rax
  405161:	74 25                	je     405188 <teavpn_server_entry+0xc8>
  405163:	eb 49                	jmp    4051ae <teavpn_server_entry+0xee>
  405165:	48 8d 3d 19 4a 00 00 	lea    0x4a19(%rip),%rdi        # 409b85 <short_opt+0x275>
  40516c:	31 c0                	xor    %eax,%eax
  40516e:	e8 7d 29 00 00       	call   407af0 <__pr_error>
  405173:	bb ea ff ff ff       	mov    $0xffffffea,%ebx
  405178:	64 48 8b 04 25 28 00 	mov    %fs:0x28,%rax
  40517f:	00 00 
  405181:	48 3b 44 24 48       	cmp    0x48(%rsp),%rax
  405186:	75 26                	jne    4051ae <teavpn_server_entry+0xee>
  405188:	89 d8                	mov    %ebx,%eax
  40518a:	48 83 c4 50          	add    $0x50,%rsp
  40518e:	5b                   	pop    %rbx
  40518f:	c3                   	ret    
  405190:	48 8d 3d 06 4a 00 00 	lea    0x4a06(%rip),%rdi        # 409b9d <short_opt+0x28d>
  405197:	31 c0                	xor    %eax,%eax
  405199:	e8 52 29 00 00       	call   407af0 <__pr_error>
  40519e:	64 48 8b 04 25 28 00 	mov    %fs:0x28,%rax
  4051a5:	00 00 
  4051a7:	48 3b 44 24 48       	cmp    0x48(%rsp),%rax
  4051ac:	74 da                	je     405188 <teavpn_server_entry+0xc8>
  4051ae:	e8 8d d0 ff ff       	call   402240 <__stack_chk_fail@plt>
  4051b3:	66 2e 0f 1f 84 00 00 	cs nopw 0x0(%rax,%rax,1)
  4051ba:	00 00 00 
  4051bd:	0f 1f 00             	nopl   (%rax)

00000000004051c0 <teavpn_server_show_help>:
  4051c0:	50                   	push   %rax
  4051c1:	48 89 fe             	mov    %rdi,%rsi
  4051c4:	48 8d 3d ec 49 00 00 	lea    0x49ec(%rip),%rdi        # 409bb7 <short_opt+0x2a7>
  4051cb:	31 c0                	xor    %eax,%eax
  4051cd:	e8 6e ce ff ff       	call   402040 <printf@plt>
  4051d2:	bf 0a 00 00 00       	mov    $0xa,%edi
  4051d7:	e8 f4 d0 ff ff       	call   4022d0 <putchar@plt>
  4051dc:	48 8d 3d ab 4b 00 00 	lea    0x4bab(%rip),%rdi        # 409d8e <short_opt+0x47e>
  4051e3:	e8 88 d1 ff ff       	call   402370 <puts@plt>
  4051e8:	bf 0a 00 00 00       	mov    $0xa,%edi
  4051ed:	e8 de d0 ff ff       	call   4022d0 <putchar@plt>
  4051f2:	48 8d 3d af 4b 00 00 	lea    0x4baf(%rip),%rdi        # 409da8 <short_opt+0x498>
  4051f9:	e8 72 d1 ff ff       	call   402370 <puts@plt>
  4051fe:	48 8d 3d b6 4b 00 00 	lea    0x4bb6(%rip),%rdi        # 409dbb <short_opt+0x4ab>
  405205:	e8 66 d1 ff ff       	call   402370 <puts@plt>
  40520a:	48 8d 3d d1 4b 00 00 	lea    0x4bd1(%rip),%rdi        # 409de2 <short_opt+0x4d2>
  405211:	e8 5a d1 ff ff       	call   402370 <puts@plt>
  405216:	48 8d 3d b6 49 00 00 	lea    0x49b6(%rip),%rdi        # 409bd3 <short_opt+0x2c3>
  40521d:	48 8d 35 0c 90 00 00 	lea    0x900c(%rip),%rsi        # 40e230 <d_srv_cfg_file>
  405224:	31 c0                	xor    %eax,%eax
  405226:	e8 15 ce ff ff       	call   402040 <printf@plt>
  40522b:	48 8d 3d dc 4b 00 00 	lea    0x4bdc(%rip),%rdi        # 409e0e <short_opt+0x4fe>
  405232:	e8 39 d1 ff ff       	call   402370 <puts@plt>
  405237:	bf 0a 00 00 00       	mov    $0xa,%edi
  40523c:	e8 8f d0 ff ff       	call   4022d0 <putchar@plt>
  405241:	48 8d 3d ec 4b 00 00 	lea    0x4bec(%rip),%rdi        # 409e34 <short_opt+0x524>
  405248:	e8 23 d1 ff ff       	call   402370 <puts@plt>
  40524d:	48 8d 3d f1 4b 00 00 	lea    0x4bf1(%rip),%rdi        # 409e45 <short_opt+0x535>
  405254:	e8 17 d1 ff ff       	call   402370 <puts@plt>
  405259:	48 8d 3d a8 49 00 00 	lea    0x49a8(%rip),%rdi        # 409c08 <short_opt+0x2f8>
  405260:	48 8d 35 dd 8f 00 00 	lea    0x8fdd(%rip),%rsi        # 40e244 <d_srv_dev>
  405267:	31 c0                	xor    %eax,%eax
  405269:	e8 d2 cd ff ff       	call   402040 <printf@plt>
  40526e:	48 8d 05 cd 8f 00 00 	lea    0x8fcd(%rip),%rax        # 40e242 <d_srv_mtu>
  405275:	0f b7 30             	movzwl (%rax),%esi
  405278:	48 8d 3d ce 49 00 00 	lea    0x49ce(%rip),%rdi        # 409c4d <short_opt+0x33d>
  40527f:	31 c0                	xor    %eax,%eax
  405281:	e8 ba cd ff ff       	call   402040 <printf@plt>
  405286:	48 8d 3d f0 49 00 00 	lea    0x49f0(%rip),%rdi        # 409c7d <short_opt+0x36d>
  40528d:	48 8d 35 b8 8f 00 00 	lea    0x8fb8(%rip),%rsi        # 40e24c <d_srv_ipv4>
  405294:	31 c0                	xor    %eax,%eax
  405296:	e8 a5 cd ff ff       	call   402040 <printf@plt>
  40529b:	48 8d 3d 06 4a 00 00 	lea    0x4a06(%rip),%rdi        # 409ca8 <short_opt+0x398>
  4052a2:	48 8d 35 ac 8f 00 00 	lea    0x8fac(%rip),%rsi        # 40e255 <d_srv_ipv4_netmask>
  4052a9:	31 c0                	xor    %eax,%eax
  4052ab:	e8 90 cd ff ff       	call   402040 <printf@plt>
  4052b0:	bf 0a 00 00 00       	mov    $0xa,%edi
  4052b5:	e8 16 d0 ff ff       	call   4022d0 <putchar@plt>
  4052ba:	48 8d 3d a0 4b 00 00 	lea    0x4ba0(%rip),%rdi        # 409e61 <short_opt+0x551>
  4052c1:	e8 aa d0 ff ff       	call   402370 <puts@plt>
  4052c6:	48 8d 3d 9d 4b 00 00 	lea    0x4b9d(%rip),%rdi        # 409e6a <short_opt+0x55a>
  4052cd:	e8 9e d0 ff ff       	call   402370 <puts@plt>
  4052d2:	48 8d 3d de 4b 00 00 	lea    0x4bde(%rip),%rdi        # 409eb7 <short_opt+0x5a7>
  4052d9:	e8 92 d0 ff ff       	call   402370 <puts@plt>
  4052de:	48 8d 05 87 8f 00 00 	lea    0x8f87(%rip),%rax        # 40e26c <d_srv_bind_port>
  4052e5:	0f b7 30             	movzwl (%rax),%esi
  4052e8:	48 8d 3d f4 49 00 00 	lea    0x49f4(%rip),%rdi        # 409ce3 <short_opt+0x3d3>
  4052ef:	31 c0                	xor    %eax,%eax
  4052f1:	e8 4a cd ff ff       	call   402040 <printf@plt>
  4052f6:	48 8d 05 71 8f 00 00 	lea    0x8f71(%rip),%rax        # 40e26e <d_srv_max_conn>
  4052fd:	0f b7 30             	movzwl (%rax),%esi
  405300:	48 8d 3d 12 4a 00 00 	lea    0x4a12(%rip),%rdi        # 409d19 <short_opt+0x409>
  405307:	31 c0                	xor    %eax,%eax
  405309:	e8 32 cd ff ff       	call   402040 <printf@plt>
  40530e:	48 8d 05 5b 8f 00 00 	lea    0x8f5b(%rip),%rax        # 40e270 <d_srv_backlog>
  405315:	8b 30                	mov    (%rax),%esi
  405317:	48 8d 3d 33 4a 00 00 	lea    0x4a33(%rip),%rdi        # 409d51 <short_opt+0x441>
  40531e:	31 c0                	xor    %eax,%eax
  405320:	e8 1b cd ff ff       	call   402040 <printf@plt>
  405325:	bf 0a 00 00 00       	mov    $0xa,%edi
  40532a:	e8 a1 cf ff ff       	call   4022d0 <putchar@plt>
  40532f:	bf 0a 00 00 00       	mov    $0xa,%edi
  405334:	e8 97 cf ff ff       	call   4022d0 <putchar@plt>
  405339:	48 8d 3d b1 4b 00 00 	lea    0x4bb1(%rip),%rdi        # 409ef1 <short_opt+0x5e1>
  405340:	e8 2b d0 ff ff       	call   402370 <puts@plt>
  405345:	48 8d 3d e3 4b 00 00 	lea    0x4be3(%rip),%rdi        # 409f2f <short_opt+0x61f>
  40534c:	e8 1f d0 ff ff       	call   402370 <puts@plt>
  405351:	bf 0a 00 00 00       	mov    $0xa,%edi
  405356:	e8 75 cf ff ff       	call   4022d0 <putchar@plt>
  40535b:	48 8d 3d 05 4c 00 00 	lea    0x4c05(%rip),%rdi        # 409f67 <short_opt+0x657>
  405362:	58                   	pop    %rax
  405363:	e9 08 d0 ff ff       	jmp    402370 <puts@plt>
  405368:	0f 1f 84 00 00 00 00 	nopl   0x0(%rax,%rax,1)
  40536f:	00 

0000000000405370 <teavpn_server_tcp>:
  405370:	e9 7b dc ff ff       	jmp    402ff0 <teavpn_server_tcp_handler>
  405375:	66 2e 0f 1f 84 00 00 	cs nopw 0x0(%rax,%rax,1)
  40537c:	00 00 00 
  40537f:	90                   	nop

0000000000405380 <teavpn_client_tcp_handler>:
  405380:	55                   	push   %rbp
  405381:	41 57                	push   %r15
  405383:	41 56                	push   %r14
  405385:	41 55                	push   %r13
  405387:	41 54                	push   %r12
  405389:	53                   	push   %rbx
  40538a:	48 81 ec a8 80 00 00 	sub    $0x80a8,%rsp
  405391:	48 89 fb             	mov    %rdi,%rbx
  405394:	64 48 8b 04 25 28 00 	mov    %fs:0x28,%rax
  40539b:	00 00 
  40539d:	48 89 84 24 a0 80 00 	mov    %rax,0x80a0(%rsp)
  4053a4:	00 
  4053a5:	48 8d 6c 24 20       	lea    0x20(%rsp),%rbp
  4053aa:	ba 50 80 00 00       	mov    $0x8050,%edx
  4053af:	48 89 ef             	mov    %rbp,%rdi
  4053b2:	31 f6                	xor    %esi,%esi
  4053b4:	e8 67 cd ff ff       	call   402120 <memset@plt>
  4053b9:	48 89 5c 24 30       	mov    %rbx,0x30(%rsp)
  4053be:	48 89 2d 03 8f 00 00 	mov    %rbp,0x8f03(%rip)        # 40e2c8 <g_state>
  4053c5:	48 8d 1d 74 0a 00 00 	lea    0xa74(%rip),%rbx        # 405e40 <handle_interrupt>
  4053cc:	bf 01 00 00 00       	mov    $0x1,%edi
  4053d1:	48 89 de             	mov    %rbx,%rsi
  4053d4:	e8 97 ce ff ff       	call   402270 <signal@plt>
  4053d9:	bf 02 00 00 00       	mov    $0x2,%edi
  4053de:	48 89 de             	mov    %rbx,%rsi
  4053e1:	e8 8a ce ff ff       	call   402270 <signal@plt>
  4053e6:	bf 0f 00 00 00       	mov    $0xf,%edi
  4053eb:	48 89 de             	mov    %rbx,%rsi
  4053ee:	e8 7d ce ff ff       	call   402270 <signal@plt>
  4053f3:	bf 03 00 00 00       	mov    $0x3,%edi
  4053f8:	48 89 de             	mov    %rbx,%rsi
  4053fb:	e8 70 ce ff ff       	call   402270 <signal@plt>
  405400:	be 01 00 00 00       	mov    $0x1,%esi
  405405:	bf 0d 00 00 00       	mov    $0xd,%edi
  40540a:	e8 61 ce ff ff       	call   402270 <signal@plt>
  40540f:	48 c7 44 24 20 ff ff 	movq   $0xffffffffffffffff,0x20(%rsp)
  405416:	ff ff 
  405418:	c7 44 24 28 ff ff ff 	movl   $0xffffffff,0x28(%rsp)
  40541f:	ff 
  405420:	c6 44 24 2c 00       	movb   $0x0,0x2c(%rsp)
  405425:	c6 44 24 2e 00       	movb   $0x0,0x2e(%rsp)
  40542a:	0f 57 c0             	xorps  %xmm0,%xmm0
  40542d:	0f 11 44 24 38       	movups %xmm0,0x38(%rsp)
  405432:	48 8b 5c 24 30       	mov    0x30(%rsp),%rbx
  405437:	48 8b 73 10          	mov    0x10(%rbx),%rsi
  40543b:	48 8d 3d 76 3c 00 00 	lea    0x3c76(%rip),%rdi        # 4090b8 <_IO_stdin_used+0xb8>
  405442:	31 c0                	xor    %eax,%eax
  405444:	e8 57 2b 00 00       	call   407fa0 <__pr_notice>
  405449:	48 8b 7b 10          	mov    0x10(%rbx),%rdi
  40544d:	be 01 10 00 00       	mov    $0x1001,%esi
  405452:	e8 29 19 00 00       	call   406d80 <tun_alloc>
  405457:	85 c0                	test   %eax,%eax
  405459:	0f 88 d1 09 00 00    	js     405e30 <teavpn_client_tcp_handler+0xab0>
  40545f:	89 c3                	mov    %eax,%ebx
  405461:	89 c7                	mov    %eax,%edi
  405463:	e8 b8 1a 00 00       	call   406f20 <fd_set_nonblock>
  405468:	85 c0                	test   %eax,%eax
  40546a:	0f 88 ca 08 00 00    	js     405d3a <teavpn_client_tcp_handler+0x9ba>
  405470:	89 5c 24 28          	mov    %ebx,0x28(%rsp)
  405474:	48 8b 44 24 30       	mov    0x30(%rsp),%rax
  405479:	48 8b 68 20          	mov    0x20(%rax),%rbp
  40547d:	44 0f b7 70 1c       	movzwl 0x1c(%rax),%r14d
  405482:	48 8d 3d 85 3c 00 00 	lea    0x3c85(%rip),%rdi        # 40910e <_IO_stdin_used+0x10e>
  405489:	31 c0                	xor    %eax,%eax
  40548b:	e8 10 2b 00 00       	call   407fa0 <__pr_notice>
  405490:	bf 02 00 00 00       	mov    $0x2,%edi
  405495:	be 01 08 00 00       	mov    $0x801,%esi
  40549a:	ba 06 00 00 00       	mov    $0x6,%edx
  40549f:	e8 cc cb ff ff       	call   402070 <socket@plt>
  4054a4:	85 c0                	test   %eax,%eax
  4054a6:	0f 88 9a 08 00 00    	js     405d46 <teavpn_client_tcp_handler+0x9c6>
  4054ac:	41 89 c5             	mov    %eax,%r13d
  4054af:	48 8d 3d 81 3c 00 00 	lea    0x3c81(%rip),%rdi        # 409137 <_IO_stdin_used+0x137>
  4054b6:	31 c0                	xor    %eax,%eax
  4054b8:	e8 e3 2a 00 00       	call   407fa0 <__pr_notice>
  4054bd:	c7 44 24 1c 01 00 00 	movl   $0x1,0x1c(%rsp)
  4054c4:	00 
  4054c5:	48 8d 4c 24 1c       	lea    0x1c(%rsp),%rcx
  4054ca:	44 89 ef             	mov    %r13d,%edi
  4054cd:	be 01 00 00 00       	mov    $0x1,%esi
  4054d2:	ba 02 00 00 00       	mov    $0x2,%edx
  4054d7:	41 b8 04 00 00 00    	mov    $0x4,%r8d
  4054dd:	e8 fe ce ff ff       	call   4023e0 <setsockopt@plt>
  4054e2:	4c 8d 3d ab 3c 00 00 	lea    0x3cab(%rip),%r15        # 409194 <_IO_stdin_used+0x194>
  4054e9:	85 c0                	test   %eax,%eax
  4054eb:	0f 88 a7 08 00 00    	js     405d98 <teavpn_client_tcp_handler+0xa18>
  4054f1:	c7 44 24 1c 01 00 00 	movl   $0x1,0x1c(%rsp)
  4054f8:	00 
  4054f9:	48 8d 4c 24 1c       	lea    0x1c(%rsp),%rcx
  4054fe:	44 89 ef             	mov    %r13d,%edi
  405501:	be 06 00 00 00       	mov    $0x6,%esi
  405506:	ba 01 00 00 00       	mov    $0x1,%edx
  40550b:	41 b8 04 00 00 00    	mov    $0x4,%r8d
  405511:	e8 ca ce ff ff       	call   4023e0 <setsockopt@plt>
  405516:	85 c0                	test   %eax,%eax
  405518:	0f 88 86 08 00 00    	js     405da4 <teavpn_client_tcp_handler+0xa24>
  40551e:	c7 44 24 1c 01 00 00 	movl   $0x1,0x1c(%rsp)
  405525:	00 
  405526:	48 8d 4c 24 1c       	lea    0x1c(%rsp),%rcx
  40552b:	44 89 ef             	mov    %r13d,%edi
  40552e:	be 01 00 00 00       	mov    $0x1,%esi
  405533:	ba 31 00 00 00       	mov    $0x31,%edx
  405538:	41 b8 04 00 00 00    	mov    $0x4,%r8d
  40553e:	e8 9d ce ff ff       	call   4023e0 <setsockopt@plt>
  405543:	85 c0                	test   %eax,%eax
  405545:	0f 88 6c 08 00 00    	js     405db7 <teavpn_client_tcp_handler+0xa37>
  40554b:	c7 44 24 1c 00 00 20 	movl   $0x200000,0x1c(%rsp)
  405552:	00 
  405553:	48 8d 4c 24 1c       	lea    0x1c(%rsp),%rcx
  405558:	44 89 ef             	mov    %r13d,%edi
  40555b:	be 01 00 00 00       	mov    $0x1,%esi
  405560:	ba 21 00 00 00       	mov    $0x21,%edx
  405565:	41 b8 04 00 00 00    	mov    $0x4,%r8d
  40556b:	e8 70 ce ff ff       	call   4023e0 <setsockopt@plt>
  405570:	85 c0                	test   %eax,%eax
  405572:	0f 88 4b 08 00 00    	js     405dc3 <teavpn_client_tcp_handler+0xa43>
  405578:	c7 44 24 1c 00 00 20 	movl   $0x200000,0x1c(%rsp)
  40557f:	00 
  405580:	48 8d 4c 24 1c       	lea    0x1c(%rsp),%rcx
  405585:	44 89 ef             	mov    %r13d,%edi
  405588:	be 01 00 00 00       	mov    $0x1,%esi
  40558d:	ba 20 00 00 00       	mov    $0x20,%edx
  405592:	41 b8 04 00 00 00    	mov    $0x4,%r8d
  405598:	e8 43 ce ff ff       	call   4023e0 <setsockopt@plt>
  40559d:	85 c0                	test   %eax,%eax
  40559f:	0f 88 2a 08 00 00    	js     405dcf <teavpn_client_tcp_handler+0xa4f>
  4055a5:	c7 44 24 1c 30 75 00 	movl   $0x7530,0x1c(%rsp)
  4055ac:	00 
  4055ad:	48 8d 4c 24 1c       	lea    0x1c(%rsp),%rcx
  4055b2:	44 89 ef             	mov    %r13d,%edi
  4055b5:	be 01 00 00 00       	mov    $0x1,%esi
  4055ba:	ba 2e 00 00 00       	mov    $0x2e,%edx
  4055bf:	41 b8 04 00 00 00    	mov    $0x4,%r8d
  4055c5:	e8 16 ce ff ff       	call   4023e0 <setsockopt@plt>
  4055ca:	85 c0                	test   %eax,%eax
  4055cc:	0f 88 09 08 00 00    	js     405ddb <teavpn_client_tcp_handler+0xa5b>
  4055d2:	66 c7 84 24 70 80 00 	movw   $0x2,0x8070(%rsp)
  4055d9:	00 02 00 
  4055dc:	44 89 f0             	mov    %r14d,%eax
  4055df:	66 c1 c0 08          	rol    $0x8,%ax
  4055e3:	66 89 84 24 72 80 00 	mov    %ax,0x8072(%rsp)
  4055ea:	00 
  4055eb:	48 8d 94 24 74 80 00 	lea    0x8074(%rsp),%rdx
  4055f2:	00 
  4055f3:	bf 02 00 00 00       	mov    $0x2,%edi
  4055f8:	48 89 ee             	mov    %rbp,%rsi
  4055fb:	e8 00 ce ff ff       	call   402400 <inet_pton@plt>
  405600:	85 c0                	test   %eax,%eax
  405602:	0f 84 88 00 00 00    	je     405690 <teavpn_client_tcp_handler+0x310>
  405608:	48 8d 3d cd 49 00 00 	lea    0x49cd(%rip),%rdi        # 409fdc <short_opt+0x6cc>
  40560f:	48 89 ee             	mov    %rbp,%rsi
  405612:	44 89 f2             	mov    %r14d,%edx
  405615:	31 c0                	xor    %eax,%eax
  405617:	e8 84 29 00 00       	call   407fa0 <__pr_notice>
  40561c:	48 8d b4 24 70 80 00 	lea    0x8070(%rsp),%rsi
  405623:	00 
  405624:	44 89 ef             	mov    %r13d,%edi
  405627:	ba 10 00 00 00       	mov    $0x10,%edx
  40562c:	e8 7f cb ff ff       	call   4021b0 <connect@plt>
  405631:	85 c0                	test   %eax,%eax
  405633:	0f 89 42 00 00 00    	jns    40567b <teavpn_client_tcp_handler+0x2fb>
  405639:	e8 f2 c9 ff ff       	call   402030 <__errno_location@plt>
  40563e:	48 89 c5             	mov    %rax,%rbp
  405641:	4c 8d b4 24 70 80 00 	lea    0x8070(%rsp),%r14
  405648:	00 
  405649:	0f 1f 80 00 00 00 00 	nopl   0x0(%rax)
  405650:	8b 5d 00             	mov    0x0(%rbp),%ebx
  405653:	89 d8                	mov    %ebx,%eax
  405655:	83 e0 fe             	and    $0xfffffffe,%eax
  405658:	83 f8 72             	cmp    $0x72,%eax
  40565b:	75 63                	jne    4056c0 <teavpn_client_tcp_handler+0x340>
  40565d:	bf 88 13 00 00       	mov    $0x1388,%edi
  405662:	e8 a9 cc ff ff       	call   402310 <usleep@plt>
  405667:	44 89 ef             	mov    %r13d,%edi
  40566a:	4c 89 f6             	mov    %r14,%rsi
  40566d:	ba 10 00 00 00       	mov    $0x10,%edx
  405672:	e8 39 cb ff ff       	call   4021b0 <connect@plt>
  405677:	85 c0                	test   %eax,%eax
  405679:	78 d5                	js     405650 <teavpn_client_tcp_handler+0x2d0>
  40567b:	44 89 6c 24 24       	mov    %r13d,0x24(%rsp)
  405680:	48 8d 3d 7f 49 00 00 	lea    0x497f(%rip),%rdi        # 40a006 <short_opt+0x6f6>
  405687:	31 c0                	xor    %eax,%eax
  405689:	e8 12 29 00 00       	call   407fa0 <__pr_notice>
  40568e:	eb 66                	jmp    4056f6 <teavpn_client_tcp_handler+0x376>
  405690:	bf 16 00 00 00       	mov    $0x16,%edi
  405695:	e8 16 ca ff ff       	call   4020b0 <strerror@plt>
  40569a:	48 8d 3d 24 49 00 00 	lea    0x4924(%rip),%rdi        # 409fc5 <short_opt+0x6b5>
  4056a1:	48 89 ee             	mov    %rbp,%rsi
  4056a4:	ba 16 00 00 00       	mov    $0x16,%edx
  4056a9:	48 89 c1             	mov    %rax,%rcx
  4056ac:	31 c0                	xor    %eax,%eax
  4056ae:	e8 3d 24 00 00       	call   407af0 <__pr_error>
  4056b3:	41 bc ea ff ff ff    	mov    $0xffffffea,%r12d
  4056b9:	45 85 ed             	test   %r13d,%r13d
  4056bc:	7f 27                	jg     4056e5 <teavpn_client_tcp_handler+0x365>
  4056be:	eb 2d                	jmp    4056ed <teavpn_client_tcp_handler+0x36d>
  4056c0:	41 89 dc             	mov    %ebx,%r12d
  4056c3:	41 f7 dc             	neg    %r12d
  4056c6:	89 df                	mov    %ebx,%edi
  4056c8:	e8 e3 c9 ff ff       	call   4020b0 <strerror@plt>
  4056cd:	48 8d 3d 1f 49 00 00 	lea    0x491f(%rip),%rdi        # 409ff3 <short_opt+0x6e3>
  4056d4:	89 de                	mov    %ebx,%esi
  4056d6:	48 89 c2             	mov    %rax,%rdx
  4056d9:	31 c0                	xor    %eax,%eax
  4056db:	e8 10 24 00 00       	call   407af0 <__pr_error>
  4056e0:	45 85 ed             	test   %r13d,%r13d
  4056e3:	7e 08                	jle    4056ed <teavpn_client_tcp_handler+0x36d>
  4056e5:	44 89 ef             	mov    %r13d,%edi
  4056e8:	e8 33 cd ff ff       	call   402420 <close@plt>
  4056ed:	45 85 e4             	test   %r12d,%r12d
  4056f0:	0f 88 8b 05 00 00    	js     405c81 <teavpn_client_tcp_handler+0x901>
  4056f6:	44 8b 74 24 24       	mov    0x24(%rsp),%r14d
  4056fb:	8b 6c 24 28          	mov    0x28(%rsp),%ebp
  4056ff:	48 8d 3d 15 3b 00 00 	lea    0x3b15(%rip),%rdi        # 40921b <_IO_stdin_used+0x21b>
  405706:	31 c0                	xor    %eax,%eax
  405708:	e8 93 28 00 00       	call   407fa0 <__pr_notice>
  40570d:	bf 03 00 00 00       	mov    $0x3,%edi
  405712:	e8 d9 cc ff ff       	call   4023f0 <epoll_create@plt>
  405717:	85 c0                	test   %eax,%eax
  405719:	0f 88 53 06 00 00    	js     405d72 <teavpn_client_tcp_handler+0x9f2>
  40571f:	89 c3                	mov    %eax,%ebx
  405721:	c7 84 24 78 80 00 00 	movl   $0x0,0x8078(%rsp)
  405728:	00 00 00 00 
  40572c:	c7 84 24 70 80 00 00 	movl   $0x3,0x8070(%rsp)
  405733:	03 00 00 00 
  405737:	89 ac 24 74 80 00 00 	mov    %ebp,0x8074(%rsp)
  40573e:	48 8d 8c 24 70 80 00 	lea    0x8070(%rsp),%rcx
  405745:	00 
  405746:	89 c7                	mov    %eax,%edi
  405748:	be 01 00 00 00       	mov    $0x1,%esi
  40574d:	89 ea                	mov    %ebp,%edx
  40574f:	e8 6c cb ff ff       	call   4022c0 <epoll_ctl@plt>
  405754:	85 c0                	test   %eax,%eax
  405756:	0f 88 b5 05 00 00    	js     405d11 <teavpn_client_tcp_handler+0x991>
  40575c:	c7 84 24 78 80 00 00 	movl   $0x0,0x8078(%rsp)
  405763:	00 00 00 00 
  405767:	c7 84 24 70 80 00 00 	movl   $0x3,0x8070(%rsp)
  40576e:	03 00 00 00 
  405772:	44 89 b4 24 74 80 00 	mov    %r14d,0x8074(%rsp)
  405779:	00 
  40577a:	48 8d 8c 24 70 80 00 	lea    0x8070(%rsp),%rcx
  405781:	00 
  405782:	89 df                	mov    %ebx,%edi
  405784:	be 01 00 00 00       	mov    $0x1,%esi
  405789:	44 89 f2             	mov    %r14d,%edx
  40578c:	e8 2f cb ff ff       	call   4022c0 <epoll_ctl@plt>
  405791:	85 c0                	test   %eax,%eax
  405793:	0f 88 78 05 00 00    	js     405d11 <teavpn_client_tcp_handler+0x991>
  405799:	89 5c 24 20          	mov    %ebx,0x20(%rsp)
  40579d:	48 8d 05 04 8b 00 00 	lea    0x8b04(%rip),%rax        # 40e2a8 <__notice_level>
  4057a4:	80 38 03             	cmpb   $0x3,(%rax)
  4057a7:	72 0e                	jb     4057b7 <teavpn_client_tcp_handler+0x437>
  4057a9:	48 8d 3d 6e 48 00 00 	lea    0x486e(%rip),%rdi        # 40a01e <short_opt+0x70e>
  4057b0:	31 c0                	xor    %eax,%eax
  4057b2:	e8 e9 27 00 00       	call   407fa0 <__pr_notice>
  4057b7:	48 8d 5c 24 50       	lea    0x50(%rsp),%rbx
  4057bc:	48 c7 44 24 54 00 00 	movq   $0x0,0x54(%rsp)
  4057c3:	00 00 
  4057c5:	c7 44 24 5b 00 00 00 	movl   $0x0,0x5b(%rsp)
  4057cc:	00 
  4057cd:	c6 44 24 56 01       	movb   $0x1,0x56(%rsp)
  4057d2:	48 8d 7c 24 57       	lea    0x57(%rsp),%rdi
  4057d7:	48 8d 35 f6 59 00 00 	lea    0x59f6(%rip),%rsi        # 40b1d4 <invalid+0x24>
  4057de:	ba 07 00 00 00       	mov    $0x7,%edx
  4057e3:	e8 28 c9 ff ff       	call   402110 <strncpy@plt>
  4057e8:	c6 44 24 5e 00       	movb   $0x0,0x5e(%rsp)
  4057ed:	c7 44 24 50 00 00 00 	movl   $0xb000000,0x50(%rsp)
  4057f4:	0b 
  4057f5:	48 8d 7c 24 20       	lea    0x20(%rsp),%rdi
  4057fa:	ba 0f 00 00 00       	mov    $0xf,%edx
  4057ff:	48 89 de             	mov    %rbx,%rsi
  405802:	e8 79 06 00 00       	call   405e80 <send_to_server>
  405807:	41 bc ff ff ff ff    	mov    $0xffffffff,%r12d
  40580d:	48 85 c0             	test   %rax,%rax
  405810:	0f 8e 6b 04 00 00    	jle    405c81 <teavpn_client_tcp_handler+0x901>
  405816:	48 8d 3d 7e 47 00 00 	lea    0x477e(%rip),%rdi        # 409f9b <short_opt+0x68b>
  40581d:	45 31 e4             	xor    %r12d,%r12d
  405820:	31 c0                	xor    %eax,%eax
  405822:	e8 79 27 00 00       	call   407fa0 <__pr_notice>
  405827:	8b 44 24 20          	mov    0x20(%rsp),%eax
  40582b:	89 44 24 04          	mov    %eax,0x4(%rsp)
  40582f:	0f 57 c0             	xorps  %xmm0,%xmm0
  405832:	0f 29 84 24 80 80 00 	movaps %xmm0,0x8080(%rsp)
  405839:	00 
  40583a:	0f 29 84 24 70 80 00 	movaps %xmm0,0x8070(%rsp)
  405841:	00 
  405842:	c7 84 24 90 80 00 00 	movl   $0x0,0x8090(%rsp)
  405849:	00 00 00 00 
  40584d:	80 7c 24 2c 01       	cmpb   $0x1,0x2c(%rsp)
  405852:	0f 84 29 04 00 00    	je     405c81 <teavpn_client_tcp_handler+0x901>
  405858:	48 8d 5c 24 54       	lea    0x54(%rsp),%rbx
  40585d:	48 8d b4 24 70 80 00 	lea    0x8070(%rsp),%rsi
  405864:	00 
  405865:	8b 7c 24 04          	mov    0x4(%rsp),%edi
  405869:	ba 03 00 00 00       	mov    $0x3,%edx
  40586e:	b9 b8 0b 00 00       	mov    $0xbb8,%ecx
  405873:	e8 78 c8 ff ff       	call   4020f0 <epoll_wait@plt>
  405878:	85 c0                	test   %eax,%eax
  40587a:	0f 84 a0 03 00 00    	je     405c20 <teavpn_client_tcp_handler+0x8a0>
  405880:	41 89 c4             	mov    %eax,%r12d
  405883:	0f 88 70 03 00 00    	js     405bf9 <teavpn_client_tcp_handler+0x879>
  405889:	45 89 e7             	mov    %r12d,%r15d
  40588c:	45 31 ed             	xor    %r13d,%r13d
  40588f:	90                   	nop
  405890:	4a 8d 0c 6d 00 00 00 	lea    0x0(,%r13,2),%rcx
  405897:	00 
  405898:	4c 01 e9             	add    %r13,%rcx
  40589b:	8b 84 8c 70 80 00 00 	mov    0x8070(%rsp,%rcx,4),%eax
  4058a2:	44 8b b4 8c 74 80 00 	mov    0x8074(%rsp,%rcx,4),%r14d
  4058a9:	00 
  4058aa:	44 3b 74 24 28       	cmp    0x28(%rsp),%r14d
  4058af:	75 42                	jne    4058f3 <teavpn_client_tcp_handler+0x573>
  4058b1:	41 bc ff ff ff ff    	mov    $0xffffffff,%r12d
  4058b7:	a8 18                	test   $0x18,%al
  4058b9:	0f 85 c2 03 00 00    	jne    405c81 <teavpn_client_tcp_handler+0x901>
  4058bf:	83 44 24 40 01       	addl   $0x1,0x40(%rsp)
  4058c4:	ba 00 10 00 00       	mov    $0x1000,%edx
  4058c9:	44 89 f7             	mov    %r14d,%edi
  4058cc:	48 89 de             	mov    %rbx,%rsi
  4058cf:	e8 5c ca ff ff       	call   402330 <read@plt>
  4058d4:	48 85 c0             	test   %rax,%rax
  4058d7:	0f 88 c6 01 00 00    	js     405aa3 <teavpn_client_tcp_handler+0x723>
  4058dd:	85 c0                	test   %eax,%eax
  4058df:	0f 88 9c 03 00 00    	js     405c81 <teavpn_client_tcp_handler+0x901>
  4058e5:	49 83 c5 01          	add    $0x1,%r13
  4058e9:	4d 39 fd             	cmp    %r15,%r13
  4058ec:	75 a2                	jne    405890 <teavpn_client_tcp_handler+0x510>
  4058ee:	e9 2d 03 00 00       	jmp    405c20 <teavpn_client_tcp_handler+0x8a0>
  4058f3:	44 3b 74 24 24       	cmp    0x24(%rsp),%r14d
  4058f8:	0f 85 24 05 00 00    	jne    405e22 <teavpn_client_tcp_handler+0xaa2>
  4058fe:	a8 18                	test   $0x18,%al
  405900:	0f 85 2a 05 00 00    	jne    405e30 <teavpn_client_tcp_handler+0xab0>
  405906:	48 8b 5c 24 48       	mov    0x48(%rsp),%rbx
  40590b:	ba 10 40 00 00       	mov    $0x4010,%edx
  405910:	48 29 da             	sub    %rbx,%rdx
  405913:	83 44 24 38 01       	addl   $0x1,0x38(%rsp)
  405918:	48 8d 84 24 60 40 00 	lea    0x4060(%rsp),%rax
  40591f:	00 
  405920:	48 8d 34 18          	lea    (%rax,%rbx,1),%rsi
  405924:	44 89 f7             	mov    %r14d,%edi
  405927:	31 c9                	xor    %ecx,%ecx
  405929:	e8 72 c7 ff ff       	call   4020a0 <recv@plt>
  40592e:	48 85 c0             	test   %rax,%rax
  405931:	0f 88 f3 01 00 00    	js     405b2a <teavpn_client_tcp_handler+0x7aa>
  405937:	0f 84 21 02 00 00    	je     405b5e <teavpn_client_tcp_handler+0x7de>
  40593d:	48 89 c5             	mov    %rax,%rbp
  405940:	48 01 dd             	add    %rbx,%rbp
  405943:	48 83 fd 04          	cmp    $0x4,%rbp
  405947:	0f 82 6b 01 00 00    	jb     405ab8 <teavpn_client_tcp_handler+0x738>
  40594d:	0f 1f 00             	nopl   (%rax)
  405950:	0f b7 84 24 62 40 00 	movzwl 0x4062(%rsp),%eax
  405957:	00 
  405958:	89 c1                	mov    %eax,%ecx
  40595a:	66 c1 c1 08          	rol    $0x8,%cx
  40595e:	0f b7 d1             	movzwl %cx,%edx
  405961:	81 fa 05 10 00 00    	cmp    $0x1005,%edx
  405967:	0f 83 5a 01 00 00    	jae    405ac7 <teavpn_client_tcp_handler+0x747>
  40596d:	44 0f b6 a4 24 61 40 	movzbl 0x4061(%rsp),%r12d
  405974:	00 00 
  405976:	49 01 d4             	add    %rdx,%r12
  405979:	48 8d 5d fc          	lea    -0x4(%rbp),%rbx
  40597d:	4c 39 e3             	cmp    %r12,%rbx
  405980:	0f 82 32 01 00 00    	jb     405ab8 <teavpn_client_tcp_handler+0x738>
  405986:	0f b6 8c 24 60 40 00 	movzbl 0x4060(%rsp),%ecx
  40598d:	00 
  40598e:	8d 71 ff             	lea    -0x1(%rcx),%esi
  405991:	40 80 fe 06          	cmp    $0x6,%sil
  405995:	73 39                	jae    4059d0 <teavpn_client_tcp_handler+0x650>
  405997:	4c 39 e3             	cmp    %r12,%rbx
  40599a:	0f 86 79 01 00 00    	jbe    405b19 <teavpn_client_tcp_handler+0x799>
  4059a0:	49 8d 44 24 04       	lea    0x4(%r12),%rax
  4059a5:	48 29 c5             	sub    %rax,%rbp
  4059a8:	48 8d bc 24 60 40 00 	lea    0x4060(%rsp),%rdi
  4059af:	00 
  4059b0:	4a 8d 34 27          	lea    (%rdi,%r12,1),%rsi
  4059b4:	48 83 c6 04          	add    $0x4,%rsi
  4059b8:	48 89 ea             	mov    %rbp,%rdx
  4059bb:	e8 e0 c9 ff ff       	call   4023a0 <memmove@plt>
  4059c0:	48 83 fd 03          	cmp    $0x3,%rbp
  4059c4:	48 8d 5c 24 54       	lea    0x54(%rsp),%rbx
  4059c9:	77 85                	ja     405950 <teavpn_client_tcp_handler+0x5d0>
  4059cb:	e9 50 01 00 00       	jmp    405b20 <teavpn_client_tcp_handler+0x7a0>
  4059d0:	84 c9                	test   %cl,%cl
  4059d2:	0f 85 00 02 00 00    	jne    405bd8 <teavpn_client_tcp_handler+0x858>
  4059d8:	80 7c 24 2d 00       	cmpb   $0x0,0x2d(%rsp)
  4059dd:	75 b8                	jne    405997 <teavpn_client_tcp_handler+0x617>
  4059df:	66 85 c0             	test   %ax,%ax
  4059e2:	0f 85 bb 01 00 00    	jne    405ba3 <teavpn_client_tcp_handler+0x823>
  4059e8:	48 8d 3d 33 48 00 00 	lea    0x4833(%rip),%rdi        # 40a222 <short_opt+0x912>
  4059ef:	31 c0                	xor    %eax,%eax
  4059f1:	e8 aa 25 00 00       	call   407fa0 <__pr_notice>
  4059f6:	48 8b 44 24 30       	mov    0x30(%rsp),%rax
  4059fb:	48 8b 70 28          	mov    0x28(%rax),%rsi
  4059ff:	48 8b 40 30          	mov    0x30(%rax),%rax
  405a03:	48 89 44 24 10       	mov    %rax,0x10(%rsp)
  405a08:	48 8d 05 99 88 00 00 	lea    0x8899(%rip),%rax        # 40e2a8 <__notice_level>
  405a0f:	80 38 03             	cmpb   $0x3,(%rax)
  405a12:	72 1d                	jb     405a31 <teavpn_client_tcp_handler+0x6b1>
  405a14:	48 8d 3d 26 48 00 00 	lea    0x4826(%rip),%rdi        # 40a241 <short_opt+0x931>
  405a1b:	48 89 74 24 08       	mov    %rsi,0x8(%rsp)
  405a20:	48 8b 74 24 08       	mov    0x8(%rsp),%rsi
  405a25:	31 c0                	xor    %eax,%eax
  405a27:	e8 74 25 00 00       	call   407fa0 <__pr_notice>
  405a2c:	48 8b 74 24 08       	mov    0x8(%rsp),%rsi
  405a31:	0f 57 c0             	xorps  %xmm0,%xmm0
  405a34:	48 8d 7c 24 54       	lea    0x54(%rsp),%rdi
  405a39:	0f 11 47 70          	movups %xmm0,0x70(%rdi)
  405a3d:	0f 11 47 60          	movups %xmm0,0x60(%rdi)
  405a41:	0f 11 47 50          	movups %xmm0,0x50(%rdi)
  405a45:	0f 11 47 40          	movups %xmm0,0x40(%rdi)
  405a49:	0f 11 47 30          	movups %xmm0,0x30(%rdi)
  405a4d:	0f 11 47 20          	movups %xmm0,0x20(%rdi)
  405a51:	0f 11 47 10          	movups %xmm0,0x10(%rdi)
  405a55:	0f 11 07             	movups %xmm0,(%rdi)
  405a58:	ba 3f 00 00 00       	mov    $0x3f,%edx
  405a5d:	e8 ae c6 ff ff       	call   402110 <strncpy@plt>
  405a62:	ba 3f 00 00 00       	mov    $0x3f,%edx
  405a67:	48 8d bc 24 94 00 00 	lea    0x94(%rsp),%rdi
  405a6e:	00 
  405a6f:	48 8b 74 24 10       	mov    0x10(%rsp),%rsi
  405a74:	e8 97 c6 ff ff       	call   402110 <strncpy@plt>
  405a79:	c7 44 24 50 01 00 00 	movl   $0x80000001,0x50(%rsp)
  405a80:	80 
  405a81:	ba 84 00 00 00       	mov    $0x84,%edx
  405a86:	48 8d 7c 24 20       	lea    0x20(%rsp),%rdi
  405a8b:	48 8d 74 24 50       	lea    0x50(%rsp),%rsi
  405a90:	e8 eb 03 00 00       	call   405e80 <send_to_server>
  405a95:	48 85 c0             	test   %rax,%rax
  405a98:	0f 8f f9 fe ff ff    	jg     405997 <teavpn_client_tcp_handler+0x617>
  405a9e:	e9 c9 00 00 00       	jmp    405b6c <teavpn_client_tcp_handler+0x7ec>
  405aa3:	e8 88 c5 ff ff       	call   402030 <__errno_location@plt>
  405aa8:	8b 28                	mov    (%rax),%ebp
  405aaa:	83 fd 0b             	cmp    $0xb,%ebp
  405aad:	0f 84 32 fe ff ff    	je     4058e5 <teavpn_client_tcp_handler+0x565>
  405ab3:	e9 ac 01 00 00       	jmp    405c64 <teavpn_client_tcp_handler+0x8e4>
  405ab8:	48 8d 5c 24 54       	lea    0x54(%rsp),%rbx
  405abd:	48 89 6c 24 48       	mov    %rbp,0x48(%rsp)
  405ac2:	e9 1e fe ff ff       	jmp    4058e5 <teavpn_client_tcp_handler+0x565>
  405ac7:	be 04 10 00 00       	mov    $0x1004,%esi
  405acc:	48 8d 3d 60 46 00 00 	lea    0x4660(%rip),%rdi        # 40a133 <short_opt+0x823>
  405ad3:	48 89 e9             	mov    %rbp,%rcx
  405ad6:	31 c0                	xor    %eax,%eax
  405ad8:	e8 c3 24 00 00       	call   407fa0 <__pr_notice>
  405add:	80 7c 24 2d 00       	cmpb   $0x0,0x2d(%rsp)
  405ae2:	0f 84 84 00 00 00    	je     405b6c <teavpn_client_tcp_handler+0x7ec>
  405ae8:	48 c7 44 24 48 00 00 	movq   $0x0,0x48(%rsp)
  405aef:	00 00 
  405af1:	8a 44 24 2e          	mov    0x2e(%rsp),%al
  405af5:	8d 48 01             	lea    0x1(%rax),%ecx
  405af8:	88 4c 24 2e          	mov    %cl,0x2e(%rsp)
  405afc:	3c 0f                	cmp    $0xf,%al
  405afe:	48 8d 5c 24 54       	lea    0x54(%rsp),%rbx
  405b03:	0f 82 dc fd ff ff    	jb     4058e5 <teavpn_client_tcp_handler+0x565>
  405b09:	48 8d 3d b6 45 00 00 	lea    0x45b6(%rip),%rdi        # 40a0c6 <short_opt+0x7b6>
  405b10:	31 c0                	xor    %eax,%eax
  405b12:	e8 d9 1f 00 00       	call   407af0 <__pr_error>
  405b17:	eb 53                	jmp    405b6c <teavpn_client_tcp_handler+0x7ec>
  405b19:	31 ed                	xor    %ebp,%ebp
  405b1b:	48 8d 5c 24 54       	lea    0x54(%rsp),%rbx
  405b20:	48 89 6c 24 48       	mov    %rbp,0x48(%rsp)
  405b25:	e9 bb fd ff ff       	jmp    4058e5 <teavpn_client_tcp_handler+0x565>
  405b2a:	e8 01 c5 ff ff       	call   402030 <__errno_location@plt>
  405b2f:	8b 28                	mov    (%rax),%ebp
  405b31:	83 fd 0b             	cmp    $0xb,%ebp
  405b34:	48 8d 5c 24 54       	lea    0x54(%rsp),%rbx
  405b39:	0f 84 a6 fd ff ff    	je     4058e5 <teavpn_client_tcp_handler+0x565>
  405b3f:	89 ef                	mov    %ebp,%edi
  405b41:	e8 6a c5 ff ff       	call   4020b0 <strerror@plt>
  405b46:	48 8d 3d b0 45 00 00 	lea    0x45b0(%rip),%rdi        # 40a0fd <short_opt+0x7ed>
  405b4d:	44 89 f6             	mov    %r14d,%esi
  405b50:	89 ea                	mov    %ebp,%edx
  405b52:	48 89 c1             	mov    %rax,%rcx
  405b55:	31 c0                	xor    %eax,%eax
  405b57:	e8 94 1f 00 00       	call   407af0 <__pr_error>
  405b5c:	eb 8a                	jmp    405ae8 <teavpn_client_tcp_handler+0x768>
  405b5e:	48 8d 3d ad 45 00 00 	lea    0x45ad(%rip),%rdi        # 40a112 <short_opt+0x802>
  405b65:	31 c0                	xor    %eax,%eax
  405b67:	e8 34 24 00 00       	call   407fa0 <__pr_notice>
  405b6c:	8b 7c 24 20          	mov    0x20(%rsp),%edi
  405b70:	be 02 00 00 00       	mov    $0x2,%esi
  405b75:	44 89 f2             	mov    %r14d,%edx
  405b78:	31 c9                	xor    %ecx,%ecx
  405b7a:	e8 41 c7 ff ff       	call   4022c0 <epoll_ctl@plt>
  405b7f:	85 c0                	test   %eax,%eax
  405b81:	78 32                	js     405bb5 <teavpn_client_tcp_handler+0x835>
  405b83:	44 89 f7             	mov    %r14d,%edi
  405b86:	e8 95 c8 ff ff       	call   402420 <close@plt>
  405b8b:	48 8d 3d 55 45 00 00 	lea    0x4555(%rip),%rdi        # 40a0e7 <short_opt+0x7d7>
  405b92:	31 c0                	xor    %eax,%eax
  405b94:	e8 07 24 00 00       	call   407fa0 <__pr_notice>
  405b99:	48 8d 5c 24 54       	lea    0x54(%rsp),%rbx
  405b9e:	e9 42 fd ff ff       	jmp    4058e5 <teavpn_client_tcp_handler+0x565>
  405ba3:	48 8d 3d 38 46 00 00 	lea    0x4638(%rip),%rdi        # 40a1e2 <short_opt+0x8d2>
  405baa:	89 d6                	mov    %edx,%esi
  405bac:	31 c0                	xor    %eax,%eax
  405bae:	e8 ed 23 00 00       	call   407fa0 <__pr_notice>
  405bb3:	eb b7                	jmp    405b6c <teavpn_client_tcp_handler+0x7ec>
  405bb5:	e8 76 c4 ff ff       	call   402030 <__errno_location@plt>
  405bba:	8b 28                	mov    (%rax),%ebp
  405bbc:	89 ef                	mov    %ebp,%edi
  405bbe:	e8 ed c4 ff ff       	call   4020b0 <strerror@plt>
  405bc3:	48 8d 3d bd 3a 00 00 	lea    0x3abd(%rip),%rdi        # 409687 <_IO_stdin_used+0x687>
  405bca:	89 ee                	mov    %ebp,%esi
  405bcc:	48 89 c2             	mov    %rax,%rdx
  405bcf:	31 c0                	xor    %eax,%eax
  405bd1:	e8 1a 1f 00 00       	call   407af0 <__pr_error>
  405bd6:	eb ab                	jmp    405b83 <teavpn_client_tcp_handler+0x803>
  405bd8:	0f b6 f1             	movzbl %cl,%esi
  405bdb:	48 8d 3d c2 45 00 00 	lea    0x45c2(%rip),%rdi        # 40a1a4 <short_opt+0x894>
  405be2:	31 c0                	xor    %eax,%eax
  405be4:	e8 b7 23 00 00       	call   407fa0 <__pr_notice>
  405be9:	80 7c 24 2d 00       	cmpb   $0x0,0x2d(%rsp)
  405bee:	0f 85 f4 fe ff ff    	jne    405ae8 <teavpn_client_tcp_handler+0x768>
  405bf4:	e9 73 ff ff ff       	jmp    405b6c <teavpn_client_tcp_handler+0x7ec>
  405bf9:	e8 32 c4 ff ff       	call   402030 <__errno_location@plt>
  405bfe:	8b 28                	mov    (%rax),%ebp
  405c00:	83 fd 04             	cmp    $0x4,%ebp
  405c03:	0f 85 2f 00 00 00    	jne    405c38 <teavpn_client_tcp_handler+0x8b8>
  405c09:	48 8d 3d 5e 36 00 00 	lea    0x365e(%rip),%rdi        # 40926e <_IO_stdin_used+0x26e>
  405c10:	31 c0                	xor    %eax,%eax
  405c12:	e8 89 23 00 00       	call   407fa0 <__pr_notice>
  405c17:	66 0f 1f 84 00 00 00 	nopw   0x0(%rax,%rax,1)
  405c1e:	00 00 
  405c20:	80 7c 24 2c 01       	cmpb   $0x1,0x2c(%rsp)
  405c25:	48 8d b4 24 70 80 00 	lea    0x8070(%rsp),%rsi
  405c2c:	00 
  405c2d:	0f 85 32 fc ff ff    	jne    405865 <teavpn_client_tcp_handler+0x4e5>
  405c33:	e9 e2 01 00 00       	jmp    405e1a <teavpn_client_tcp_handler+0xa9a>
  405c38:	89 ef                	mov    %ebp,%edi
  405c3a:	e8 71 c4 ff ff       	call   4020b0 <strerror@plt>
  405c3f:	48 8d 3d 35 36 00 00 	lea    0x3635(%rip),%rdi        # 40927b <_IO_stdin_used+0x27b>
  405c46:	89 ee                	mov    %ebp,%esi
  405c48:	48 89 c2             	mov    %rax,%rdx
  405c4b:	31 c0                	xor    %eax,%eax
  405c4d:	e8 9e 1e 00 00       	call   407af0 <__pr_error>
  405c52:	41 89 ec             	mov    %ebp,%r12d
  405c55:	41 f7 dc             	neg    %r12d
  405c58:	85 ed                	test   %ebp,%ebp
  405c5a:	74 c4                	je     405c20 <teavpn_client_tcp_handler+0x8a0>
  405c5c:	0f 8e 27 fc ff ff    	jle    405889 <teavpn_client_tcp_handler+0x509>
  405c62:	eb 1d                	jmp    405c81 <teavpn_client_tcp_handler+0x901>
  405c64:	89 ef                	mov    %ebp,%edi
  405c66:	e8 45 c4 ff ff       	call   4020b0 <strerror@plt>
  405c6b:	48 8d 3d 42 36 00 00 	lea    0x3642(%rip),%rdi        # 4092b4 <_IO_stdin_used+0x2b4>
  405c72:	44 89 f6             	mov    %r14d,%esi
  405c75:	89 ea                	mov    %ebp,%edx
  405c77:	48 89 c1             	mov    %rax,%rcx
  405c7a:	31 c0                	xor    %eax,%eax
  405c7c:	e8 6f 1e 00 00       	call   407af0 <__pr_error>
  405c81:	44 8b 74 24 20       	mov    0x20(%rsp),%r14d
  405c86:	8b 6c 24 24          	mov    0x24(%rsp),%ebp
  405c8a:	8b 5c 24 28          	mov    0x28(%rsp),%ebx
  405c8e:	83 fb ff             	cmp    $0xffffffff,%ebx
  405c91:	74 17                	je     405caa <teavpn_client_tcp_handler+0x92a>
  405c93:	48 8d 3d 0f 3a 00 00 	lea    0x3a0f(%rip),%rdi        # 4096a9 <_IO_stdin_used+0x6a9>
  405c9a:	89 de                	mov    %ebx,%esi
  405c9c:	31 c0                	xor    %eax,%eax
  405c9e:	e8 fd 22 00 00       	call   407fa0 <__pr_notice>
  405ca3:	89 df                	mov    %ebx,%edi
  405ca5:	e8 76 c7 ff ff       	call   402420 <close@plt>
  405caa:	83 fd ff             	cmp    $0xffffffff,%ebp
  405cad:	74 17                	je     405cc6 <teavpn_client_tcp_handler+0x946>
  405caf:	48 8d 3d 0e 3a 00 00 	lea    0x3a0e(%rip),%rdi        # 4096c4 <_IO_stdin_used+0x6c4>
  405cb6:	89 ee                	mov    %ebp,%esi
  405cb8:	31 c0                	xor    %eax,%eax
  405cba:	e8 e1 22 00 00       	call   407fa0 <__pr_notice>
  405cbf:	89 ef                	mov    %ebp,%edi
  405cc1:	e8 5a c7 ff ff       	call   402420 <close@plt>
  405cc6:	41 83 fe ff          	cmp    $0xffffffff,%r14d
  405cca:	74 19                	je     405ce5 <teavpn_client_tcp_handler+0x965>
  405ccc:	48 8d 3d 0c 3a 00 00 	lea    0x3a0c(%rip),%rdi        # 4096df <_IO_stdin_used+0x6df>
  405cd3:	44 89 f6             	mov    %r14d,%esi
  405cd6:	31 c0                	xor    %eax,%eax
  405cd8:	e8 c3 22 00 00       	call   407fa0 <__pr_notice>
  405cdd:	44 89 f7             	mov    %r14d,%edi
  405ce0:	e8 3b c7 ff ff       	call   402420 <close@plt>
  405ce5:	64 48 8b 04 25 28 00 	mov    %fs:0x28,%rax
  405cec:	00 00 
  405cee:	48 3b 84 24 a0 80 00 	cmp    0x80a0(%rsp),%rax
  405cf5:	00 
  405cf6:	0f 85 3f 01 00 00    	jne    405e3b <teavpn_client_tcp_handler+0xabb>
  405cfc:	44 89 e0             	mov    %r12d,%eax
  405cff:	48 81 c4 a8 80 00 00 	add    $0x80a8,%rsp
  405d06:	5b                   	pop    %rbx
  405d07:	41 5c                	pop    %r12
  405d09:	41 5d                	pop    %r13
  405d0b:	41 5e                	pop    %r14
  405d0d:	41 5f                	pop    %r15
  405d0f:	5d                   	pop    %rbp
  405d10:	c3                   	ret    
  405d11:	e8 1a c3 ff ff       	call   402030 <__errno_location@plt>
  405d16:	8b 28                	mov    (%rax),%ebp
  405d18:	89 ef                	mov    %ebp,%edi
  405d1a:	e8 91 c3 ff ff       	call   4020b0 <strerror@plt>
  405d1f:	48 8d 3d 26 35 00 00 	lea    0x3526(%rip),%rdi        # 40924c <_IO_stdin_used+0x24c>
  405d26:	89 ee                	mov    %ebp,%esi
  405d28:	48 89 c2             	mov    %rax,%rdx
  405d2b:	31 c0                	xor    %eax,%eax
  405d2d:	e8 be 1d 00 00       	call   407af0 <__pr_error>
  405d32:	85 db                	test   %ebx,%ebx
  405d34:	0f 8e f6 00 00 00    	jle    405e30 <teavpn_client_tcp_handler+0xab0>
  405d3a:	89 df                	mov    %ebx,%edi
  405d3c:	e8 df c6 ff ff       	call   402420 <close@plt>
  405d41:	e9 ea 00 00 00       	jmp    405e30 <teavpn_client_tcp_handler+0xab0>
  405d46:	e8 e5 c2 ff ff       	call   402030 <__errno_location@plt>
  405d4b:	8b 18                	mov    (%rax),%ebx
  405d4d:	41 89 dc             	mov    %ebx,%r12d
  405d50:	41 f7 dc             	neg    %r12d
  405d53:	89 df                	mov    %ebx,%edi
  405d55:	e8 56 c3 ff ff       	call   4020b0 <strerror@plt>
  405d5a:	48 8d 3d c4 33 00 00 	lea    0x33c4(%rip),%rdi        # 409125 <_IO_stdin_used+0x125>
  405d61:	89 de                	mov    %ebx,%esi
  405d63:	48 89 c2             	mov    %rax,%rdx
  405d66:	31 c0                	xor    %eax,%eax
  405d68:	e8 83 1d 00 00       	call   407af0 <__pr_error>
  405d6d:	e9 7b f9 ff ff       	jmp    4056ed <teavpn_client_tcp_handler+0x36d>
  405d72:	e8 b9 c2 ff ff       	call   402030 <__errno_location@plt>
  405d77:	8b 18                	mov    (%rax),%ebx
  405d79:	89 df                	mov    %ebx,%edi
  405d7b:	e8 30 c3 ff ff       	call   4020b0 <strerror@plt>
  405d80:	48 8d 3d ad 34 00 00 	lea    0x34ad(%rip),%rdi        # 409234 <_IO_stdin_used+0x234>
  405d87:	89 de                	mov    %ebx,%esi
  405d89:	48 89 c2             	mov    %rax,%rdx
  405d8c:	31 c0                	xor    %eax,%eax
  405d8e:	e8 5d 1d 00 00       	call   407af0 <__pr_error>
  405d93:	e9 98 00 00 00       	jmp    405e30 <teavpn_client_tcp_handler+0xab0>
  405d98:	41 89 c4             	mov    %eax,%r12d
  405d9b:	48 8d 2d fd 33 00 00 	lea    0x33fd(%rip),%rbp        # 40919f <_IO_stdin_used+0x19f>
  405da2:	eb 41                	jmp    405de5 <teavpn_client_tcp_handler+0xa65>
  405da4:	41 89 c4             	mov    %eax,%r12d
  405da7:	48 8d 2d 0a 34 00 00 	lea    0x340a(%rip),%rbp        # 4091b8 <_IO_stdin_used+0x1b8>
  405dae:	4c 8d 3d f7 33 00 00 	lea    0x33f7(%rip),%r15        # 4091ac <_IO_stdin_used+0x1ac>
  405db5:	eb 2e                	jmp    405de5 <teavpn_client_tcp_handler+0xa65>
  405db7:	41 89 c4             	mov    %eax,%r12d
  405dba:	48 8d 2d 03 34 00 00 	lea    0x3403(%rip),%rbp        # 4091c4 <_IO_stdin_used+0x1c4>
  405dc1:	eb 22                	jmp    405de5 <teavpn_client_tcp_handler+0xa65>
  405dc3:	41 89 c4             	mov    %eax,%r12d
  405dc6:	48 8d 2d 07 34 00 00 	lea    0x3407(%rip),%rbp        # 4091d4 <_IO_stdin_used+0x1d4>
  405dcd:	eb 16                	jmp    405de5 <teavpn_client_tcp_handler+0xa65>
  405dcf:	41 89 c4             	mov    %eax,%r12d
  405dd2:	48 8d 2d 0a 34 00 00 	lea    0x340a(%rip),%rbp        # 4091e3 <_IO_stdin_used+0x1e3>
  405dd9:	eb 0a                	jmp    405de5 <teavpn_client_tcp_handler+0xa65>
  405ddb:	41 89 c4             	mov    %eax,%r12d
  405dde:	48 8d 2d 0d 34 00 00 	lea    0x340d(%rip),%rbp        # 4091f2 <_IO_stdin_used+0x1f2>
  405de5:	e8 46 c2 ff ff       	call   402030 <__errno_location@plt>
  405dea:	8b 18                	mov    (%rax),%ebx
  405dec:	89 df                	mov    %ebx,%edi
  405dee:	e8 bd c2 ff ff       	call   4020b0 <strerror@plt>
  405df3:	48 8d 3d 05 34 00 00 	lea    0x3405(%rip),%rdi        # 4091ff <_IO_stdin_used+0x1ff>
  405dfa:	4c 89 fe             	mov    %r15,%rsi
  405dfd:	48 89 ea             	mov    %rbp,%rdx
  405e00:	89 d9                	mov    %ebx,%ecx
  405e02:	49 89 c0             	mov    %rax,%r8
  405e05:	31 c0                	xor    %eax,%eax
  405e07:	e8 e4 1c 00 00       	call   407af0 <__pr_error>
  405e0c:	45 85 ed             	test   %r13d,%r13d
  405e0f:	0f 8f d0 f8 ff ff    	jg     4056e5 <teavpn_client_tcp_handler+0x365>
  405e15:	e9 d3 f8 ff ff       	jmp    4056ed <teavpn_client_tcp_handler+0x36d>
  405e1a:	45 31 e4             	xor    %r12d,%r12d
  405e1d:	e9 5f fe ff ff       	jmp    405c81 <teavpn_client_tcp_handler+0x901>
  405e22:	48 8d 3d 74 42 00 00 	lea    0x4274(%rip),%rdi        # 40a09d <short_opt+0x78d>
  405e29:	31 c0                	xor    %eax,%eax
  405e2b:	e8 c0 1c 00 00       	call   407af0 <__pr_error>
  405e30:	41 bc ff ff ff ff    	mov    $0xffffffff,%r12d
  405e36:	e9 46 fe ff ff       	jmp    405c81 <teavpn_client_tcp_handler+0x901>
  405e3b:	e8 00 c4 ff ff       	call   402240 <__stack_chk_fail@plt>

0000000000405e40 <handle_interrupt>:
  405e40:	53                   	push   %rbx
  405e41:	89 fb                	mov    %edi,%ebx
  405e43:	48 8b 05 7e 84 00 00 	mov    0x847e(%rip),%rax        # 40e2c8 <g_state>
  405e4a:	c6 40 0c 01          	movb   $0x1,0xc(%rax)
  405e4e:	48 8b 05 7b 81 00 00 	mov    0x817b(%rip),%rax        # 40dfd0 <stdout@GLIBC_2.2.5>
  405e55:	48 8b 30             	mov    (%rax),%rsi
  405e58:	bf 0a 00 00 00       	mov    $0xa,%edi
  405e5d:	e8 ae c5 ff ff       	call   402410 <putc@plt>
  405e62:	89 df                	mov    %ebx,%edi
  405e64:	e8 67 c5 ff ff       	call   4023d0 <strsignal@plt>
  405e69:	48 8d 3d 02 32 00 00 	lea    0x3202(%rip),%rdi        # 409072 <_IO_stdin_used+0x72>
  405e70:	89 de                	mov    %ebx,%esi
  405e72:	48 89 c2             	mov    %rax,%rdx
  405e75:	31 c0                	xor    %eax,%eax
  405e77:	5b                   	pop    %rbx
  405e78:	e9 23 21 00 00       	jmp    407fa0 <__pr_notice>
  405e7d:	0f 1f 00             	nopl   (%rax)

0000000000405e80 <send_to_server>:
  405e80:	55                   	push   %rbp
  405e81:	41 56                	push   %r14
  405e83:	53                   	push   %rbx
  405e84:	48 89 d3             	mov    %rdx,%rbx
  405e87:	44 8b 77 04          	mov    0x4(%rdi),%r14d
  405e8b:	0f b6 46 01          	movzbl 0x1(%rsi),%eax
  405e8f:	48 01 c3             	add    %rax,%rbx
  405e92:	83 47 1c 01          	addl   $0x1,0x1c(%rdi)
  405e96:	44 89 f7             	mov    %r14d,%edi
  405e99:	48 89 da             	mov    %rbx,%rdx
  405e9c:	31 c9                	xor    %ecx,%ecx
  405e9e:	e8 5d c2 ff ff       	call   402100 <send@plt>
  405ea3:	48 85 c0             	test   %rax,%rax
  405ea6:	78 10                	js     405eb8 <send_to_server+0x38>
  405ea8:	48 89 c5             	mov    %rax,%rbp
  405eab:	48 39 c3             	cmp    %rax,%rbx
  405eae:	75 26                	jne    405ed6 <send_to_server+0x56>
  405eb0:	48 89 d8             	mov    %rbx,%rax
  405eb3:	5b                   	pop    %rbx
  405eb4:	41 5e                	pop    %r14
  405eb6:	5d                   	pop    %rbp
  405eb7:	c3                   	ret    
  405eb8:	e8 73 c1 ff ff       	call   402030 <__errno_location@plt>
  405ebd:	8b 18                	mov    (%rax),%ebx
  405ebf:	83 fb 0b             	cmp    $0xb,%ebx
  405ec2:	75 2b                	jne    405eef <send_to_server+0x6f>
  405ec4:	48 8d 3d 75 41 00 00 	lea    0x4175(%rip),%rdi        # 40a040 <short_opt+0x730>
  405ecb:	31 db                	xor    %ebx,%ebx
  405ecd:	31 c0                	xor    %eax,%eax
  405ecf:	e8 1c 1c 00 00       	call   407af0 <__pr_error>
  405ed4:	eb da                	jmp    405eb0 <send_to_server+0x30>
  405ed6:	48 8d 3d 83 41 00 00 	lea    0x4183(%rip),%rdi        # 40a060 <short_opt+0x750>
  405edd:	48 89 de             	mov    %rbx,%rsi
  405ee0:	48 89 ea             	mov    %rbp,%rdx
  405ee3:	31 c0                	xor    %eax,%eax
  405ee5:	e8 06 1c 00 00       	call   407af0 <__pr_error>
  405eea:	48 89 eb             	mov    %rbp,%rbx
  405eed:	eb c1                	jmp    405eb0 <send_to_server+0x30>
  405eef:	89 df                	mov    %ebx,%edi
  405ef1:	e8 ba c1 ff ff       	call   4020b0 <strerror@plt>
  405ef6:	48 8d 3d ba 36 00 00 	lea    0x36ba(%rip),%rdi        # 4095b7 <_IO_stdin_used+0x5b7>
  405efd:	44 89 f6             	mov    %r14d,%esi
  405f00:	89 da                	mov    %ebx,%edx
  405f02:	48 89 c1             	mov    %rax,%rcx
  405f05:	31 c0                	xor    %eax,%eax
  405f07:	e8 e4 1b 00 00       	call   407af0 <__pr_error>
  405f0c:	48 c7 c3 ff ff ff ff 	mov    $0xffffffffffffffff,%rbx
  405f13:	eb 9b                	jmp    405eb0 <send_to_server+0x30>
  405f15:	66 2e 0f 1f 84 00 00 	cs nopw 0x0(%rax,%rax,1)
  405f1c:	00 00 00 
  405f1f:	90                   	nop

0000000000405f20 <teavpn_client_argv_parse>:
  405f20:	55                   	push   %rbp
  405f21:	41 57                	push   %r15
  405f23:	41 56                	push   %r14
  405f25:	41 55                	push   %r13
  405f27:	41 54                	push   %r12
  405f29:	53                   	push   %rbx
  405f2a:	48 83 ec 28          	sub    $0x28,%rsp
  405f2e:	49 89 d5             	mov    %rdx,%r13
  405f31:	49 89 f6             	mov    %rsi,%r14
  405f34:	41 89 fc             	mov    %edi,%r12d
  405f37:	64 48 8b 04 25 28 00 	mov    %fs:0x28,%rax
  405f3e:	00 00 
  405f40:	48 89 44 24 20       	mov    %rax,0x20(%rsp)
  405f45:	48 8b 06             	mov    (%rsi),%rax
  405f48:	48 89 44 24 08       	mov    %rax,0x8(%rsp)
  405f4d:	48 8d 05 2c 83 00 00 	lea    0x832c(%rip),%rax        # 40e280 <d_cli_cfg_file>
  405f54:	48 89 02             	mov    %rax,(%rdx)
  405f57:	48 c7 42 08 00 00 00 	movq   $0x0,0x8(%rdx)
  405f5e:	00 
  405f5f:	48 8d 05 2c 83 00 00 	lea    0x832c(%rip),%rax        # 40e292 <d_cli_dev>
  405f66:	48 89 42 10          	mov    %rax,0x10(%rdx)
  405f6a:	8b 05 60 83 00 00    	mov    0x8360(%rip),%eax        # 40e2d0 <d_cli_sock_type>
  405f70:	89 42 18             	mov    %eax,0x18(%rdx)
  405f73:	48 c7 42 20 00 00 00 	movq   $0x0,0x20(%rdx)
  405f7a:	00 
  405f7b:	0f b7 05 18 83 00 00 	movzwl 0x8318(%rip),%eax        # 40e29a <d_cli_server_port>
  405f82:	66 89 42 1c          	mov    %ax,0x1c(%rdx)
  405f86:	48 8d 42 28          	lea    0x28(%rdx),%rax
  405f8a:	48 89 44 24 10       	mov    %rax,0x10(%rsp)
  405f8f:	0f 57 c0             	xorps  %xmm0,%xmm0
  405f92:	0f 11 42 28          	movups %xmm0,0x28(%rdx)
  405f96:	41 83 c4 ff          	add    $0xffffffff,%r12d
  405f9a:	49 83 c6 08          	add    $0x8,%r14
  405f9e:	48 8d 2d 8b 43 00 00 	lea    0x438b(%rip),%rbp        # 40a330 <short_opt>
  405fa5:	4c 8d 3d a4 7c 00 00 	lea    0x7ca4(%rip),%r15        # 40dc50 <long_opt>
  405fac:	48 8d 1d ad 42 00 00 	lea    0x42ad(%rip),%rbx        # 40a260 <short_opt+0x950>
  405fb3:	66 2e 0f 1f 84 00 00 	cs nopw 0x0(%rax,%rax,1)
  405fba:	00 00 00 
  405fbd:	0f 1f 00             	nopl   (%rax)
  405fc0:	c7 44 24 1c 00 00 00 	movl   $0x0,0x1c(%rsp)
  405fc7:	00 
  405fc8:	44 89 e7             	mov    %r12d,%edi
  405fcb:	4c 89 f6             	mov    %r14,%rsi
  405fce:	48 89 ea             	mov    %rbp,%rdx
  405fd1:	4c 89 f9             	mov    %r15,%rcx
  405fd4:	4c 8d 44 24 1c       	lea    0x1c(%rsp),%r8
  405fd9:	e8 d2 c3 ff ff       	call   4023b0 <getopt_long@plt>
  405fde:	8d 48 bc             	lea    -0x44(%rax),%ecx
  405fe1:	83 f9 32             	cmp    $0x32,%ecx
  405fe4:	0f 87 5e 01 00 00    	ja     406148 <teavpn_client_argv_parse+0x228>
  405fea:	48 63 04 8b          	movslq (%rbx,%rcx,4),%rax
  405fee:	48 01 d8             	add    %rbx,%rax
  405ff1:	ff e0                	jmp    *%rax
  405ff3:	48 8b 05 de 7f 00 00 	mov    0x7fde(%rip),%rax        # 40dfd8 <optarg@GLIBC_2.2.5>
  405ffa:	48 8b 38             	mov    (%rax),%rdi
  405ffd:	be ff 00 00 00       	mov    $0xff,%esi
  406002:	e8 39 0d 00 00       	call   406d40 <trunc_str>
  406007:	49 89 45 08          	mov    %rax,0x8(%r13)
  40600b:	eb b3                	jmp    405fc0 <teavpn_client_argv_parse+0xa0>
  40600d:	c7 44 24 18 00 00 00 	movl   $0x0,0x18(%rsp)
  406014:	00 
  406015:	48 8b 05 bc 7f 00 00 	mov    0x7fbc(%rip),%rax        # 40dfd8 <optarg@GLIBC_2.2.5>
  40601c:	48 8b 30             	mov    (%rax),%rsi
  40601f:	ba 03 00 00 00       	mov    $0x3,%edx
  406024:	48 8d 7c 24 18       	lea    0x18(%rsp),%rdi
  406029:	e8 e2 c0 ff ff       	call   402110 <strncpy@plt>
  40602e:	81 4c 24 18 20 20 20 	orl    $0x20202020,0x18(%rsp)
  406035:	20 
  406036:	c6 44 24 1b 00       	movb   $0x0,0x1b(%rsp)
  40603b:	31 c0                	xor    %eax,%eax
  40603d:	8b 4c 24 18          	mov    0x18(%rsp),%ecx
  406041:	81 f9 74 63 70 00    	cmp    $0x706374,%ecx
  406047:	74 11                	je     40605a <teavpn_client_argv_parse+0x13a>
  406049:	81 f9 75 64 70 00    	cmp    $0x706475,%ecx
  40604f:	0f 85 1c 01 00 00    	jne    406171 <teavpn_client_argv_parse+0x251>
  406055:	b8 01 00 00 00       	mov    $0x1,%eax
  40605a:	41 89 45 18          	mov    %eax,0x18(%r13)
  40605e:	e9 5d ff ff ff       	jmp    405fc0 <teavpn_client_argv_parse+0xa0>
  406063:	48 8b 05 6e 7f 00 00 	mov    0x7f6e(%rip),%rax        # 40dfd8 <optarg@GLIBC_2.2.5>
  40606a:	44 89 64 24 04       	mov    %r12d,0x4(%rsp)
  40606f:	49 89 c4             	mov    %rax,%r12
  406072:	48 8b 38             	mov    (%rax),%rdi
  406075:	be ff 00 00 00       	mov    $0xff,%esi
  40607a:	e8 e1 07 00 00       	call   406860 <ar_strndup>
  40607f:	49 89 45 30          	mov    %rax,0x30(%r13)
  406083:	4d 8b 24 24          	mov    (%r12),%r12
  406087:	4c 89 e7             	mov    %r12,%rdi
  40608a:	e8 41 c0 ff ff       	call   4020d0 <strlen@plt>
  40608f:	4c 89 e7             	mov    %r12,%rdi
  406092:	44 8b 64 24 04       	mov    0x4(%rsp),%r12d
  406097:	48 8d 2d 92 42 00 00 	lea    0x4292(%rip),%rbp        # 40a330 <short_opt>
  40609e:	be 78 00 00 00       	mov    $0x78,%esi
  4060a3:	48 89 c2             	mov    %rax,%rdx
  4060a6:	e8 75 c0 ff ff       	call   402120 <memset@plt>
  4060ab:	e9 10 ff ff ff       	jmp    405fc0 <teavpn_client_argv_parse+0xa0>
  4060b0:	48 8b 05 21 7f 00 00 	mov    0x7f21(%rip),%rax        # 40dfd8 <optarg@GLIBC_2.2.5>
  4060b7:	48 8b 38             	mov    (%rax),%rdi
  4060ba:	be 40 00 00 00       	mov    $0x40,%esi
  4060bf:	e8 7c 0c 00 00       	call   406d40 <trunc_str>
  4060c4:	48 8b 4c 24 10       	mov    0x10(%rsp),%rcx
  4060c9:	48 89 01             	mov    %rax,(%rcx)
  4060cc:	e9 ef fe ff ff       	jmp    405fc0 <teavpn_client_argv_parse+0xa0>
  4060d1:	48 8b 05 00 7f 00 00 	mov    0x7f00(%rip),%rax        # 40dfd8 <optarg@GLIBC_2.2.5>
  4060d8:	48 8b 38             	mov    (%rax),%rdi
  4060db:	be ff 00 00 00       	mov    $0xff,%esi
  4060e0:	e8 5b 0c 00 00       	call   406d40 <trunc_str>
  4060e5:	49 89 45 00          	mov    %rax,0x0(%r13)
  4060e9:	e9 d2 fe ff ff       	jmp    405fc0 <teavpn_client_argv_parse+0xa0>
  4060ee:	48 8b 05 e3 7e 00 00 	mov    0x7ee3(%rip),%rax        # 40dfd8 <optarg@GLIBC_2.2.5>
  4060f5:	48 8b 38             	mov    (%rax),%rdi
  4060f8:	31 f6                	xor    %esi,%esi
  4060fa:	ba 0a 00 00 00       	mov    $0xa,%edx
  4060ff:	e8 ec c1 ff ff       	call   4022f0 <strtol@plt>
  406104:	66 41 89 45 1c       	mov    %ax,0x1c(%r13)
  406109:	e9 b2 fe ff ff       	jmp    405fc0 <teavpn_client_argv_parse+0xa0>
  40610e:	48 8b 05 c3 7e 00 00 	mov    0x7ec3(%rip),%rax        # 40dfd8 <optarg@GLIBC_2.2.5>
  406115:	48 8b 38             	mov    (%rax),%rdi
  406118:	be ff 00 00 00       	mov    $0xff,%esi
  40611d:	e8 1e 0c 00 00       	call   406d40 <trunc_str>
  406122:	49 89 45 10          	mov    %rax,0x10(%r13)
  406126:	e9 95 fe ff ff       	jmp    405fc0 <teavpn_client_argv_parse+0xa0>
  40612b:	48 8b 05 a6 7e 00 00 	mov    0x7ea6(%rip),%rax        # 40dfd8 <optarg@GLIBC_2.2.5>
  406132:	48 8b 38             	mov    (%rax),%rdi
  406135:	be ff 00 00 00       	mov    $0xff,%esi
  40613a:	e8 01 0c 00 00       	call   406d40 <trunc_str>
  40613f:	49 89 45 20          	mov    %rax,0x20(%r13)
  406143:	e9 78 fe ff ff       	jmp    405fc0 <teavpn_client_argv_parse+0xa0>
  406148:	83 f8 ff             	cmp    $0xffffffff,%eax
  40614b:	74 3e                	je     40618b <teavpn_client_argv_parse+0x26b>
  40614d:	b8 ff ff ff ff       	mov    $0xffffffff,%eax
  406152:	64 48 8b 0c 25 28 00 	mov    %fs:0x28,%rcx
  406159:	00 00 
  40615b:	48 3b 4c 24 20       	cmp    0x20(%rsp),%rcx
  406160:	75 3b                	jne    40619d <teavpn_client_argv_parse+0x27d>
  406162:	48 83 c4 28          	add    $0x28,%rsp
  406166:	5b                   	pop    %rbx
  406167:	41 5c                	pop    %r12
  406169:	41 5d                	pop    %r13
  40616b:	41 5e                	pop    %r14
  40616d:	41 5f                	pop    %r15
  40616f:	5d                   	pop    %rbp
  406170:	c3                   	ret    
  406171:	48 8b 05 60 7e 00 00 	mov    0x7e60(%rip),%rax        # 40dfd8 <optarg@GLIBC_2.2.5>
  406178:	48 8b 30             	mov    (%rax),%rsi
  40617b:	48 8d 3d a7 37 00 00 	lea    0x37a7(%rip),%rdi        # 409929 <short_opt+0x19>
  406182:	31 c0                	xor    %eax,%eax
  406184:	e8 67 19 00 00       	call   407af0 <__pr_error>
  406189:	eb c2                	jmp    40614d <teavpn_client_argv_parse+0x22d>
  40618b:	31 c0                	xor    %eax,%eax
  40618d:	64 48 8b 0c 25 28 00 	mov    %fs:0x28,%rcx
  406194:	00 00 
  406196:	48 3b 4c 24 20       	cmp    0x20(%rsp),%rcx
  40619b:	74 c5                	je     406162 <teavpn_client_argv_parse+0x242>
  40619d:	e8 9e c0 ff ff       	call   402240 <__stack_chk_fail@plt>
  4061a2:	48 8b 7c 24 08       	mov    0x8(%rsp),%rdi
  4061a7:	e8 a4 04 00 00       	call   406650 <teavpn_client_show_help>
  4061ac:	31 ff                	xor    %edi,%edi
  4061ae:	e8 dd c0 ff ff       	call   402290 <exit@plt>
  4061b3:	e8 28 19 00 00       	call   407ae0 <teavpn_print_version>
  4061b8:	31 ff                	xor    %edi,%edi
  4061ba:	e8 d1 c0 ff ff       	call   402290 <exit@plt>
  4061bf:	90                   	nop

00000000004061c0 <teavpn_client_cfg_parse>:
  4061c0:	55                   	push   %rbp
  4061c1:	41 56                	push   %r14
  4061c3:	53                   	push   %rbx
  4061c4:	48 83 ec 20          	sub    $0x20,%rsp
  4061c8:	64 48 8b 04 25 28 00 	mov    %fs:0x28,%rax
  4061cf:	00 00 
  4061d1:	48 89 44 24 18       	mov    %rax,0x18(%rsp)
  4061d6:	48 8b 1f             	mov    (%rdi),%rbx
  4061d9:	c6 44 24 08 01       	movb   $0x1,0x8(%rsp)
  4061de:	48 89 7c 24 10       	mov    %rdi,0x10(%rsp)
  4061e3:	31 ed                	xor    %ebp,%ebp
  4061e5:	48 85 db             	test   %rbx,%rbx
  4061e8:	0f 84 a1 00 00 00    	je     40628f <teavpn_client_cfg_parse+0xcf>
  4061ee:	80 3b 00             	cmpb   $0x0,(%rbx)
  4061f1:	0f 84 98 00 00 00    	je     40628f <teavpn_client_cfg_parse+0xcf>
  4061f7:	48 8d 35 85 37 00 00 	lea    0x3785(%rip),%rsi        # 409983 <short_opt+0x73>
  4061fe:	48 89 df             	mov    %rbx,%rdi
  406201:	e8 5a c0 ff ff       	call   402260 <fopen@plt>
  406206:	48 85 c0             	test   %rax,%rax
  406209:	74 3c                	je     406247 <teavpn_client_cfg_parse+0x87>
  40620b:	49 89 c6             	mov    %rax,%r14
  40620e:	48 8d 35 9b 00 00 00 	lea    0x9b(%rip),%rsi        # 4062b0 <parser_handler>
  406215:	48 8d 54 24 08       	lea    0x8(%rsp),%rdx
  40621a:	48 89 c7             	mov    %rax,%rdi
  40621d:	e8 7e cc ff ff       	call   402ea0 <ini_parse_file>
  406222:	85 c0                	test   %eax,%eax
  406224:	78 5c                	js     406282 <teavpn_client_cfg_parse+0xc2>
  406226:	31 ed                	xor    %ebp,%ebp
  406228:	80 7c 24 08 00       	cmpb   $0x0,0x8(%rsp)
  40622d:	75 58                	jne    406287 <teavpn_client_cfg_parse+0xc7>
  40622f:	48 8d 3d 8d 38 00 00 	lea    0x388d(%rip),%rdi        # 409ac3 <short_opt+0x1b3>
  406236:	48 89 de             	mov    %rbx,%rsi
  406239:	31 c0                	xor    %eax,%eax
  40623b:	e8 b0 18 00 00       	call   407af0 <__pr_error>
  406240:	bd ea ff ff ff       	mov    $0xffffffea,%ebp
  406245:	eb 40                	jmp    406287 <teavpn_client_cfg_parse+0xc7>
  406247:	48 8d 35 32 80 00 00 	lea    0x8032(%rip),%rsi        # 40e280 <d_cli_cfg_file>
  40624e:	48 89 df             	mov    %rbx,%rdi
  406251:	e8 8a c0 ff ff       	call   4022e0 <strcmp@plt>
  406256:	85 c0                	test   %eax,%eax
  406258:	74 35                	je     40628f <teavpn_client_cfg_parse+0xcf>
  40625a:	e8 d1 bd ff ff       	call   402030 <__errno_location@plt>
  40625f:	8b 28                	mov    (%rax),%ebp
  406261:	89 ef                	mov    %ebp,%edi
  406263:	e8 48 be ff ff       	call   4020b0 <strerror@plt>
  406268:	48 8d 3d ec 40 00 00 	lea    0x40ec(%rip),%rdi        # 40a35b <short_opt+0x2b>
  40626f:	48 89 de             	mov    %rbx,%rsi
  406272:	89 ea                	mov    %ebp,%edx
  406274:	48 89 c1             	mov    %rax,%rcx
  406277:	31 c0                	xor    %eax,%eax
  406279:	e8 72 18 00 00       	call   407af0 <__pr_error>
  40627e:	f7 dd                	neg    %ebp
  406280:	eb 0d                	jmp    40628f <teavpn_client_cfg_parse+0xcf>
  406282:	bd ff ff ff ff       	mov    $0xffffffff,%ebp
  406287:	4c 89 f7             	mov    %r14,%rdi
  40628a:	e8 51 bf ff ff       	call   4021e0 <fclose@plt>
  40628f:	64 48 8b 04 25 28 00 	mov    %fs:0x28,%rax
  406296:	00 00 
  406298:	48 3b 44 24 18       	cmp    0x18(%rsp),%rax
  40629d:	75 0b                	jne    4062aa <teavpn_client_cfg_parse+0xea>
  40629f:	89 e8                	mov    %ebp,%eax
  4062a1:	48 83 c4 20          	add    $0x20,%rsp
  4062a5:	5b                   	pop    %rbx
  4062a6:	41 5e                	pop    %r14
  4062a8:	5d                   	pop    %rbp
  4062a9:	c3                   	ret    
  4062aa:	e8 91 bf ff ff       	call   402240 <__stack_chk_fail@plt>
  4062af:	90                   	nop

00000000004062b0 <parser_handler>:
  4062b0:	55                   	push   %rbp
  4062b1:	41 57                	push   %r15
  4062b3:	41 56                	push   %r14
  4062b5:	41 55                	push   %r13
  4062b7:	41 54                	push   %r12
  4062b9:	53                   	push   %rbx
  4062ba:	48 83 ec 18          	sub    $0x18,%rsp
  4062be:	45 89 c7             	mov    %r8d,%r15d
  4062c1:	49 89 ce             	mov    %rcx,%r14
  4062c4:	49 89 d4             	mov    %rdx,%r12
  4062c7:	48 89 f5             	mov    %rsi,%rbp
  4062ca:	48 89 fb             	mov    %rdi,%rbx
  4062cd:	64 48 8b 04 25 28 00 	mov    %fs:0x28,%rax
  4062d4:	00 00 
  4062d6:	48 89 44 24 10       	mov    %rax,0x10(%rsp)
  4062db:	4c 8b 6f 08          	mov    0x8(%rdi),%r13
  4062df:	48 8d 35 fd 37 00 00 	lea    0x37fd(%rip),%rsi        # 409ae3 <short_opt+0x1d3>
  4062e6:	48 89 ef             	mov    %rbp,%rdi
  4062e9:	e8 f2 bf ff ff       	call   4022e0 <strcmp@plt>
  4062ee:	85 c0                	test   %eax,%eax
  4062f0:	0f 84 81 00 00 00    	je     406377 <parser_handler+0xc7>
  4062f6:	48 8d 35 03 38 00 00 	lea    0x3803(%rip),%rsi        # 409b00 <short_opt+0x1f0>
  4062fd:	48 89 ef             	mov    %rbp,%rdi
  406300:	e8 db bf ff ff       	call   4022e0 <strcmp@plt>
  406305:	85 c0                	test   %eax,%eax
  406307:	0f 84 b7 00 00 00    	je     4063c4 <parser_handler+0x114>
  40630d:	48 8d 35 24 37 00 00 	lea    0x3724(%rip),%rsi        # 409a38 <short_opt+0x128>
  406314:	48 89 ef             	mov    %rbp,%rdi
  406317:	e8 c4 bf ff ff       	call   4022e0 <strcmp@plt>
  40631c:	85 c0                	test   %eax,%eax
  40631e:	0f 84 10 01 00 00    	je     406434 <parser_handler+0x184>
  406324:	48 8d 35 f6 36 00 00 	lea    0x36f6(%rip),%rsi        # 409a21 <short_opt+0x111>
  40632b:	48 89 ef             	mov    %rbp,%rdi
  40632e:	e8 ad bf ff ff       	call   4022e0 <strcmp@plt>
  406333:	85 c0                	test   %eax,%eax
  406335:	0f 84 27 01 00 00    	je     406462 <parser_handler+0x1b2>
  40633b:	48 8d 3d 09 37 00 00 	lea    0x3709(%rip),%rdi        # 409a4b <short_opt+0x13b>
  406342:	48 89 ee             	mov    %rbp,%rsi
  406345:	44 89 fa             	mov    %r15d,%edx
  406348:	31 c0                	xor    %eax,%eax
  40634a:	e8 a1 17 00 00       	call   407af0 <__pr_error>
  40634f:	c6 03 00             	movb   $0x0,(%rbx)
  406352:	31 c0                	xor    %eax,%eax
  406354:	64 48 8b 0c 25 28 00 	mov    %fs:0x28,%rcx
  40635b:	00 00 
  40635d:	48 3b 4c 24 10       	cmp    0x10(%rsp),%rcx
  406362:	0f 85 16 02 00 00    	jne    40657e <parser_handler+0x2ce>
  406368:	48 83 c4 18          	add    $0x18,%rsp
  40636c:	5b                   	pop    %rbx
  40636d:	41 5c                	pop    %r12
  40636f:	41 5d                	pop    %r13
  406371:	41 5e                	pop    %r14
  406373:	41 5f                	pop    %r15
  406375:	5d                   	pop    %rbp
  406376:	c3                   	ret    
  406377:	48 8d 35 6b 37 00 00 	lea    0x376b(%rip),%rsi        # 409ae9 <short_opt+0x1d9>
  40637e:	4c 89 e7             	mov    %r12,%rdi
  406381:	e8 5a bf ff ff       	call   4022e0 <strcmp@plt>
  406386:	85 c0                	test   %eax,%eax
  406388:	0f 84 1e 01 00 00    	je     4064ac <parser_handler+0x1fc>
  40638e:	48 8d 35 5d 37 00 00 	lea    0x375d(%rip),%rsi        # 409af2 <short_opt+0x1e2>
  406395:	4c 89 e7             	mov    %r12,%rdi
  406398:	e8 43 bf ff ff       	call   4022e0 <strcmp@plt>
  40639d:	85 c0                	test   %eax,%eax
  40639f:	0f 85 eb 00 00 00    	jne    406490 <parser_handler+0x1e0>
  4063a5:	4c 89 f7             	mov    %r14,%rdi
  4063a8:	31 f6                	xor    %esi,%esi
  4063aa:	ba 0a 00 00 00       	mov    $0xa,%edx
  4063af:	e8 3c bf ff ff       	call   4022f0 <strtol@plt>
  4063b4:	48 8d 0d ed 7e 00 00 	lea    0x7eed(%rip),%rcx        # 40e2a8 <__notice_level>
  4063bb:	88 01                	mov    %al,(%rcx)
  4063bd:	b8 01 00 00 00       	mov    $0x1,%eax
  4063c2:	eb 90                	jmp    406354 <parser_handler+0xa4>
  4063c4:	48 8d 35 3c 37 00 00 	lea    0x373c(%rip),%rsi        # 409b07 <short_opt+0x1f7>
  4063cb:	4c 89 e7             	mov    %r12,%rdi
  4063ce:	e8 0d bf ff ff       	call   4022e0 <strcmp@plt>
  4063d3:	85 c0                	test   %eax,%eax
  4063d5:	0f 84 ec 00 00 00    	je     4064c7 <parser_handler+0x217>
  4063db:	48 8d 35 9c 3f 00 00 	lea    0x3f9c(%rip),%rsi        # 40a37e <short_opt+0x4e>
  4063e2:	4c 89 e7             	mov    %r12,%rdi
  4063e5:	e8 f6 be ff ff       	call   4022e0 <strcmp@plt>
  4063ea:	85 c0                	test   %eax,%eax
  4063ec:	0f 84 15 01 00 00    	je     406507 <parser_handler+0x257>
  4063f2:	48 8d 35 91 3f 00 00 	lea    0x3f91(%rip),%rsi        # 40a38a <short_opt+0x5a>
  4063f9:	4c 89 e7             	mov    %r12,%rdi
  4063fc:	e8 df be ff ff       	call   4022e0 <strcmp@plt>
  406401:	85 c0                	test   %eax,%eax
  406403:	0f 85 87 00 00 00    	jne    406490 <parser_handler+0x1e0>
  406409:	be 06 00 00 00       	mov    $0x6,%esi
  40640e:	4c 89 f7             	mov    %r14,%rdi
  406411:	e8 4a 04 00 00       	call   406860 <ar_strndup>
  406416:	48 89 c7             	mov    %rax,%rdi
  406419:	31 f6                	xor    %esi,%esi
  40641b:	ba 0a 00 00 00       	mov    $0xa,%edx
  406420:	e8 cb be ff ff       	call   4022f0 <strtol@plt>
  406425:	66 41 89 45 1c       	mov    %ax,0x1c(%r13)
  40642a:	b8 01 00 00 00       	mov    $0x1,%eax
  40642f:	e9 20 ff ff ff       	jmp    406354 <parser_handler+0xa4>
  406434:	48 8d 35 20 35 00 00 	lea    0x3520(%rip),%rsi        # 40995b <short_opt+0x4b>
  40643b:	4c 89 e7             	mov    %r12,%rdi
  40643e:	e8 9d be ff ff       	call   4022e0 <strcmp@plt>
  406443:	85 c0                	test   %eax,%eax
  406445:	75 49                	jne    406490 <parser_handler+0x1e0>
  406447:	be 10 00 00 00       	mov    $0x10,%esi
  40644c:	4c 89 f7             	mov    %r14,%rdi
  40644f:	e8 0c 04 00 00       	call   406860 <ar_strndup>
  406454:	49 89 45 10          	mov    %rax,0x10(%r13)
  406458:	b8 01 00 00 00       	mov    $0x1,%eax
  40645d:	e9 f2 fe ff ff       	jmp    406354 <parser_handler+0xa4>
  406462:	48 8d 35 bd 35 00 00 	lea    0x35bd(%rip),%rsi        # 409a26 <short_opt+0x116>
  406469:	4c 89 e7             	mov    %r12,%rdi
  40646c:	e8 6f be ff ff       	call   4022e0 <strcmp@plt>
  406471:	85 c0                	test   %eax,%eax
  406473:	0f 84 a9 00 00 00    	je     406522 <parser_handler+0x272>
  406479:	48 8d 35 af 35 00 00 	lea    0x35af(%rip),%rsi        # 409a2f <short_opt+0x11f>
  406480:	4c 89 e7             	mov    %r12,%rdi
  406483:	e8 58 be ff ff       	call   4022e0 <strcmp@plt>
  406488:	85 c0                	test   %eax,%eax
  40648a:	0f 84 ad 00 00 00    	je     40653d <parser_handler+0x28d>
  406490:	48 8d 3d 97 36 00 00 	lea    0x3697(%rip),%rdi        # 409b2e <short_opt+0x21e>
  406497:	4c 89 e6             	mov    %r12,%rsi
  40649a:	48 89 ea             	mov    %rbp,%rdx
  40649d:	44 89 f9             	mov    %r15d,%ecx
  4064a0:	31 c0                	xor    %eax,%eax
  4064a2:	e8 49 16 00 00       	call   407af0 <__pr_error>
  4064a7:	e9 a3 fe ff ff       	jmp    40634f <parser_handler+0x9f>
  4064ac:	be ff 00 00 00       	mov    $0xff,%esi
  4064b1:	4c 89 f7             	mov    %r14,%rdi
  4064b4:	e8 a7 03 00 00       	call   406860 <ar_strndup>
  4064b9:	49 89 45 08          	mov    %rax,0x8(%r13)
  4064bd:	b8 01 00 00 00       	mov    $0x1,%eax
  4064c2:	e9 8d fe ff ff       	jmp    406354 <parser_handler+0xa4>
  4064c7:	c7 44 24 08 00 00 00 	movl   $0x0,0x8(%rsp)
  4064ce:	00 
  4064cf:	48 8d 7c 24 08       	lea    0x8(%rsp),%rdi
  4064d4:	ba 03 00 00 00       	mov    $0x3,%edx
  4064d9:	4c 89 f6             	mov    %r14,%rsi
  4064dc:	e8 2f bc ff ff       	call   402110 <strncpy@plt>
  4064e1:	81 4c 24 08 20 20 20 	orl    $0x20202020,0x8(%rsp)
  4064e8:	20 
  4064e9:	c6 44 24 0b 00       	movb   $0x0,0xb(%rsp)
  4064ee:	8b 44 24 08          	mov    0x8(%rsp),%eax
  4064f2:	3d 74 63 70 00       	cmp    $0x706374,%eax
  4064f7:	74 5f                	je     406558 <parser_handler+0x2a8>
  4064f9:	3d 75 64 70 00       	cmp    $0x706475,%eax
  4064fe:	75 68                	jne    406568 <parser_handler+0x2b8>
  406500:	b8 01 00 00 00       	mov    $0x1,%eax
  406505:	eb 53                	jmp    40655a <parser_handler+0x2aa>
  406507:	be 20 00 00 00       	mov    $0x20,%esi
  40650c:	4c 89 f7             	mov    %r14,%rdi
  40650f:	e8 4c 03 00 00       	call   406860 <ar_strndup>
  406514:	49 89 45 20          	mov    %rax,0x20(%r13)
  406518:	b8 01 00 00 00       	mov    $0x1,%eax
  40651d:	e9 32 fe ff ff       	jmp    406354 <parser_handler+0xa4>
  406522:	be 40 00 00 00       	mov    $0x40,%esi
  406527:	4c 89 f7             	mov    %r14,%rdi
  40652a:	e8 31 03 00 00       	call   406860 <ar_strndup>
  40652f:	49 89 45 28          	mov    %rax,0x28(%r13)
  406533:	b8 01 00 00 00       	mov    $0x1,%eax
  406538:	e9 17 fe ff ff       	jmp    406354 <parser_handler+0xa4>
  40653d:	be ff 00 00 00       	mov    $0xff,%esi
  406542:	4c 89 f7             	mov    %r14,%rdi
  406545:	e8 16 03 00 00       	call   406860 <ar_strndup>
  40654a:	49 89 45 30          	mov    %rax,0x30(%r13)
  40654e:	b8 01 00 00 00       	mov    $0x1,%eax
  406553:	e9 fc fd ff ff       	jmp    406354 <parser_handler+0xa4>
  406558:	31 c0                	xor    %eax,%eax
  40655a:	41 89 45 18          	mov    %eax,0x18(%r13)
  40655e:	b8 01 00 00 00       	mov    $0x1,%eax
  406563:	e9 ec fd ff ff       	jmp    406354 <parser_handler+0xa4>
  406568:	48 8d 3d ba 33 00 00 	lea    0x33ba(%rip),%rdi        # 409929 <short_opt+0x19>
  40656f:	4c 89 f6             	mov    %r14,%rsi
  406572:	31 c0                	xor    %eax,%eax
  406574:	e8 77 15 00 00       	call   407af0 <__pr_error>
  406579:	e9 d1 fd ff ff       	jmp    40634f <parser_handler+0x9f>
  40657e:	e8 bd bc ff ff       	call   402240 <__stack_chk_fail@plt>
  406583:	66 2e 0f 1f 84 00 00 	cs nopw 0x0(%rax,%rax,1)
  40658a:	00 00 00 
  40658d:	0f 1f 00             	nopl   (%rax)

0000000000406590 <teavpn_client_entry>:
  406590:	53                   	push   %rbx
  406591:	48 83 ec 40          	sub    $0x40,%rsp
  406595:	64 48 8b 04 25 28 00 	mov    %fs:0x28,%rax
  40659c:	00 00 
  40659e:	48 89 44 24 38       	mov    %rax,0x38(%rsp)
  4065a3:	0f 57 c0             	xorps  %xmm0,%xmm0
  4065a6:	0f 29 44 24 20       	movaps %xmm0,0x20(%rsp)
  4065ab:	0f 29 44 24 10       	movaps %xmm0,0x10(%rsp)
  4065b0:	0f 29 04 24          	movaps %xmm0,(%rsp)
  4065b4:	48 c7 44 24 30 00 00 	movq   $0x0,0x30(%rsp)
  4065bb:	00 00 
  4065bd:	48 89 e2             	mov    %rsp,%rdx
  4065c0:	e8 5b f9 ff ff       	call   405f20 <teavpn_client_argv_parse>
  4065c5:	bb 01 00 00 00       	mov    $0x1,%ebx
  4065ca:	85 c0                	test   %eax,%eax
  4065cc:	78 65                	js     406633 <teavpn_client_entry+0xa3>
  4065ce:	48 89 e7             	mov    %rsp,%rdi
  4065d1:	e8 ea fb ff ff       	call   4061c0 <teavpn_client_cfg_parse>
  4065d6:	85 c0                	test   %eax,%eax
  4065d8:	78 59                	js     406633 <teavpn_client_entry+0xa3>
  4065da:	48 83 7c 24 08 00    	cmpq   $0x0,0x8(%rsp)
  4065e0:	74 19                	je     4065fb <teavpn_client_entry+0x6b>
  4065e2:	8b 74 24 18          	mov    0x18(%rsp),%esi
  4065e6:	83 fe 01             	cmp    $0x1,%esi
  4065e9:	74 20                	je     40660b <teavpn_client_entry+0x7b>
  4065eb:	85 f6                	test   %esi,%esi
  4065ed:	75 31                	jne    406620 <teavpn_client_entry+0x90>
  4065ef:	48 89 e7             	mov    %rsp,%rdi
  4065f2:	e8 c9 01 00 00       	call   4067c0 <teavpn_client_tcp>
  4065f7:	89 c3                	mov    %eax,%ebx
  4065f9:	eb 38                	jmp    406633 <teavpn_client_entry+0xa3>
  4065fb:	48 8d 3d 9b 35 00 00 	lea    0x359b(%rip),%rdi        # 409b9d <short_opt+0x28d>
  406602:	31 c0                	xor    %eax,%eax
  406604:	e8 e7 14 00 00       	call   407af0 <__pr_error>
  406609:	eb 28                	jmp    406633 <teavpn_client_entry+0xa3>
  40660b:	48 8d 3d 49 35 00 00 	lea    0x3549(%rip),%rdi        # 409b5b <short_opt+0x24b>
  406612:	31 c0                	xor    %eax,%eax
  406614:	e8 d7 14 00 00       	call   407af0 <__pr_error>
  406619:	bb a2 ff ff ff       	mov    $0xffffffa2,%ebx
  40661e:	eb 13                	jmp    406633 <teavpn_client_entry+0xa3>
  406620:	48 8d 3d 5e 35 00 00 	lea    0x355e(%rip),%rdi        # 409b85 <short_opt+0x275>
  406627:	31 c0                	xor    %eax,%eax
  406629:	e8 c2 14 00 00       	call   407af0 <__pr_error>
  40662e:	bb ea ff ff ff       	mov    $0xffffffea,%ebx
  406633:	64 48 8b 04 25 28 00 	mov    %fs:0x28,%rax
  40663a:	00 00 
  40663c:	48 3b 44 24 38       	cmp    0x38(%rsp),%rax
  406641:	75 08                	jne    40664b <teavpn_client_entry+0xbb>
  406643:	89 d8                	mov    %ebx,%eax
  406645:	48 83 c4 40          	add    $0x40,%rsp
  406649:	5b                   	pop    %rbx
  40664a:	c3                   	ret    
  40664b:	e8 f0 bb ff ff       	call   402240 <__stack_chk_fail@plt>

0000000000406650 <teavpn_client_show_help>:
  406650:	50                   	push   %rax
  406651:	48 89 fe             	mov    %rdi,%rsi
  406654:	48 8d 3d 5c 35 00 00 	lea    0x355c(%rip),%rdi        # 409bb7 <short_opt+0x2a7>
  40665b:	31 c0                	xor    %eax,%eax
  40665d:	e8 de b9 ff ff       	call   402040 <printf@plt>
  406662:	bf 0a 00 00 00       	mov    $0xa,%edi
  406667:	e8 64 bc ff ff       	call   4022d0 <putchar@plt>
  40666c:	48 8d 3d 5c 3d 00 00 	lea    0x3d5c(%rip),%rdi        # 40a3cf <short_opt+0x9f>
  406673:	e8 f8 bc ff ff       	call   402370 <puts@plt>
  406678:	bf 0a 00 00 00       	mov    $0xa,%edi
  40667d:	e8 4e bc ff ff       	call   4022d0 <putchar@plt>
  406682:	48 8d 3d 1f 37 00 00 	lea    0x371f(%rip),%rdi        # 409da8 <short_opt+0x498>
  406689:	e8 e2 bc ff ff       	call   402370 <puts@plt>
  40668e:	48 8d 3d 26 37 00 00 	lea    0x3726(%rip),%rdi        # 409dbb <short_opt+0x4ab>
  406695:	e8 d6 bc ff ff       	call   402370 <puts@plt>
  40669a:	48 8d 3d 41 37 00 00 	lea    0x3741(%rip),%rdi        # 409de2 <short_opt+0x4d2>
  4066a1:	e8 ca bc ff ff       	call   402370 <puts@plt>
  4066a6:	48 8d 3d 26 35 00 00 	lea    0x3526(%rip),%rdi        # 409bd3 <short_opt+0x2c3>
  4066ad:	48 8d 35 cc 7b 00 00 	lea    0x7bcc(%rip),%rsi        # 40e280 <d_cli_cfg_file>
  4066b4:	31 c0                	xor    %eax,%eax
  4066b6:	e8 85 b9 ff ff       	call   402040 <printf@plt>
  4066bb:	48 8d 3d 4c 37 00 00 	lea    0x374c(%rip),%rdi        # 409e0e <short_opt+0x4fe>
  4066c2:	e8 a9 bc ff ff       	call   402370 <puts@plt>
  4066c7:	bf 0a 00 00 00       	mov    $0xa,%edi
  4066cc:	e8 ff bb ff ff       	call   4022d0 <putchar@plt>
  4066d1:	48 8d 3d 5c 37 00 00 	lea    0x375c(%rip),%rdi        # 409e34 <short_opt+0x524>
  4066d8:	e8 93 bc ff ff       	call   402370 <puts@plt>
  4066dd:	48 8d 3d 61 37 00 00 	lea    0x3761(%rip),%rdi        # 409e45 <short_opt+0x535>
  4066e4:	e8 87 bc ff ff       	call   402370 <puts@plt>
  4066e9:	48 8d 3d 18 35 00 00 	lea    0x3518(%rip),%rdi        # 409c08 <short_opt+0x2f8>
  4066f0:	48 8d 35 9b 7b 00 00 	lea    0x7b9b(%rip),%rsi        # 40e292 <d_cli_dev>
  4066f7:	31 c0                	xor    %eax,%eax
  4066f9:	e8 42 b9 ff ff       	call   402040 <printf@plt>
  4066fe:	bf 0a 00 00 00       	mov    $0xa,%edi
  406703:	e8 c8 bb ff ff       	call   4022d0 <putchar@plt>
  406708:	48 8d 3d 52 37 00 00 	lea    0x3752(%rip),%rdi        # 409e61 <short_opt+0x551>
  40670f:	e8 5c bc ff ff       	call   402370 <puts@plt>
  406714:	48 8d 3d 4f 37 00 00 	lea    0x374f(%rip),%rdi        # 409e6a <short_opt+0x55a>
  40671b:	e8 50 bc ff ff       	call   402370 <puts@plt>
  406720:	48 8d 3d c2 3c 00 00 	lea    0x3cc2(%rip),%rdi        # 40a3e9 <short_opt+0xb9>
  406727:	e8 44 bc ff ff       	call   402370 <puts@plt>
  40672c:	48 8d 05 67 7b 00 00 	lea    0x7b67(%rip),%rax        # 40e29a <d_cli_server_port>
  406733:	0f b7 30             	movzwl (%rax),%esi
  406736:	48 8d 3d 59 3c 00 00 	lea    0x3c59(%rip),%rdi        # 40a396 <short_opt+0x66>
  40673d:	31 c0                	xor    %eax,%eax
  40673f:	e8 fc b8 ff ff       	call   402040 <printf@plt>
  406744:	bf 0a 00 00 00       	mov    $0xa,%edi
  406749:	e8 82 bb ff ff       	call   4022d0 <putchar@plt>
  40674e:	48 8d 3d c0 3c 00 00 	lea    0x3cc0(%rip),%rdi        # 40a415 <short_opt+0xe5>
  406755:	e8 16 bc ff ff       	call   402370 <puts@plt>
  40675a:	48 8d 3d bb 3c 00 00 	lea    0x3cbb(%rip),%rdi        # 40a41c <short_opt+0xec>
  406761:	e8 0a bc ff ff       	call   402370 <puts@plt>
  406766:	48 8d 3d d4 3c 00 00 	lea    0x3cd4(%rip),%rdi        # 40a441 <short_opt+0x111>
  40676d:	e8 fe bb ff ff       	call   402370 <puts@plt>
  406772:	bf 0a 00 00 00       	mov    $0xa,%edi
  406777:	e8 54 bb ff ff       	call   4022d0 <putchar@plt>
  40677c:	bf 0a 00 00 00       	mov    $0xa,%edi
  406781:	e8 4a bb ff ff       	call   4022d0 <putchar@plt>
  406786:	48 8d 3d 64 37 00 00 	lea    0x3764(%rip),%rdi        # 409ef1 <short_opt+0x5e1>
  40678d:	e8 de bb ff ff       	call   402370 <puts@plt>
  406792:	48 8d 3d 96 37 00 00 	lea    0x3796(%rip),%rdi        # 409f2f <short_opt+0x61f>
  406799:	e8 d2 bb ff ff       	call   402370 <puts@plt>
  40679e:	bf 0a 00 00 00       	mov    $0xa,%edi
  4067a3:	e8 28 bb ff ff       	call   4022d0 <putchar@plt>
  4067a8:	48 8d 3d b8 37 00 00 	lea    0x37b8(%rip),%rdi        # 409f67 <short_opt+0x657>
  4067af:	58                   	pop    %rax
  4067b0:	e9 bb bb ff ff       	jmp    402370 <puts@plt>
  4067b5:	66 2e 0f 1f 84 00 00 	cs nopw 0x0(%rax,%rax,1)
  4067bc:	00 00 00 
  4067bf:	90                   	nop

00000000004067c0 <teavpn_client_tcp>:
  4067c0:	e9 bb eb ff ff       	jmp    405380 <teavpn_client_tcp_handler>
  4067c5:	66 2e 0f 1f 84 00 00 	cs nopw 0x0(%rax,%rax,1)
  4067cc:	00 00 00 
  4067cf:	90                   	nop

00000000004067d0 <ar_init>:
  4067d0:	48 89 3d 01 7b 00 00 	mov    %rdi,0x7b01(%rip)        # 40e2d8 <__ar_addr>
  4067d7:	48 89 35 02 7b 00 00 	mov    %rsi,0x7b02(%rip)        # 40e2e0 <__ar_size>
  4067de:	48 c7 05 ff 7a 00 00 	movq   $0x0,0x7aff(%rip)        # 40e2e8 <__ar_pos>
  4067e5:	00 00 00 00 
  4067e9:	c3                   	ret    
  4067ea:	66 0f 1f 44 00 00    	nopw   0x0(%rax,%rax,1)

00000000004067f0 <ar_unused_size>:
  4067f0:	48 8b 05 e9 7a 00 00 	mov    0x7ae9(%rip),%rax        # 40e2e0 <__ar_size>
  4067f7:	48 2b 05 ea 7a 00 00 	sub    0x7aea(%rip),%rax        # 40e2e8 <__ar_pos>
  4067fe:	c3                   	ret    
  4067ff:	90                   	nop

0000000000406800 <ar_alloc>:
  406800:	48 8b 0d e1 7a 00 00 	mov    0x7ae1(%rip),%rcx        # 40e2e8 <__ar_pos>
  406807:	48 8b 05 ca 7a 00 00 	mov    0x7aca(%rip),%rax        # 40e2d8 <__ar_addr>
  40680e:	48 01 c8             	add    %rcx,%rax
  406811:	48 01 cf             	add    %rcx,%rdi
  406814:	48 89 3d cd 7a 00 00 	mov    %rdi,0x7acd(%rip)        # 40e2e8 <__ar_pos>
  40681b:	c3                   	ret    
  40681c:	0f 1f 40 00          	nopl   0x0(%rax)

0000000000406820 <ar_strdup>:
  406820:	53                   	push   %rbx
  406821:	48 89 fb             	mov    %rdi,%rbx
  406824:	e8 a7 b8 ff ff       	call   4020d0 <strlen@plt>
  406829:	48 8b 0d b8 7a 00 00 	mov    0x7ab8(%rip),%rcx        # 40e2e8 <__ar_pos>
  406830:	48 8b 3d a1 7a 00 00 	mov    0x7aa1(%rip),%rdi        # 40e2d8 <__ar_addr>
  406837:	48 01 cf             	add    %rcx,%rdi
  40683a:	48 01 c1             	add    %rax,%rcx
  40683d:	48 83 c1 01          	add    $0x1,%rcx
  406841:	48 89 0d a0 7a 00 00 	mov    %rcx,0x7aa0(%rip)        # 40e2e8 <__ar_pos>
  406848:	c6 04 38 00          	movb   $0x0,(%rax,%rdi,1)
  40684c:	48 89 de             	mov    %rbx,%rsi
  40684f:	48 89 c2             	mov    %rax,%rdx
  406852:	5b                   	pop    %rbx
  406853:	e9 48 b9 ff ff       	jmp    4021a0 <memcpy@plt>
  406858:	0f 1f 84 00 00 00 00 	nopl   0x0(%rax,%rax,1)
  40685f:	00 

0000000000406860 <ar_strndup>:
  406860:	53                   	push   %rbx
  406861:	48 89 fb             	mov    %rdi,%rbx
  406864:	e8 17 bb ff ff       	call   402380 <strnlen@plt>
  406869:	48 8b 0d 78 7a 00 00 	mov    0x7a78(%rip),%rcx        # 40e2e8 <__ar_pos>
  406870:	48 8b 3d 61 7a 00 00 	mov    0x7a61(%rip),%rdi        # 40e2d8 <__ar_addr>
  406877:	48 01 cf             	add    %rcx,%rdi
  40687a:	48 01 c1             	add    %rax,%rcx
  40687d:	48 83 c1 01          	add    $0x1,%rcx
  406881:	48 89 0d 60 7a 00 00 	mov    %rcx,0x7a60(%rip)        # 40e2e8 <__ar_pos>
  406888:	c6 04 38 00          	movb   $0x0,(%rax,%rdi,1)
  40688c:	48 89 de             	mov    %rbx,%rsi
  40688f:	48 89 c2             	mov    %rax,%rdx
  406892:	5b                   	pop    %rbx
  406893:	e9 08 b9 ff ff       	jmp    4021a0 <memcpy@plt>
  406898:	0f 1f 84 00 00 00 00 	nopl   0x0(%rax,%rax,1)
  40689f:	00 

00000000004068a0 <shell_exec>:
  4068a0:	55                   	push   %rbp
  4068a1:	41 57                	push   %r15
  4068a3:	41 56                	push   %r14
  4068a5:	41 55                	push   %r13
  4068a7:	41 54                	push   %r12
  4068a9:	53                   	push   %rbx
  4068aa:	50                   	push   %rax
  4068ab:	49 89 cf             	mov    %rcx,%r15
  4068ae:	48 89 d3             	mov    %rdx,%rbx
  4068b1:	49 89 f5             	mov    %rsi,%r13
  4068b4:	49 89 fc             	mov    %rdi,%r12
  4068b7:	49 89 f6             	mov    %rsi,%r14
  4068ba:	48 85 f6             	test   %rsi,%rsi
  4068bd:	74 5c                	je     40691b <shell_exec+0x7b>
  4068bf:	48 8d 35 bd 30 00 00 	lea    0x30bd(%rip),%rsi        # 409983 <short_opt+0x73>
  4068c6:	4c 89 e7             	mov    %r12,%rdi
  4068c9:	e8 b2 b7 ff ff       	call   402080 <popen@plt>
  4068ce:	48 85 c0             	test   %rax,%rax
  4068d1:	74 7e                	je     406951 <shell_exec+0xb1>
  4068d3:	48 89 c5             	mov    %rax,%rbp
  4068d6:	4c 89 f7             	mov    %r14,%rdi
  4068d9:	31 f6                	xor    %esi,%esi
  4068db:	48 89 da             	mov    %rbx,%rdx
  4068de:	e8 3d b8 ff ff       	call   402120 <memset@plt>
  4068e3:	be 01 00 00 00       	mov    $0x1,%esi
  4068e8:	4c 89 f7             	mov    %r14,%rdi
  4068eb:	48 89 da             	mov    %rbx,%rdx
  4068ee:	48 89 e9             	mov    %rbp,%rcx
  4068f1:	e8 5a ba ff ff       	call   402350 <fread@plt>
  4068f6:	48 89 c3             	mov    %rax,%rbx
  4068f9:	48 89 ef             	mov    %rbp,%rdi
  4068fc:	e8 1f ba ff ff       	call   402320 <pclose@plt>
  406901:	4d 85 ff             	test   %r15,%r15
  406904:	74 03                	je     406909 <shell_exec+0x69>
  406906:	49 89 1f             	mov    %rbx,(%r15)
  406909:	4c 89 f0             	mov    %r14,%rax
  40690c:	48 83 c4 08          	add    $0x8,%rsp
  406910:	5b                   	pop    %rbx
  406911:	41 5c                	pop    %r12
  406913:	41 5d                	pop    %r13
  406915:	41 5e                	pop    %r14
  406917:	41 5f                	pop    %r15
  406919:	5d                   	pop    %rbp
  40691a:	c3                   	ret    
  40691b:	48 89 df             	mov    %rbx,%rdi
  40691e:	e8 7d b9 ff ff       	call   4022a0 <malloc@plt>
  406923:	49 89 c6             	mov    %rax,%r14
  406926:	48 85 c0             	test   %rax,%rax
  406929:	75 94                	jne    4068bf <shell_exec+0x1f>
  40692b:	e8 00 b7 ff ff       	call   402030 <__errno_location@plt>
  406930:	8b 18                	mov    (%rax),%ebx
  406932:	89 df                	mov    %ebx,%edi
  406934:	e8 77 b7 ff ff       	call   4020b0 <strerror@plt>
  406939:	48 8d 3d 26 3b 00 00 	lea    0x3b26(%rip),%rdi        # 40a466 <short_opt+0x136>
  406940:	45 31 f6             	xor    %r14d,%r14d
  406943:	89 de                	mov    %ebx,%esi
  406945:	48 89 c2             	mov    %rax,%rdx
  406948:	31 c0                	xor    %eax,%eax
  40694a:	e8 a1 11 00 00       	call   407af0 <__pr_error>
  40694f:	eb 29                	jmp    40697a <shell_exec+0xda>
  406951:	e8 da b6 ff ff       	call   402030 <__errno_location@plt>
  406956:	8b 18                	mov    (%rax),%ebx
  406958:	89 df                	mov    %ebx,%edi
  40695a:	e8 51 b7 ff ff       	call   4020b0 <strerror@plt>
  40695f:	48 8d 3d 12 3b 00 00 	lea    0x3b12(%rip),%rdi        # 40a478 <short_opt+0x148>
  406966:	4c 89 e6             	mov    %r12,%rsi
  406969:	89 da                	mov    %ebx,%edx
  40696b:	48 89 c1             	mov    %rax,%rcx
  40696e:	31 c0                	xor    %eax,%eax
  406970:	e8 7b 11 00 00       	call   407af0 <__pr_error>
  406975:	4d 85 ed             	test   %r13,%r13
  406978:	75 08                	jne    406982 <shell_exec+0xe2>
  40697a:	4c 89 f7             	mov    %r14,%rdi
  40697d:	e8 fe b8 ff ff       	call   402280 <free@plt>
  406982:	45 31 f6             	xor    %r14d,%r14d
  406985:	eb 82                	jmp    406909 <shell_exec+0x69>
  406987:	66 0f 1f 84 00 00 00 	nopw   0x0(%rax,%rax,1)
  40698e:	00 00 

0000000000406990 <escapeshellarg>:
  406990:	41 57                	push   %r15
  406992:	41 56                	push   %r14
  406994:	41 54                	push   %r12
  406996:	53                   	push   %rbx
  406997:	50                   	push   %rax
  406998:	49 89 ce             	mov    %rcx,%r14
  40699b:	49 89 d4             	mov    %rdx,%r12
  40699e:	49 89 f7             	mov    %rsi,%r15
  4069a1:	48 89 fb             	mov    %rdi,%rbx
  4069a4:	48 85 d2             	test   %rdx,%rdx
  4069a7:	74 14                	je     4069bd <escapeshellarg+0x2d>
  4069a9:	48 85 db             	test   %rbx,%rbx
  4069ac:	74 1f                	je     4069cd <escapeshellarg+0x3d>
  4069ae:	c6 03 27             	movb   $0x27,(%rbx)
  4069b1:	b8 01 00 00 00       	mov    $0x1,%eax
  4069b6:	4d 85 e4             	test   %r12,%r12
  4069b9:	75 2f                	jne    4069ea <escapeshellarg+0x5a>
  4069bb:	eb 63                	jmp    406a20 <escapeshellarg+0x90>
  4069bd:	4c 89 ff             	mov    %r15,%rdi
  4069c0:	e8 0b b7 ff ff       	call   4020d0 <strlen@plt>
  4069c5:	49 89 c4             	mov    %rax,%r12
  4069c8:	48 85 db             	test   %rbx,%rbx
  4069cb:	75 e1                	jne    4069ae <escapeshellarg+0x1e>
  4069cd:	4a 8d 3c a5 01 00 00 	lea    0x1(,%r12,4),%rdi
  4069d4:	00 
  4069d5:	e8 c6 b8 ff ff       	call   4022a0 <malloc@plt>
  4069da:	48 89 c3             	mov    %rax,%rbx
  4069dd:	c6 03 27             	movb   $0x27,(%rbx)
  4069e0:	b8 01 00 00 00       	mov    $0x1,%eax
  4069e5:	4d 85 e4             	test   %r12,%r12
  4069e8:	74 36                	je     406a20 <escapeshellarg+0x90>
  4069ea:	31 c9                	xor    %ecx,%ecx
  4069ec:	eb 12                	jmp    406a00 <escapeshellarg+0x70>
  4069ee:	66 90                	xchg   %ax,%ax
  4069f0:	88 14 03             	mov    %dl,(%rbx,%rax,1)
  4069f3:	48 83 c0 01          	add    $0x1,%rax
  4069f7:	48 83 c1 01          	add    $0x1,%rcx
  4069fb:	49 39 cc             	cmp    %rcx,%r12
  4069fe:	74 20                	je     406a20 <escapeshellarg+0x90>
  406a00:	41 0f b6 14 0f       	movzbl (%r15,%rcx,1),%edx
  406a05:	80 fa 27             	cmp    $0x27,%dl
  406a08:	75 e6                	jne    4069f0 <escapeshellarg+0x60>
  406a0a:	66 c7 04 03 27 5c    	movw   $0x5c27,(%rbx,%rax,1)
  406a10:	c6 44 03 02 27       	movb   $0x27,0x2(%rbx,%rax,1)
  406a15:	48 83 c0 03          	add    $0x3,%rax
  406a19:	41 0f b6 14 0f       	movzbl (%r15,%rcx,1),%edx
  406a1e:	eb d0                	jmp    4069f0 <escapeshellarg+0x60>
  406a20:	66 c7 04 03 27 00    	movw   $0x27,(%rbx,%rax,1)
  406a26:	4d 85 f6             	test   %r14,%r14
  406a29:	74 07                	je     406a32 <escapeshellarg+0xa2>
  406a2b:	48 83 c0 01          	add    $0x1,%rax
  406a2f:	49 89 06             	mov    %rax,(%r14)
  406a32:	48 89 d8             	mov    %rbx,%rax
  406a35:	48 83 c4 08          	add    $0x8,%rsp
  406a39:	5b                   	pop    %rbx
  406a3a:	41 5c                	pop    %r12
  406a3c:	41 5e                	pop    %r14
  406a3e:	41 5f                	pop    %r15
  406a40:	c3                   	ret    
  406a41:	66 2e 0f 1f 84 00 00 	cs nopw 0x0(%rax,%rax,1)
  406a48:	00 00 00 
  406a4b:	0f 1f 44 00 00       	nopl   0x0(%rax,%rax,1)

0000000000406a50 <trim_len>:
  406a50:	48 89 f8             	mov    %rdi,%rax
  406a53:	48 85 f6             	test   %rsi,%rsi
  406a56:	0f 84 46 00 00 00    	je     406aa2 <trim_len+0x52>
  406a5c:	4c 8d 14 30          	lea    (%rax,%rsi,1),%r10
  406a60:	49 89 f3             	mov    %rsi,%r11
  406a63:	49 f7 db             	neg    %r11
  406a66:	49 b9 00 2c 00 00 01 	movabs $0x100002c00,%r9
  406a6d:	00 00 00 
  406a70:	45 31 c0             	xor    %r8d,%r8d
  406a73:	48 89 c1             	mov    %rax,%rcx
  406a76:	66 2e 0f 1f 84 00 00 	cs nopw 0x0(%rax,%rax,1)
  406a7d:	00 00 00 
  406a80:	0f b6 39             	movzbl (%rcx),%edi
  406a83:	48 83 ff 20          	cmp    $0x20,%rdi
  406a87:	77 23                	ja     406aac <trim_len+0x5c>
  406a89:	49 0f a3 f9          	bt     %rdi,%r9
  406a8d:	73 1d                	jae    406aac <trim_len+0x5c>
  406a8f:	48 83 c1 01          	add    $0x1,%rcx
  406a93:	49 ff c3             	inc    %r11
  406a96:	75 e8                	jne    406a80 <trim_len+0x30>
  406a98:	4c 89 d0             	mov    %r10,%rax
  406a9b:	48 85 d2             	test   %rdx,%rdx
  406a9e:	75 65                	jne    406b05 <trim_len+0xb5>
  406aa0:	eb 66                	jmp    406b08 <trim_len+0xb8>
  406aa2:	45 31 c0             	xor    %r8d,%r8d
  406aa5:	48 85 d2             	test   %rdx,%rdx
  406aa8:	75 5b                	jne    406b05 <trim_len+0xb5>
  406aaa:	eb 5c                	jmp    406b08 <trim_len+0xb8>
  406aac:	48 01 f0             	add    %rsi,%rax
  406aaf:	4d 8d 43 01          	lea    0x1(%r11),%r8
  406ab3:	41 b2 01             	mov    $0x1,%r10b
  406ab6:	31 f6                	xor    %esi,%esi
  406ab8:	0f 1f 84 00 00 00 00 	nopl   0x0(%rax,%rax,1)
  406abf:	00 
  406ac0:	0f b6 7c 30 ff       	movzbl -0x1(%rax,%rsi,1),%edi
  406ac5:	48 83 ff 20          	cmp    $0x20,%rdi
  406ac9:	77 22                	ja     406aed <trim_len+0x9d>
  406acb:	49 0f a3 f9          	bt     %rdi,%r9
  406acf:	73 1c                	jae    406aed <trim_len+0x9d>
  406ad1:	48 8d 7e ff          	lea    -0x1(%rsi),%rdi
  406ad5:	45 31 d2             	xor    %r10d,%r10d
  406ad8:	49 39 f0             	cmp    %rsi,%r8
  406adb:	48 89 fe             	mov    %rdi,%rsi
  406ade:	75 e0                	jne    406ac0 <trim_len+0x70>
  406ae0:	48 89 c8             	mov    %rcx,%rax
  406ae3:	45 31 c0             	xor    %r8d,%r8d
  406ae6:	48 85 d2             	test   %rdx,%rdx
  406ae9:	75 1a                	jne    406b05 <trim_len+0xb5>
  406aeb:	eb 1b                	jmp    406b08 <trim_len+0xb8>
  406aed:	49 89 f0             	mov    %rsi,%r8
  406af0:	4d 29 d8             	sub    %r11,%r8
  406af3:	41 f6 c2 01          	test   $0x1,%r10b
  406af7:	75 04                	jne    406afd <trim_len+0xad>
  406af9:	c6 04 06 00          	movb   $0x0,(%rsi,%rax,1)
  406afd:	48 89 c8             	mov    %rcx,%rax
  406b00:	48 85 d2             	test   %rdx,%rdx
  406b03:	74 03                	je     406b08 <trim_len+0xb8>
  406b05:	4c 89 02             	mov    %r8,(%rdx)
  406b08:	c3                   	ret    
  406b09:	0f 1f 80 00 00 00 00 	nopl   0x0(%rax)

0000000000406b10 <trim_len_cpy>:
  406b10:	41 57                	push   %r15
  406b12:	41 56                	push   %r14
  406b14:	53                   	push   %rbx
  406b15:	49 89 d6             	mov    %rdx,%r14
  406b18:	49 89 ff             	mov    %rdi,%r15
  406b1b:	49 89 f1             	mov    %rsi,%r9
  406b1e:	49 83 e9 01          	sub    $0x1,%r9
  406b22:	73 07                	jae    406b2b <trim_len_cpy+0x1b>
  406b24:	31 db                	xor    %ebx,%ebx
  406b26:	e9 8b 00 00 00       	jmp    406bb6 <trim_len_cpy+0xa6>
  406b2b:	48 89 f3             	mov    %rsi,%rbx
  406b2e:	4d 01 f9             	add    %r15,%r9
  406b31:	49 b8 00 2c 00 00 01 	movabs $0x100002c00,%r8
  406b38:	00 00 00 
  406b3b:	31 d2                	xor    %edx,%edx
  406b3d:	31 c9                	xor    %ecx,%ecx
  406b3f:	90                   	nop
  406b40:	41 0f b6 34 17       	movzbl (%r15,%rdx,1),%esi
  406b45:	48 83 fe 20          	cmp    $0x20,%rsi
  406b49:	77 15                	ja     406b60 <trim_len_cpy+0x50>
  406b4b:	49 0f a3 f0          	bt     %rsi,%r8
  406b4f:	73 0f                	jae    406b60 <trim_len_cpy+0x50>
  406b51:	48 83 c2 01          	add    $0x1,%rdx
  406b55:	b1 01                	mov    $0x1,%cl
  406b57:	48 39 d3             	cmp    %rdx,%rbx
  406b5a:	75 e4                	jne    406b40 <trim_len_cpy+0x30>
  406b5c:	31 db                	xor    %ebx,%ebx
  406b5e:	eb 51                	jmp    406bb1 <trim_len_cpy+0xa1>
  406b60:	49 8d 34 17          	lea    (%r15,%rdx,1),%rsi
  406b64:	31 ff                	xor    %edi,%edi
  406b66:	66 2e 0f 1f 84 00 00 	cs nopw 0x0(%rax,%rax,1)
  406b6d:	00 00 00 
  406b70:	41 0f b6 04 39       	movzbl (%r9,%rdi,1),%eax
  406b75:	48 83 f8 20          	cmp    $0x20,%rax
  406b79:	77 20                	ja     406b9b <trim_len_cpy+0x8b>
  406b7b:	49 0f a3 c0          	bt     %rax,%r8
  406b7f:	73 1a                	jae    406b9b <trim_len_cpy+0x8b>
  406b81:	48 8d 04 3b          	lea    (%rbx,%rdi,1),%rax
  406b85:	48 83 c0 ff          	add    $0xffffffffffffffff,%rax
  406b89:	48 83 c7 ff          	add    $0xffffffffffffffff,%rdi
  406b8d:	48 39 d0             	cmp    %rdx,%rax
  406b90:	75 de                	jne    406b70 <trim_len_cpy+0x60>
  406b92:	31 db                	xor    %ebx,%ebx
  406b94:	f6 c1 01             	test   $0x1,%cl
  406b97:	75 18                	jne    406bb1 <trim_len_cpy+0xa1>
  406b99:	eb 1b                	jmp    406bb6 <trim_len_cpy+0xa6>
  406b9b:	48 29 d3             	sub    %rdx,%rbx
  406b9e:	48 01 fb             	add    %rdi,%rbx
  406ba1:	f6 c1 01             	test   $0x1,%cl
  406ba4:	74 10                	je     406bb6 <trim_len_cpy+0xa6>
  406ba6:	4c 89 ff             	mov    %r15,%rdi
  406ba9:	48 89 da             	mov    %rbx,%rdx
  406bac:	e8 ef b7 ff ff       	call   4023a0 <memmove@plt>
  406bb1:	41 c6 04 1f 00       	movb   $0x0,(%r15,%rbx,1)
  406bb6:	4d 85 f6             	test   %r14,%r14
  406bb9:	74 03                	je     406bbe <trim_len_cpy+0xae>
  406bbb:	49 89 1e             	mov    %rbx,(%r14)
  406bbe:	4c 89 f8             	mov    %r15,%rax
  406bc1:	5b                   	pop    %rbx
  406bc2:	41 5e                	pop    %r14
  406bc4:	41 5f                	pop    %r15
  406bc6:	c3                   	ret    
  406bc7:	66 0f 1f 84 00 00 00 	nopw   0x0(%rax,%rax,1)
  406bce:	00 00 

0000000000406bd0 <trim>:
  406bd0:	41 56                	push   %r14
  406bd2:	53                   	push   %rbx
  406bd3:	50                   	push   %rax
  406bd4:	49 89 fe             	mov    %rdi,%r14
  406bd7:	e8 f4 b4 ff ff       	call   4020d0 <strlen@plt>
  406bdc:	48 85 c0             	test   %rax,%rax
  406bdf:	74 47                	je     406c28 <trim+0x58>
  406be1:	48 89 c1             	mov    %rax,%rcx
  406be4:	4d 8d 04 06          	lea    (%r14,%rax,1),%r8
  406be8:	ba 01 00 00 00       	mov    $0x1,%edx
  406bed:	48 29 c2             	sub    %rax,%rdx
  406bf0:	48 be 00 2c 00 00 01 	movabs $0x100002c00,%rsi
  406bf7:	00 00 00 
  406bfa:	4c 89 f0             	mov    %r14,%rax
  406bfd:	0f 1f 00             	nopl   (%rax)
  406c00:	0f b6 38             	movzbl (%rax),%edi
  406c03:	48 83 ff 20          	cmp    $0x20,%rdi
  406c07:	77 2a                	ja     406c33 <trim+0x63>
  406c09:	48 0f a3 fe          	bt     %rdi,%rsi
  406c0d:	73 24                	jae    406c33 <trim+0x63>
  406c0f:	48 83 c0 01          	add    $0x1,%rax
  406c13:	48 83 c2 01          	add    $0x1,%rdx
  406c17:	48 83 fa 01          	cmp    $0x1,%rdx
  406c1b:	75 e3                	jne    406c00 <trim+0x30>
  406c1d:	4c 89 c0             	mov    %r8,%rax
  406c20:	48 83 c4 08          	add    $0x8,%rsp
  406c24:	5b                   	pop    %rbx
  406c25:	41 5e                	pop    %r14
  406c27:	c3                   	ret    
  406c28:	4c 89 f0             	mov    %r14,%rax
  406c2b:	48 83 c4 08          	add    $0x8,%rsp
  406c2f:	5b                   	pop    %rbx
  406c30:	41 5e                	pop    %r14
  406c32:	c3                   	ret    
  406c33:	49 01 ce             	add    %rcx,%r14
  406c36:	40 b7 01             	mov    $0x1,%dil
  406c39:	31 c9                	xor    %ecx,%ecx
  406c3b:	0f 1f 44 00 00       	nopl   0x0(%rax,%rax,1)
  406c40:	41 0f b6 5c 0e ff    	movzbl -0x1(%r14,%rcx,1),%ebx
  406c46:	48 83 fb 20          	cmp    $0x20,%rbx
  406c4a:	77 16                	ja     406c62 <trim+0x92>
  406c4c:	48 0f a3 de          	bt     %rbx,%rsi
  406c50:	73 10                	jae    406c62 <trim+0x92>
  406c52:	48 8d 59 ff          	lea    -0x1(%rcx),%rbx
  406c56:	31 ff                	xor    %edi,%edi
  406c58:	48 39 ca             	cmp    %rcx,%rdx
  406c5b:	48 89 d9             	mov    %rbx,%rcx
  406c5e:	75 e0                	jne    406c40 <trim+0x70>
  406c60:	eb be                	jmp    406c20 <trim+0x50>
  406c62:	40 f6 c7 01          	test   $0x1,%dil
  406c66:	75 b8                	jne    406c20 <trim+0x50>
  406c68:	42 c6 04 31 00       	movb   $0x0,(%rcx,%r14,1)
  406c6d:	48 83 c4 08          	add    $0x8,%rsp
  406c71:	5b                   	pop    %rbx
  406c72:	41 5e                	pop    %r14
  406c74:	c3                   	ret    
  406c75:	66 2e 0f 1f 84 00 00 	cs nopw 0x0(%rax,%rax,1)
  406c7c:	00 00 00 
  406c7f:	90                   	nop

0000000000406c80 <trim_cpy>:
  406c80:	41 56                	push   %r14
  406c82:	53                   	push   %rbx
  406c83:	50                   	push   %rax
  406c84:	49 89 fe             	mov    %rdi,%r14
  406c87:	e8 44 b4 ff ff       	call   4020d0 <strlen@plt>
  406c8c:	49 89 c1             	mov    %rax,%r9
  406c8f:	49 83 e9 01          	sub    $0x1,%r9
  406c93:	0f 82 92 00 00 00    	jb     406d2b <trim_cpy+0xab>
  406c99:	48 89 c3             	mov    %rax,%rbx
  406c9c:	4d 01 f1             	add    %r14,%r9
  406c9f:	31 f6                	xor    %esi,%esi
  406ca1:	49 b8 00 2c 00 00 01 	movabs $0x100002c00,%r8
  406ca8:	00 00 00 
  406cab:	31 c9                	xor    %ecx,%ecx
  406cad:	31 ff                	xor    %edi,%edi
  406caf:	90                   	nop
  406cb0:	41 0f b6 14 0e       	movzbl (%r14,%rcx,1),%edx
  406cb5:	48 83 fa 20          	cmp    $0x20,%rdx
  406cb9:	77 14                	ja     406ccf <trim_cpy+0x4f>
  406cbb:	49 0f a3 d0          	bt     %rdx,%r8
  406cbf:	73 0e                	jae    406ccf <trim_cpy+0x4f>
  406cc1:	48 83 c1 01          	add    $0x1,%rcx
  406cc5:	40 b7 01             	mov    $0x1,%dil
  406cc8:	48 39 cb             	cmp    %rcx,%rbx
  406ccb:	75 e3                	jne    406cb0 <trim_cpy+0x30>
  406ccd:	eb 57                	jmp    406d26 <trim_cpy+0xa6>
  406ccf:	49 8d 34 0e          	lea    (%r14,%rcx,1),%rsi
  406cd3:	31 d2                	xor    %edx,%edx
  406cd5:	66 2e 0f 1f 84 00 00 	cs nopw 0x0(%rax,%rax,1)
  406cdc:	00 00 00 
  406cdf:	90                   	nop
  406ce0:	41 0f b6 04 11       	movzbl (%r9,%rdx,1),%eax
  406ce5:	48 83 f8 20          	cmp    $0x20,%rax
  406ce9:	77 21                	ja     406d0c <trim_cpy+0x8c>
  406ceb:	49 0f a3 c0          	bt     %rax,%r8
  406cef:	73 1b                	jae    406d0c <trim_cpy+0x8c>
  406cf1:	48 8d 04 13          	lea    (%rbx,%rdx,1),%rax
  406cf5:	48 83 c0 ff          	add    $0xffffffffffffffff,%rax
  406cf9:	48 83 c2 ff          	add    $0xffffffffffffffff,%rdx
  406cfd:	48 39 c8             	cmp    %rcx,%rax
  406d00:	75 de                	jne    406ce0 <trim_cpy+0x60>
  406d02:	40 f6 c7 01          	test   $0x1,%dil
  406d06:	74 23                	je     406d2b <trim_cpy+0xab>
  406d08:	31 f6                	xor    %esi,%esi
  406d0a:	eb 1a                	jmp    406d26 <trim_cpy+0xa6>
  406d0c:	40 f6 c7 01          	test   $0x1,%dil
  406d10:	74 19                	je     406d2b <trim_cpy+0xab>
  406d12:	48 29 cb             	sub    %rcx,%rbx
  406d15:	48 01 d3             	add    %rdx,%rbx
  406d18:	4c 89 f7             	mov    %r14,%rdi
  406d1b:	48 89 da             	mov    %rbx,%rdx
  406d1e:	e8 7d b6 ff ff       	call   4023a0 <memmove@plt>
  406d23:	48 89 de             	mov    %rbx,%rsi
  406d26:	41 c6 04 36 00       	movb   $0x0,(%r14,%rsi,1)
  406d2b:	4c 89 f0             	mov    %r14,%rax
  406d2e:	48 83 c4 08          	add    $0x8,%rsp
  406d32:	5b                   	pop    %rbx
  406d33:	41 5e                	pop    %r14
  406d35:	c3                   	ret    
  406d36:	66 2e 0f 1f 84 00 00 	cs nopw 0x0(%rax,%rax,1)
  406d3d:	00 00 00 

0000000000406d40 <trunc_str>:
  406d40:	41 56                	push   %r14
  406d42:	53                   	push   %rbx
  406d43:	50                   	push   %rax
  406d44:	48 89 f3             	mov    %rsi,%rbx
  406d47:	49 89 fe             	mov    %rdi,%r14
  406d4a:	e8 31 b6 ff ff       	call   402380 <strnlen@plt>
  406d4f:	48 39 d8             	cmp    %rbx,%rax
  406d52:	72 05                	jb     406d59 <trunc_str+0x19>
  406d54:	41 c6 04 1e 00       	movb   $0x0,(%r14,%rbx,1)
  406d59:	4c 89 f0             	mov    %r14,%rax
  406d5c:	48 83 c4 08          	add    $0x8,%rsp
  406d60:	5b                   	pop    %rbx
  406d61:	41 5e                	pop    %r14
  406d63:	c3                   	ret    
  406d64:	66 2e 0f 1f 84 00 00 	cs nopw 0x0(%rax,%rax,1)
  406d6b:	00 00 00 
  406d6e:	66 90                	xchg   %ax,%ax

0000000000406d70 <memzero_explicit>:
  406d70:	48 89 f2             	mov    %rsi,%rdx
  406d73:	31 f6                	xor    %esi,%esi
  406d75:	e9 a6 b3 ff ff       	jmp    402120 <memset@plt>
  406d7a:	66 0f 1f 44 00 00    	nopw   0x0(%rax,%rax,1)

0000000000406d80 <tun_alloc>:
  406d80:	55                   	push   %rbp
  406d81:	41 57                	push   %r15
  406d83:	41 56                	push   %r14
  406d85:	41 54                	push   %r12
  406d87:	53                   	push   %rbx
  406d88:	48 83 ec 30          	sub    $0x30,%rsp
  406d8c:	64 48 8b 04 25 28 00 	mov    %fs:0x28,%rax
  406d93:	00 00 
  406d95:	48 89 44 24 28       	mov    %rax,0x28(%rsp)
  406d9a:	48 85 ff             	test   %rdi,%rdi
  406d9d:	0f 84 a1 00 00 00    	je     406e44 <tun_alloc+0xc4>
  406da3:	48 89 fd             	mov    %rdi,%rbp
  406da6:	80 3f 00             	cmpb   $0x0,(%rdi)
  406da9:	0f 84 95 00 00 00    	je     406e44 <tun_alloc+0xc4>
  406daf:	41 89 f6             	mov    %esi,%r14d
  406db2:	48 8b 3d e7 74 00 00 	mov    0x74e7(%rip),%rdi        # 40e2a0 <tun_alloc.dtf>
  406db9:	be 02 08 00 00       	mov    $0x802,%esi
  406dbe:	31 c0                	xor    %eax,%eax
  406dc0:	e8 9b b3 ff ff       	call   402160 <open@plt>
  406dc5:	85 c0                	test   %eax,%eax
  406dc7:	0f 88 8d 00 00 00    	js     406e5a <tun_alloc+0xda>
  406dcd:	41 89 c4             	mov    %eax,%r12d
  406dd0:	0f 57 c0             	xorps  %xmm0,%xmm0
  406dd3:	0f 29 44 24 10       	movaps %xmm0,0x10(%rsp)
  406dd8:	0f 29 04 24          	movaps %xmm0,(%rsp)
  406ddc:	48 c7 44 24 20 00 00 	movq   $0x0,0x20(%rsp)
  406de3:	00 00 
  406de5:	48 89 e3             	mov    %rsp,%rbx
  406de8:	ba 0f 00 00 00       	mov    $0xf,%edx
  406ded:	48 89 df             	mov    %rbx,%rdi
  406df0:	48 89 ee             	mov    %rbp,%rsi
  406df3:	e8 18 b3 ff ff       	call   402110 <strncpy@plt>
  406df8:	48 89 df             	mov    %rbx,%rdi
  406dfb:	e8 80 fe ff ff       	call   406c80 <trim_cpy>
  406e00:	66 44 89 74 24 10    	mov    %r14w,0x10(%rsp)
  406e06:	be ca 54 04 40       	mov    $0x400454ca,%esi
  406e0b:	44 89 e7             	mov    %r12d,%edi
  406e0e:	48 89 da             	mov    %rbx,%rdx
  406e11:	31 c0                	xor    %eax,%eax
  406e13:	e8 e8 b4 ff ff       	call   402300 <ioctl@plt>
  406e18:	85 c0                	test   %eax,%eax
  406e1a:	0f 88 ae 00 00 00    	js     406ece <tun_alloc+0x14e>
  406e20:	64 48 8b 04 25 28 00 	mov    %fs:0x28,%rax
  406e27:	00 00 
  406e29:	48 3b 44 24 28       	cmp    0x28(%rsp),%rax
  406e2e:	0f 85 d8 00 00 00    	jne    406f0c <tun_alloc+0x18c>
  406e34:	44 89 e0             	mov    %r12d,%eax
  406e37:	48 83 c4 30          	add    $0x30,%rsp
  406e3b:	5b                   	pop    %rbx
  406e3c:	41 5c                	pop    %r12
  406e3e:	41 5e                	pop    %r14
  406e40:	41 5f                	pop    %r15
  406e42:	5d                   	pop    %rbp
  406e43:	c3                   	ret    
  406e44:	48 8d 3d 54 36 00 00 	lea    0x3654(%rip),%rdi        # 40a49f <short_opt+0x16f>
  406e4b:	31 c0                	xor    %eax,%eax
  406e4d:	e8 9e 0c 00 00       	call   407af0 <__pr_error>
  406e52:	41 bc ea ff ff ff    	mov    $0xffffffea,%r12d
  406e58:	eb c6                	jmp    406e20 <tun_alloc+0xa0>
  406e5a:	e8 d1 b1 ff ff       	call   402030 <__errno_location@plt>
  406e5f:	44 8b 20             	mov    (%rax),%r12d
  406e62:	4c 8b 3d 37 74 00 00 	mov    0x7437(%rip),%r15        # 40e2a0 <tun_alloc.dtf>
  406e69:	44 89 e7             	mov    %r12d,%edi
  406e6c:	e8 3f b2 ff ff       	call   4020b0 <strerror@plt>
  406e71:	48 8d 3d 48 36 00 00 	lea    0x3648(%rip),%rdi        # 40a4c0 <short_opt+0x190>
  406e78:	4c 89 fe             	mov    %r15,%rsi
  406e7b:	44 89 e2             	mov    %r12d,%edx
  406e7e:	48 89 c1             	mov    %rax,%rcx
  406e81:	31 c0                	xor    %eax,%eax
  406e83:	e8 68 0c 00 00       	call   407af0 <__pr_error>
  406e88:	41 83 fc 02          	cmp    $0x2,%r12d
  406e8c:	75 76                	jne    406f04 <tun_alloc+0x184>
  406e8e:	f6 05 5b 74 00 00 01 	testb  $0x1,0x745b(%rip)        # 40e2f0 <tun_alloc.retried>
  406e95:	75 6d                	jne    406f04 <tun_alloc+0x184>
  406e97:	48 8d 05 4e 36 00 00 	lea    0x364e(%rip),%rax        # 40a4ec <short_opt+0x1bc>
  406e9e:	48 89 05 fb 73 00 00 	mov    %rax,0x73fb(%rip)        # 40e2a0 <tun_alloc.dtf>
  406ea5:	c6 05 44 74 00 00 01 	movb   $0x1,0x7444(%rip)        # 40e2f0 <tun_alloc.retried>
  406eac:	48 8d 3d 29 36 00 00 	lea    0x3629(%rip),%rdi        # 40a4dc <short_opt+0x1ac>
  406eb3:	31 c0                	xor    %eax,%eax
  406eb5:	e8 e6 10 00 00       	call   407fa0 <__pr_notice>
  406eba:	41 0f bf f6          	movswl %r14w,%esi
  406ebe:	48 89 ef             	mov    %rbp,%rdi
  406ec1:	e8 ba fe ff ff       	call   406d80 <tun_alloc>
  406ec6:	41 89 c4             	mov    %eax,%r12d
  406ec9:	e9 52 ff ff ff       	jmp    406e20 <tun_alloc+0xa0>
  406ece:	44 89 e7             	mov    %r12d,%edi
  406ed1:	e8 4a b5 ff ff       	call   402420 <close@plt>
  406ed6:	e8 55 b1 ff ff       	call   402030 <__errno_location@plt>
  406edb:	8b 18                	mov    (%rax),%ebx
  406edd:	89 df                	mov    %ebx,%edi
  406edf:	e8 cc b1 ff ff       	call   4020b0 <strerror@plt>
  406ee4:	48 8d 3d 0a 36 00 00 	lea    0x360a(%rip),%rdi        # 40a4f5 <short_opt+0x1c5>
  406eeb:	44 89 e6             	mov    %r12d,%esi
  406eee:	89 da                	mov    %ebx,%edx
  406ef0:	48 89 c1             	mov    %rax,%rcx
  406ef3:	31 c0                	xor    %eax,%eax
  406ef5:	e8 f6 0b 00 00       	call   407af0 <__pr_error>
  406efa:	f7 db                	neg    %ebx
  406efc:	41 89 dc             	mov    %ebx,%r12d
  406eff:	e9 1c ff ff ff       	jmp    406e20 <tun_alloc+0xa0>
  406f04:	41 f7 dc             	neg    %r12d
  406f07:	e9 14 ff ff ff       	jmp    406e20 <tun_alloc+0xa0>
  406f0c:	e8 2f b3 ff ff       	call   402240 <__stack_chk_fail@plt>
  406f11:	66 2e 0f 1f 84 00 00 	cs nopw 0x0(%rax,%rax,1)
  406f18:	00 00 00 
  406f1b:	0f 1f 44 00 00       	nopl   0x0(%rax,%rax,1)

0000000000406f20 <fd_set_nonblock>:
  406f20:	55                   	push   %rbp
  406f21:	41 56                	push   %r14
  406f23:	53                   	push   %rbx
  406f24:	89 fb                	mov    %edi,%ebx
  406f26:	be 03 00 00 00       	mov    $0x3,%esi
  406f2b:	31 d2                	xor    %edx,%edx
  406f2d:	31 c0                	xor    %eax,%eax
  406f2f:	e8 fc b1 ff ff       	call   402130 <fcntl@plt>
  406f34:	85 c0                	test   %eax,%eax
  406f36:	78 22                	js     406f5a <fd_set_nonblock+0x3a>
  406f38:	0d 00 08 00 00       	or     $0x800,%eax
  406f3d:	89 df                	mov    %ebx,%edi
  406f3f:	be 04 00 00 00       	mov    $0x4,%esi
  406f44:	89 c2                	mov    %eax,%edx
  406f46:	31 c0                	xor    %eax,%eax
  406f48:	e8 e3 b1 ff ff       	call   402130 <fcntl@plt>
  406f4d:	89 c5                	mov    %eax,%ebp
  406f4f:	85 c0                	test   %eax,%eax
  406f51:	78 2e                	js     406f81 <fd_set_nonblock+0x61>
  406f53:	89 e8                	mov    %ebp,%eax
  406f55:	5b                   	pop    %rbx
  406f56:	41 5e                	pop    %r14
  406f58:	5d                   	pop    %rbp
  406f59:	c3                   	ret    
  406f5a:	e8 d1 b0 ff ff       	call   402030 <__errno_location@plt>
  406f5f:	8b 28                	mov    (%rax),%ebp
  406f61:	89 ef                	mov    %ebp,%edi
  406f63:	e8 48 b1 ff ff       	call   4020b0 <strerror@plt>
  406f68:	48 8d 3d aa 35 00 00 	lea    0x35aa(%rip),%rdi        # 40a519 <short_opt+0x1e9>
  406f6f:	89 de                	mov    %ebx,%esi
  406f71:	89 ea                	mov    %ebp,%edx
  406f73:	48 89 c1             	mov    %rax,%rcx
  406f76:	31 c0                	xor    %eax,%eax
  406f78:	e8 73 0b 00 00       	call   407af0 <__pr_error>
  406f7d:	f7 dd                	neg    %ebp
  406f7f:	eb d2                	jmp    406f53 <fd_set_nonblock+0x33>
  406f81:	e8 aa b0 ff ff       	call   402030 <__errno_location@plt>
  406f86:	44 8b 30             	mov    (%rax),%r14d
  406f89:	44 89 f7             	mov    %r14d,%edi
  406f8c:	e8 1f b1 ff ff       	call   4020b0 <strerror@plt>
  406f91:	48 8d 3d a0 35 00 00 	lea    0x35a0(%rip),%rdi        # 40a538 <short_opt+0x208>
  406f98:	89 de                	mov    %ebx,%esi
  406f9a:	89 ea                	mov    %ebp,%edx
  406f9c:	44 89 f1             	mov    %r14d,%ecx
  406f9f:	49 89 c0             	mov    %rax,%r8
  406fa2:	31 c0                	xor    %eax,%eax
  406fa4:	e8 47 0b 00 00       	call   407af0 <__pr_error>
  406fa9:	41 f7 de             	neg    %r14d
  406fac:	44 89 f5             	mov    %r14d,%ebp
  406faf:	eb a2                	jmp    406f53 <fd_set_nonblock+0x33>
  406fb1:	66 2e 0f 1f 84 00 00 	cs nopw 0x0(%rax,%rax,1)
  406fb8:	00 00 00 
  406fbb:	0f 1f 44 00 00       	nopl   0x0(%rax,%rax,1)

0000000000406fc0 <teavpn_iface_up>:
  406fc0:	55                   	push   %rbp
  406fc1:	41 57                	push   %r15
  406fc3:	41 56                	push   %r14
  406fc5:	41 55                	push   %r13
  406fc7:	41 54                	push   %r12
  406fc9:	53                   	push   %rbx
  406fca:	48 81 ec f8 04 00 00 	sub    $0x4f8,%rsp
  406fd1:	49 89 fe             	mov    %rdi,%r14
  406fd4:	64 48 8b 04 25 28 00 	mov    %fs:0x28,%rax
  406fdb:	00 00 
  406fdd:	48 89 84 24 f0 04 00 	mov    %rax,0x4f0(%rsp)
  406fe4:	00 
  406fe5:	48 8d 77 20          	lea    0x20(%rdi),%rsi
  406fe9:	48 8d bc 24 d0 04 00 	lea    0x4d0(%rsp),%rdi
  406ff0:	00 
  406ff1:	ba 18 00 00 00       	mov    $0x18,%edx
  406ff6:	e8 15 b1 ff ff       	call   402110 <strncpy@plt>
  406ffb:	49 8d 76 30          	lea    0x30(%r14),%rsi
  406fff:	48 8d 9c 24 b0 04 00 	lea    0x4b0(%rsp),%rbx
  407006:	00 
  407007:	ba 18 00 00 00       	mov    $0x18,%edx
  40700c:	48 89 df             	mov    %rbx,%rdi
  40700f:	e8 fc b0 ff ff       	call   402110 <strncpy@plt>
  407014:	48 8d 54 24 08       	lea    0x8(%rsp),%rdx
  407019:	bf 02 00 00 00       	mov    $0x2,%edi
  40701e:	48 89 de             	mov    %rbx,%rsi
  407021:	e8 da b3 ff ff       	call   402400 <inet_pton@plt>
  407026:	85 c0                	test   %eax,%eax
  407028:	0f 84 d3 06 00 00    	je     407701 <teavpn_iface_up+0x741>
  40702e:	8b 44 24 08          	mov    0x8(%rsp),%eax
  407032:	0f bd d8             	bsr    %eax,%ebx
  407035:	83 f3 e0             	xor    $0xffffffe0,%ebx
  407038:	83 c3 21             	add    $0x21,%ebx
  40703b:	85 c0                	test   %eax,%eax
  40703d:	0f 44 d8             	cmove  %eax,%ebx
  407040:	48 8d b4 24 d0 04 00 	lea    0x4d0(%rsp),%rsi
  407047:	00 
  407048:	48 8d 54 24 0c       	lea    0xc(%rsp),%rdx
  40704d:	bf 02 00 00 00       	mov    $0x2,%edi
  407052:	e8 a9 b3 ff ff       	call   402400 <inet_pton@plt>
  407057:	85 c0                	test   %eax,%eax
  407059:	0f 84 ce 06 00 00    	je     40772d <teavpn_iface_up+0x76d>
  40705f:	48 8d bc 24 d0 04 00 	lea    0x4d0(%rsp),%rdi
  407066:	00 
  407067:	be 18 00 00 00       	mov    $0x18,%esi
  40706c:	e8 0f b3 ff ff       	call   402380 <strnlen@plt>
  407071:	48 8d 3c 04          	lea    (%rsp,%rax,1),%rdi
  407075:	48 81 c7 d0 04 00 00 	add    $0x4d0,%rdi
  40707c:	48 8d 15 14 35 00 00 	lea    0x3514(%rip),%rdx        # 40a597 <short_opt+0x267>
  407083:	be 18 00 00 00       	mov    $0x18,%esi
  407088:	89 d9                	mov    %ebx,%ecx
  40708a:	31 c0                	xor    %eax,%eax
  40708c:	e8 ff b2 ff ff       	call   402390 <snprintf@plt>
  407091:	8b 44 24 0c          	mov    0xc(%rsp),%eax
  407095:	8b 4c 24 08          	mov    0x8(%rsp),%ecx
  407099:	89 ca                	mov    %ecx,%edx
  40709b:	21 c2                	and    %eax,%edx
  40709d:	89 54 24 04          	mov    %edx,0x4(%rsp)
  4070a1:	f7 d1                	not    %ecx
  4070a3:	09 c1                	or     %eax,%ecx
  4070a5:	89 0c 24             	mov    %ecx,(%rsp)
  4070a8:	48 8d 74 24 04       	lea    0x4(%rsp),%rsi
  4070ad:	48 8d 94 24 90 04 00 	lea    0x490(%rsp),%rdx
  4070b4:	00 
  4070b5:	bf 02 00 00 00       	mov    $0x2,%edi
  4070ba:	b9 18 00 00 00       	mov    $0x18,%ecx
  4070bf:	e8 3c b1 ff ff       	call   402200 <inet_ntop@plt>
  4070c4:	48 85 c0             	test   %rax,%rax
  4070c7:	0f 84 b2 06 00 00    	je     40777f <teavpn_iface_up+0x7bf>
  4070cd:	48 8d bc 24 90 04 00 	lea    0x490(%rsp),%rdi
  4070d4:	00 
  4070d5:	be 18 00 00 00       	mov    $0x18,%esi
  4070da:	e8 a1 b2 ff ff       	call   402380 <strnlen@plt>
  4070df:	48 8d 3c 04          	lea    (%rsp,%rax,1),%rdi
  4070e3:	48 81 c7 90 04 00 00 	add    $0x490,%rdi
  4070ea:	48 8d 15 cb 34 00 00 	lea    0x34cb(%rip),%rdx        # 40a5bc <short_opt+0x28c>
  4070f1:	be 18 00 00 00       	mov    $0x18,%esi
  4070f6:	89 d9                	mov    %ebx,%ecx
  4070f8:	31 c0                	xor    %eax,%eax
  4070fa:	e8 91 b2 ff ff       	call   402390 <snprintf@plt>
  4070ff:	48 89 e6             	mov    %rsp,%rsi
  407102:	48 8d 94 24 70 04 00 	lea    0x470(%rsp),%rdx
  407109:	00 
  40710a:	bf 02 00 00 00       	mov    $0x2,%edi
  40710f:	b9 18 00 00 00       	mov    $0x18,%ecx
  407114:	e8 e7 b0 ff ff       	call   402200 <inet_ntop@plt>
  407119:	48 85 c0             	test   %rax,%rax
  40711c:	0f 84 80 05 00 00    	je     4076a2 <teavpn_iface_up+0x6e2>
  407122:	48 8d 9c 24 d0 04 00 	lea    0x4d0(%rsp),%rbx
  407129:	00 
  40712a:	48 89 df             	mov    %rbx,%rdi
  40712d:	e8 9e af ff ff       	call   4020d0 <strlen@plt>
  407132:	48 8d bc 24 10 04 00 	lea    0x410(%rsp),%rdi
  407139:	00 
  40713a:	48 89 de             	mov    %rbx,%rsi
  40713d:	48 89 c2             	mov    %rax,%rdx
  407140:	31 c9                	xor    %ecx,%ecx
  407142:	e8 49 f8 ff ff       	call   406990 <escapeshellarg>
  407147:	48 8d 9c 24 90 04 00 	lea    0x490(%rsp),%rbx
  40714e:	00 
  40714f:	48 89 df             	mov    %rbx,%rdi
  407152:	e8 79 af ff ff       	call   4020d0 <strlen@plt>
  407157:	48 8d bc 24 d0 03 00 	lea    0x3d0(%rsp),%rdi
  40715e:	00 
  40715f:	48 89 de             	mov    %rbx,%rsi
  407162:	48 89 c2             	mov    %rax,%rdx
  407165:	31 c9                	xor    %ecx,%ecx
  407167:	e8 24 f8 ff ff       	call   406990 <escapeshellarg>
  40716c:	48 8d 9c 24 70 04 00 	lea    0x470(%rsp),%rbx
  407173:	00 
  407174:	48 89 df             	mov    %rbx,%rdi
  407177:	e8 54 af ff ff       	call   4020d0 <strlen@plt>
  40717c:	48 8d bc 24 90 03 00 	lea    0x390(%rsp),%rdi
  407183:	00 
  407184:	48 89 de             	mov    %rbx,%rsi
  407187:	48 89 c2             	mov    %rax,%rdx
  40718a:	31 c9                	xor    %ecx,%ecx
  40718c:	e8 ff f7 ff ff       	call   406990 <escapeshellarg>
  407191:	4c 89 f7             	mov    %r14,%rdi
  407194:	e8 37 af ff ff       	call   4020d0 <strlen@plt>
  407199:	48 8d bc 24 50 04 00 	lea    0x450(%rsp),%rdi
  4071a0:	00 
  4071a1:	4c 89 f6             	mov    %r14,%rsi
  4071a4:	48 89 c2             	mov    %rax,%rdx
  4071a7:	31 c9                	xor    %ecx,%ecx
  4071a9:	e8 e2 f7 ff ff       	call   406990 <escapeshellarg>
  4071ae:	e8 7d ae ff ff       	call   402030 <__errno_location@plt>
  4071b3:	48 89 c5             	mov    %rax,%rbp
  4071b6:	c7 00 00 00 00 00    	movl   $0x0,(%rax)
  4071bc:	4c 8d 25 22 35 00 00 	lea    0x3522(%rip),%r12        # 40a6e5 <short_opt+0x3b5>
  4071c3:	4c 89 e7             	mov    %r12,%rdi
  4071c6:	be 05 00 00 00       	mov    $0x5,%esi
  4071cb:	e8 f0 b1 ff ff       	call   4023c0 <access@plt>
  4071d0:	89 c3                	mov    %eax,%ebx
  4071d2:	8b 7d 00             	mov    0x0(%rbp),%edi
  4071d5:	e8 d6 ae ff ff       	call   4020b0 <strerror@plt>
  4071da:	48 8d 3d 1f 35 00 00 	lea    0x351f(%rip),%rdi        # 40a700 <short_opt+0x3d0>
  4071e1:	4c 89 e6             	mov    %r12,%rsi
  4071e4:	48 89 c2             	mov    %rax,%rdx
  4071e7:	31 c0                	xor    %eax,%eax
  4071e9:	e8 b2 0d 00 00       	call   407fa0 <__pr_notice>
  4071ee:	85 db                	test   %ebx,%ebx
  4071f0:	0f 84 6a 01 00 00    	je     407360 <teavpn_iface_up+0x3a0>
  4071f6:	c7 45 00 00 00 00 00 	movl   $0x0,0x0(%rbp)
  4071fd:	4c 8d 25 f3 34 00 00 	lea    0x34f3(%rip),%r12        # 40a6f7 <short_opt+0x3c7>
  407204:	4c 89 e7             	mov    %r12,%rdi
  407207:	be 05 00 00 00       	mov    $0x5,%esi
  40720c:	e8 af b1 ff ff       	call   4023c0 <access@plt>
  407211:	89 c3                	mov    %eax,%ebx
  407213:	8b 7d 00             	mov    0x0(%rbp),%edi
  407216:	e8 95 ae ff ff       	call   4020b0 <strerror@plt>
  40721b:	48 8d 3d de 34 00 00 	lea    0x34de(%rip),%rdi        # 40a700 <short_opt+0x3d0>
  407222:	4c 89 e6             	mov    %r12,%rsi
  407225:	48 89 c2             	mov    %rax,%rdx
  407228:	31 c0                	xor    %eax,%eax
  40722a:	e8 71 0d 00 00       	call   407fa0 <__pr_notice>
  40722f:	85 db                	test   %ebx,%ebx
  407231:	0f 84 29 01 00 00    	je     407360 <teavpn_iface_up+0x3a0>
  407237:	c7 45 00 00 00 00 00 	movl   $0x0,0x0(%rbp)
  40723e:	4c 8d 25 7d 34 00 00 	lea    0x347d(%rip),%r12        # 40a6c2 <short_opt+0x392>
  407245:	4c 89 e7             	mov    %r12,%rdi
  407248:	be 05 00 00 00       	mov    $0x5,%esi
  40724d:	e8 6e b1 ff ff       	call   4023c0 <access@plt>
  407252:	89 c3                	mov    %eax,%ebx
  407254:	8b 7d 00             	mov    0x0(%rbp),%edi
  407257:	e8 54 ae ff ff       	call   4020b0 <strerror@plt>
  40725c:	48 8d 3d 9d 34 00 00 	lea    0x349d(%rip),%rdi        # 40a700 <short_opt+0x3d0>
  407263:	4c 89 e6             	mov    %r12,%rsi
  407266:	48 89 c2             	mov    %rax,%rdx
  407269:	31 c0                	xor    %eax,%eax
  40726b:	e8 30 0d 00 00       	call   407fa0 <__pr_notice>
  407270:	85 db                	test   %ebx,%ebx
  407272:	0f 84 e8 00 00 00    	je     407360 <teavpn_iface_up+0x3a0>
  407278:	c7 45 00 00 00 00 00 	movl   $0x0,0x0(%rbp)
  40727f:	4c 8d 25 48 34 00 00 	lea    0x3448(%rip),%r12        # 40a6ce <short_opt+0x39e>
  407286:	4c 89 e7             	mov    %r12,%rdi
  407289:	be 05 00 00 00       	mov    $0x5,%esi
  40728e:	e8 2d b1 ff ff       	call   4023c0 <access@plt>
  407293:	89 c3                	mov    %eax,%ebx
  407295:	8b 7d 00             	mov    0x0(%rbp),%edi
  407298:	e8 13 ae ff ff       	call   4020b0 <strerror@plt>
  40729d:	48 8d 3d 5c 34 00 00 	lea    0x345c(%rip),%rdi        # 40a700 <short_opt+0x3d0>
  4072a4:	4c 89 e6             	mov    %r12,%rsi
  4072a7:	48 89 c2             	mov    %rax,%rdx
  4072aa:	31 c0                	xor    %eax,%eax
  4072ac:	e8 ef 0c 00 00       	call   407fa0 <__pr_notice>
  4072b1:	85 db                	test   %ebx,%ebx
  4072b3:	0f 84 a7 00 00 00    	je     407360 <teavpn_iface_up+0x3a0>
  4072b9:	c7 45 00 00 00 00 00 	movl   $0x0,0x0(%rbp)
  4072c0:	4c 8d 25 14 34 00 00 	lea    0x3414(%rip),%r12        # 40a6db <short_opt+0x3ab>
  4072c7:	4c 89 e7             	mov    %r12,%rdi
  4072ca:	be 05 00 00 00       	mov    $0x5,%esi
  4072cf:	e8 ec b0 ff ff       	call   4023c0 <access@plt>
  4072d4:	89 c3                	mov    %eax,%ebx
  4072d6:	8b 7d 00             	mov    0x0(%rbp),%edi
  4072d9:	e8 d2 ad ff ff       	call   4020b0 <strerror@plt>
  4072de:	48 8d 3d 1b 34 00 00 	lea    0x341b(%rip),%rdi        # 40a700 <short_opt+0x3d0>
  4072e5:	4c 89 e6             	mov    %r12,%rsi
  4072e8:	48 89 c2             	mov    %rax,%rdx
  4072eb:	31 c0                	xor    %eax,%eax
  4072ed:	e8 ae 0c 00 00       	call   407fa0 <__pr_notice>
  4072f2:	85 db                	test   %ebx,%ebx
  4072f4:	74 6a                	je     407360 <teavpn_iface_up+0x3a0>
  4072f6:	c7 45 00 00 00 00 00 	movl   $0x0,0x0(%rbp)
  4072fd:	4c 8d 25 e9 33 00 00 	lea    0x33e9(%rip),%r12        # 40a6ed <short_opt+0x3bd>
  407304:	4c 89 e7             	mov    %r12,%rdi
  407307:	be 05 00 00 00       	mov    $0x5,%esi
  40730c:	e8 af b0 ff ff       	call   4023c0 <access@plt>
  407311:	89 c3                	mov    %eax,%ebx
  407313:	8b 7d 00             	mov    0x0(%rbp),%edi
  407316:	e8 95 ad ff ff       	call   4020b0 <strerror@plt>
  40731b:	48 8d 3d de 33 00 00 	lea    0x33de(%rip),%rdi        # 40a700 <short_opt+0x3d0>
  407322:	4c 89 e6             	mov    %r12,%rsi
  407325:	48 89 c2             	mov    %rax,%rdx
  407328:	31 c0                	xor    %eax,%eax
  40732a:	e8 71 0c 00 00       	call   407fa0 <__pr_notice>
  40732f:	85 db                	test   %ebx,%ebx
  407331:	74 2d                	je     407360 <teavpn_iface_up+0x3a0>
  407333:	48 8d 3d d6 33 00 00 	lea    0x33d6(%rip),%rdi        # 40a710 <short_opt+0x3e0>
  40733a:	45 31 ff             	xor    %r15d,%r15d
  40733d:	31 c0                	xor    %eax,%eax
  40733f:	e8 ac 07 00 00       	call   407af0 <__pr_error>
  407344:	64 48 8b 04 25 28 00 	mov    %fs:0x28,%rax
  40734b:	00 00 
  40734d:	48 3b 84 24 f0 04 00 	cmp    0x4f0(%rsp),%rax
  407354:	00 
  407355:	0f 84 91 03 00 00    	je     4076ec <teavpn_iface_up+0x72c>
  40735b:	e9 1a 04 00 00       	jmp    40777a <teavpn_iface_up+0x7ba>
  407360:	45 0f b7 46 50       	movzwl 0x50(%r14),%r8d
  407365:	48 8d 15 75 32 00 00 	lea    0x3275(%rip),%rdx        # 40a5e1 <short_opt+0x2b1>
  40736c:	45 31 ff             	xor    %r15d,%r15d
  40736f:	48 8d 9c 24 90 02 00 	lea    0x290(%rsp),%rbx
  407376:	00 
  407377:	48 8d 8c 24 50 04 00 	lea    0x450(%rsp),%rcx
  40737e:	00 
  40737f:	be 00 01 00 00       	mov    $0x100,%esi
  407384:	48 89 df             	mov    %rbx,%rdi
  407387:	31 c0                	xor    %eax,%eax
  407389:	e8 02 b0 ff ff       	call   402390 <snprintf@plt>
  40738e:	48 8d 15 66 32 00 00 	lea    0x3266(%rip),%rdx        # 40a5fb <short_opt+0x2cb>
  407395:	48 8d ac 24 90 00 00 	lea    0x90(%rsp),%rbp
  40739c:	00 
  40739d:	be 00 02 00 00       	mov    $0x200,%esi
  4073a2:	48 89 ef             	mov    %rbp,%rdi
  4073a5:	4c 89 e1             	mov    %r12,%rcx
  4073a8:	49 89 d8             	mov    %rbx,%r8
  4073ab:	31 c0                	xor    %eax,%eax
  4073ad:	e8 de af ff ff       	call   402390 <snprintf@plt>
  4073b2:	48 8d 3d 48 32 00 00 	lea    0x3248(%rip),%rdi        # 40a601 <short_opt+0x2d1>
  4073b9:	48 89 ee             	mov    %rbp,%rsi
  4073bc:	31 c0                	xor    %eax,%eax
  4073be:	e8 dd 0b 00 00       	call   407fa0 <__pr_notice>
  4073c3:	48 89 ef             	mov    %rbp,%rdi
  4073c6:	e8 f5 ad ff ff       	call   4021c0 <system@plt>
  4073cb:	85 c0                	test   %eax,%eax
  4073cd:	0f 85 02 03 00 00    	jne    4076d5 <teavpn_iface_up+0x715>
  4073d3:	48 8d 15 35 32 00 00 	lea    0x3235(%rip),%rdx        # 40a60f <short_opt+0x2df>
  4073da:	45 31 ff             	xor    %r15d,%r15d
  4073dd:	48 8d 9c 24 90 02 00 	lea    0x290(%rsp),%rbx
  4073e4:	00 
  4073e5:	48 8d 8c 24 50 04 00 	lea    0x450(%rsp),%rcx
  4073ec:	00 
  4073ed:	4c 8d 84 24 10 04 00 	lea    0x410(%rsp),%r8
  4073f4:	00 
  4073f5:	4c 8d 8c 24 90 03 00 	lea    0x390(%rsp),%r9
  4073fc:	00 
  4073fd:	be 00 01 00 00       	mov    $0x100,%esi
  407402:	48 89 df             	mov    %rbx,%rdi
  407405:	31 c0                	xor    %eax,%eax
  407407:	e8 84 af ff ff       	call   402390 <snprintf@plt>
  40740c:	48 8d 15 e8 31 00 00 	lea    0x31e8(%rip),%rdx        # 40a5fb <short_opt+0x2cb>
  407413:	48 8d ac 24 90 00 00 	lea    0x90(%rsp),%rbp
  40741a:	00 
  40741b:	be 00 02 00 00       	mov    $0x200,%esi
  407420:	48 89 ef             	mov    %rbp,%rdi
  407423:	4c 89 e1             	mov    %r12,%rcx
  407426:	49 89 d8             	mov    %rbx,%r8
  407429:	31 c0                	xor    %eax,%eax
  40742b:	e8 60 af ff ff       	call   402390 <snprintf@plt>
  407430:	48 8d 3d ca 31 00 00 	lea    0x31ca(%rip),%rdi        # 40a601 <short_opt+0x2d1>
  407437:	48 89 ee             	mov    %rbp,%rsi
  40743a:	31 c0                	xor    %eax,%eax
  40743c:	e8 5f 0b 00 00       	call   407fa0 <__pr_notice>
  407441:	48 89 ef             	mov    %rbp,%rdi
  407444:	e8 77 ad ff ff       	call   4021c0 <system@plt>
  407449:	85 c0                	test   %eax,%eax
  40744b:	0f 85 84 02 00 00    	jne    4076d5 <teavpn_iface_up+0x715>
  407451:	41 b7 01             	mov    $0x1,%r15b
  407454:	41 80 7e 10 00       	cmpb   $0x0,0x10(%r14)
  407459:	0f 84 76 02 00 00    	je     4076d5 <teavpn_iface_up+0x715>
  40745f:	48 8d 15 ff 31 00 00 	lea    0x31ff(%rip),%rdx        # 40a665 <short_opt+0x335>
  407466:	48 8d 5c 24 10       	lea    0x10(%rsp),%rbx
  40746b:	be 80 00 00 00       	mov    $0x80,%esi
  407470:	48 89 df             	mov    %rbx,%rdi
  407473:	4c 89 e1             	mov    %r12,%rcx
  407476:	31 c0                	xor    %eax,%eax
  407478:	e8 13 af ff ff       	call   402390 <snprintf@plt>
  40747d:	48 8d ac 24 90 02 00 	lea    0x290(%rsp),%rbp
  407484:	00 
  407485:	ba ff 00 00 00       	mov    $0xff,%edx
  40748a:	48 89 df             	mov    %rbx,%rdi
  40748d:	48 89 ee             	mov    %rbp,%rsi
  407490:	31 c9                	xor    %ecx,%ecx
  407492:	e8 09 f4 ff ff       	call   4068a0 <shell_exec>
  407497:	c6 84 24 8f 03 00 00 	movb   $0x0,0x38f(%rsp)
  40749e:	00 
  40749f:	48 8d 35 89 31 00 00 	lea    0x3189(%rip),%rsi        # 40a62f <short_opt+0x2ff>
  4074a6:	48 89 ef             	mov    %rbp,%rdi
  4074a9:	e8 b2 ab ff ff       	call   402060 <strstr@plt>
  4074ae:	48 85 c0             	test   %rax,%rax
  4074b1:	0f 84 f0 02 00 00    	je     4077a7 <teavpn_iface_up+0x7e7>
  4074b7:	48 89 c3             	mov    %rax,%rbx
  4074ba:	49 8d 6e 10          	lea    0x10(%r14),%rbp
  4074be:	48 b9 01 04 00 00 01 	movabs $0x100000401,%rcx
  4074c5:	00 00 00 
  4074c8:	e9 07 00 00 00       	jmp    4074d4 <teavpn_iface_up+0x514>
  4074cd:	0f 1f 00             	nopl   (%rax)
  4074d0:	48 83 c0 01          	add    $0x1,%rax
  4074d4:	0f b6 10             	movzbl (%rax),%edx
  4074d7:	48 83 fa 20          	cmp    $0x20,%rdx
  4074db:	77 f3                	ja     4074d0 <teavpn_iface_up+0x510>
  4074dd:	48 0f a3 d1          	bt     %rdx,%rcx
  4074e1:	73 ed                	jae    4074d0 <teavpn_iface_up+0x510>
  4074e3:	c6 00 00             	movb   $0x0,(%rax)
  4074e6:	48 89 df             	mov    %rbx,%rdi
  4074e9:	e8 e2 ab ff ff       	call   4020d0 <strlen@plt>
  4074ee:	4c 8d ac 24 10 04 00 	lea    0x410(%rsp),%r13
  4074f5:	00 
  4074f6:	4c 89 ef             	mov    %r13,%rdi
  4074f9:	48 89 de             	mov    %rbx,%rsi
  4074fc:	48 89 c2             	mov    %rax,%rdx
  4074ff:	31 c9                	xor    %ecx,%ecx
  407501:	e8 8a f4 ff ff       	call   406990 <escapeshellarg>
  407506:	48 89 ef             	mov    %rbp,%rdi
  407509:	e8 c2 ab ff ff       	call   4020d0 <strlen@plt>
  40750e:	48 8d 9c 24 d0 03 00 	lea    0x3d0(%rsp),%rbx
  407515:	00 
  407516:	48 89 df             	mov    %rbx,%rdi
  407519:	48 89 ee             	mov    %rbp,%rsi
  40751c:	48 89 c2             	mov    %rax,%rdx
  40751f:	31 c9                	xor    %ecx,%ecx
  407521:	e8 6a f4 ff ff       	call   406990 <escapeshellarg>
  407526:	48 8d 15 46 31 00 00 	lea    0x3146(%rip),%rdx        # 40a673 <short_opt+0x343>
  40752d:	48 8d ac 24 90 02 00 	lea    0x290(%rsp),%rbp
  407534:	00 
  407535:	be 00 01 00 00       	mov    $0x100,%esi
  40753a:	48 89 ef             	mov    %rbp,%rdi
  40753d:	48 89 d9             	mov    %rbx,%rcx
  407540:	4d 89 e8             	mov    %r13,%r8
  407543:	31 c0                	xor    %eax,%eax
  407545:	e8 46 ae ff ff       	call   402390 <snprintf@plt>
  40754a:	48 8d 15 aa 30 00 00 	lea    0x30aa(%rip),%rdx        # 40a5fb <short_opt+0x2cb>
  407551:	48 8d 9c 24 90 00 00 	lea    0x90(%rsp),%rbx
  407558:	00 
  407559:	be 00 02 00 00       	mov    $0x200,%esi
  40755e:	48 89 df             	mov    %rbx,%rdi
  407561:	4c 89 e1             	mov    %r12,%rcx
  407564:	49 89 e8             	mov    %rbp,%r8
  407567:	31 c0                	xor    %eax,%eax
  407569:	e8 22 ae ff ff       	call   402390 <snprintf@plt>
  40756e:	48 8d 3d 8c 30 00 00 	lea    0x308c(%rip),%rdi        # 40a601 <short_opt+0x2d1>
  407575:	48 89 de             	mov    %rbx,%rsi
  407578:	31 c0                	xor    %eax,%eax
  40757a:	e8 21 0a 00 00       	call   407fa0 <__pr_notice>
  40757f:	48 89 df             	mov    %rbx,%rdi
  407582:	e8 39 ac ff ff       	call   4021c0 <system@plt>
  407587:	85 c0                	test   %eax,%eax
  407589:	0f 85 f8 00 00 00    	jne    407687 <teavpn_iface_up+0x6c7>
  40758f:	41 80 7e 40 00       	cmpb   $0x0,0x40(%r14)
  407594:	0f 84 3b 01 00 00    	je     4076d5 <teavpn_iface_up+0x715>
  40759a:	49 83 c6 40          	add    $0x40,%r14
  40759e:	4c 89 f7             	mov    %r14,%rdi
  4075a1:	e8 2a ab ff ff       	call   4020d0 <strlen@plt>
  4075a6:	48 8d 9c 24 10 04 00 	lea    0x410(%rsp),%rbx
  4075ad:	00 
  4075ae:	48 89 df             	mov    %rbx,%rdi
  4075b1:	4c 89 f6             	mov    %r14,%rsi
  4075b4:	48 89 c2             	mov    %rax,%rdx
  4075b7:	31 c9                	xor    %ecx,%ecx
  4075b9:	e8 d2 f3 ff ff       	call   406990 <escapeshellarg>
  4075be:	48 8d 15 c5 30 00 00 	lea    0x30c5(%rip),%rdx        # 40a68a <short_opt+0x35a>
  4075c5:	48 8d ac 24 90 02 00 	lea    0x290(%rsp),%rbp
  4075cc:	00 
  4075cd:	be 00 01 00 00       	mov    $0x100,%esi
  4075d2:	48 89 ef             	mov    %rbp,%rdi
  4075d5:	48 89 d9             	mov    %rbx,%rcx
  4075d8:	31 c0                	xor    %eax,%eax
  4075da:	e8 b1 ad ff ff       	call   402390 <snprintf@plt>
  4075df:	48 8d 15 15 30 00 00 	lea    0x3015(%rip),%rdx        # 40a5fb <short_opt+0x2cb>
  4075e6:	48 8d 9c 24 90 00 00 	lea    0x90(%rsp),%rbx
  4075ed:	00 
  4075ee:	be 00 02 00 00       	mov    $0x200,%esi
  4075f3:	48 89 df             	mov    %rbx,%rdi
  4075f6:	4c 89 e1             	mov    %r12,%rcx
  4075f9:	49 89 e8             	mov    %rbp,%r8
  4075fc:	31 c0                	xor    %eax,%eax
  4075fe:	e8 8d ad ff ff       	call   402390 <snprintf@plt>
  407603:	48 8d 3d f7 2f 00 00 	lea    0x2ff7(%rip),%rdi        # 40a601 <short_opt+0x2d1>
  40760a:	48 89 de             	mov    %rbx,%rsi
  40760d:	31 c0                	xor    %eax,%eax
  40760f:	e8 8c 09 00 00       	call   407fa0 <__pr_notice>
  407614:	48 89 df             	mov    %rbx,%rdi
  407617:	e8 a4 ab ff ff       	call   4021c0 <system@plt>
  40761c:	85 c0                	test   %eax,%eax
  40761e:	75 67                	jne    407687 <teavpn_iface_up+0x6c7>
  407620:	48 8d 15 7e 30 00 00 	lea    0x307e(%rip),%rdx        # 40a6a5 <short_opt+0x375>
  407627:	48 8d 9c 24 90 02 00 	lea    0x290(%rsp),%rbx
  40762e:	00 
  40762f:	48 8d 8c 24 10 04 00 	lea    0x410(%rsp),%rcx
  407636:	00 
  407637:	be 00 01 00 00       	mov    $0x100,%esi
  40763c:	48 89 df             	mov    %rbx,%rdi
  40763f:	31 c0                	xor    %eax,%eax
  407641:	e8 4a ad ff ff       	call   402390 <snprintf@plt>
  407646:	48 8d 15 ae 2f 00 00 	lea    0x2fae(%rip),%rdx        # 40a5fb <short_opt+0x2cb>
  40764d:	48 8d ac 24 90 00 00 	lea    0x90(%rsp),%rbp
  407654:	00 
  407655:	be 00 02 00 00       	mov    $0x200,%esi
  40765a:	48 89 ef             	mov    %rbp,%rdi
  40765d:	4c 89 e1             	mov    %r12,%rcx
  407660:	49 89 d8             	mov    %rbx,%r8
  407663:	31 c0                	xor    %eax,%eax
  407665:	e8 26 ad ff ff       	call   402390 <snprintf@plt>
  40766a:	48 8d 3d 90 2f 00 00 	lea    0x2f90(%rip),%rdi        # 40a601 <short_opt+0x2d1>
  407671:	48 89 ee             	mov    %rbp,%rsi
  407674:	31 c0                	xor    %eax,%eax
  407676:	e8 25 09 00 00       	call   407fa0 <__pr_notice>
  40767b:	48 89 ef             	mov    %rbp,%rdi
  40767e:	e8 3d ab ff ff       	call   4021c0 <system@plt>
  407683:	85 c0                	test   %eax,%eax
  407685:	74 4e                	je     4076d5 <teavpn_iface_up+0x715>
  407687:	45 31 ff             	xor    %r15d,%r15d
  40768a:	64 48 8b 04 25 28 00 	mov    %fs:0x28,%rax
  407691:	00 00 
  407693:	48 3b 84 24 f0 04 00 	cmp    0x4f0(%rsp),%rax
  40769a:	00 
  40769b:	74 4f                	je     4076ec <teavpn_iface_up+0x72c>
  40769d:	e9 d8 00 00 00       	jmp    40777a <teavpn_iface_up+0x7ba>
  4076a2:	e8 89 a9 ff ff       	call   402030 <__errno_location@plt>
  4076a7:	8b 00                	mov    (%rax),%eax
  4076a9:	85 c0                	test   %eax,%eax
  4076ab:	bb 16 00 00 00       	mov    $0x16,%ebx
  4076b0:	0f 45 d8             	cmovne %eax,%ebx
  4076b3:	8b 2c 24             	mov    (%rsp),%ebp
  4076b6:	89 df                	mov    %ebx,%edi
  4076b8:	e8 f3 a9 ff ff       	call   4020b0 <strerror@plt>
  4076bd:	48 8d 3d fc 2e 00 00 	lea    0x2efc(%rip),%rdi        # 40a5c0 <short_opt+0x290>
  4076c4:	45 31 ff             	xor    %r15d,%r15d
  4076c7:	89 ee                	mov    %ebp,%esi
  4076c9:	89 da                	mov    %ebx,%edx
  4076cb:	48 89 c1             	mov    %rax,%rcx
  4076ce:	31 c0                	xor    %eax,%eax
  4076d0:	e8 1b 04 00 00       	call   407af0 <__pr_error>
  4076d5:	64 48 8b 04 25 28 00 	mov    %fs:0x28,%rax
  4076dc:	00 00 
  4076de:	48 3b 84 24 f0 04 00 	cmp    0x4f0(%rsp),%rax
  4076e5:	00 
  4076e6:	0f 85 8e 00 00 00    	jne    40777a <teavpn_iface_up+0x7ba>
  4076ec:	44 89 f8             	mov    %r15d,%eax
  4076ef:	48 81 c4 f8 04 00 00 	add    $0x4f8,%rsp
  4076f6:	5b                   	pop    %rbx
  4076f7:	41 5c                	pop    %r12
  4076f9:	41 5d                	pop    %r13
  4076fb:	41 5e                	pop    %r14
  4076fd:	41 5f                	pop    %r15
  4076ff:	5d                   	pop    %rbp
  407700:	c3                   	ret    
  407701:	e8 2a a9 ff ff       	call   402030 <__errno_location@plt>
  407706:	8b 00                	mov    (%rax),%eax
  407708:	85 c0                	test   %eax,%eax
  40770a:	bb 16 00 00 00       	mov    $0x16,%ebx
  40770f:	0f 45 d8             	cmovne %eax,%ebx
  407712:	89 df                	mov    %ebx,%edi
  407714:	e8 97 a9 ff ff       	call   4020b0 <strerror@plt>
  407719:	48 8d 3d 38 2e 00 00 	lea    0x2e38(%rip),%rdi        # 40a558 <short_opt+0x228>
  407720:	45 31 ff             	xor    %r15d,%r15d
  407723:	48 8d b4 24 b0 04 00 	lea    0x4b0(%rsp),%rsi
  40772a:	00 
  40772b:	eb 2a                	jmp    407757 <teavpn_iface_up+0x797>
  40772d:	e8 fe a8 ff ff       	call   402030 <__errno_location@plt>
  407732:	8b 00                	mov    (%rax),%eax
  407734:	85 c0                	test   %eax,%eax
  407736:	bb 16 00 00 00       	mov    $0x16,%ebx
  40773b:	0f 45 d8             	cmovne %eax,%ebx
  40773e:	89 df                	mov    %ebx,%edi
  407740:	e8 6b a9 ff ff       	call   4020b0 <strerror@plt>
  407745:	48 8d 3d 2d 2e 00 00 	lea    0x2e2d(%rip),%rdi        # 40a579 <short_opt+0x249>
  40774c:	45 31 ff             	xor    %r15d,%r15d
  40774f:	48 8d b4 24 d0 04 00 	lea    0x4d0(%rsp),%rsi
  407756:	00 
  407757:	89 da                	mov    %ebx,%edx
  407759:	48 89 c1             	mov    %rax,%rcx
  40775c:	31 c0                	xor    %eax,%eax
  40775e:	e8 8d 03 00 00       	call   407af0 <__pr_error>
  407763:	64 48 8b 04 25 28 00 	mov    %fs:0x28,%rax
  40776a:	00 00 
  40776c:	48 3b 84 24 f0 04 00 	cmp    0x4f0(%rsp),%rax
  407773:	00 
  407774:	0f 84 72 ff ff ff    	je     4076ec <teavpn_iface_up+0x72c>
  40777a:	e8 c1 aa ff ff       	call   402240 <__stack_chk_fail@plt>
  40777f:	e8 ac a8 ff ff       	call   402030 <__errno_location@plt>
  407784:	8b 00                	mov    (%rax),%eax
  407786:	85 c0                	test   %eax,%eax
  407788:	bb 16 00 00 00       	mov    $0x16,%ebx
  40778d:	0f 45 d8             	cmovne %eax,%ebx
  407790:	8b 6c 24 04          	mov    0x4(%rsp),%ebp
  407794:	89 df                	mov    %ebx,%edi
  407796:	e8 15 a9 ff ff       	call   4020b0 <strerror@plt>
  40779b:	48 8d 3d f9 2d 00 00 	lea    0x2df9(%rip),%rdi        # 40a59b <short_opt+0x26b>
  4077a2:	e9 1d ff ff ff       	jmp    4076c4 <teavpn_iface_up+0x704>
  4077a7:	48 8d 3d 8e 2e 00 00 	lea    0x2e8e(%rip),%rdi        # 40a63c <short_opt+0x30c>
  4077ae:	4c 89 e6             	mov    %r12,%rsi
  4077b1:	31 c0                	xor    %eax,%eax
  4077b3:	e8 38 03 00 00       	call   407af0 <__pr_error>
  4077b8:	e9 ca fe ff ff       	jmp    407687 <teavpn_iface_up+0x6c7>
  4077bd:	0f 1f 00             	nopl   (%rax)

00000000004077c0 <set_cpu_init>:
  4077c0:	55                   	push   %rbp
  4077c1:	41 57                	push   %r15
  4077c3:	41 56                	push   %r14
  4077c5:	41 55                	push   %r13
  4077c7:	41 54                	push   %r12
  4077c9:	53                   	push   %rbx
  4077ca:	48 81 ec 18 01 00 00 	sub    $0x118,%rsp
  4077d1:	64 48 8b 04 25 28 00 	mov    %fs:0x28,%rax
  4077d8:	00 00 
  4077da:	48 89 84 24 10 01 00 	mov    %rax,0x110(%rsp)
  4077e1:	00 
  4077e2:	0f 57 c0             	xorps  %xmm0,%xmm0
  4077e5:	0f 29 84 24 90 00 00 	movaps %xmm0,0x90(%rsp)
  4077ec:	00 
  4077ed:	0f 29 84 24 a0 00 00 	movaps %xmm0,0xa0(%rsp)
  4077f4:	00 
  4077f5:	0f 29 84 24 b0 00 00 	movaps %xmm0,0xb0(%rsp)
  4077fc:	00 
  4077fd:	0f 29 84 24 c0 00 00 	movaps %xmm0,0xc0(%rsp)
  407804:	00 
  407805:	0f 29 84 24 d0 00 00 	movaps %xmm0,0xd0(%rsp)
  40780c:	00 
  40780d:	0f 29 84 24 e0 00 00 	movaps %xmm0,0xe0(%rsp)
  407814:	00 
  407815:	0f 29 84 24 f0 00 00 	movaps %xmm0,0xf0(%rsp)
  40781c:	00 
  40781d:	0f 29 84 24 00 01 00 	movaps %xmm0,0x100(%rsp)
  407824:	00 
  407825:	48 8d 94 24 90 00 00 	lea    0x90(%rsp),%rdx
  40782c:	00 
  40782d:	be 80 00 00 00       	mov    $0x80,%esi
  407832:	31 ff                	xor    %edi,%edi
  407834:	e8 27 ab ff ff       	call   402360 <sched_getaffinity@plt>
  407839:	85 c0                	test   %eax,%eax
  40783b:	0f 88 a5 01 00 00    	js     4079e6 <set_cpu_init+0x226>
  407841:	bf 54 00 00 00       	mov    $0x54,%edi
  407846:	e8 f5 a8 ff ff       	call   402140 <sysconf@plt>
  40784b:	48 89 44 24 08       	mov    %rax,0x8(%rsp)
  407850:	0f 57 c0             	xorps  %xmm0,%xmm0
  407853:	0f 29 44 24 10       	movaps %xmm0,0x10(%rsp)
  407858:	0f 29 44 24 20       	movaps %xmm0,0x20(%rsp)
  40785d:	0f 29 44 24 30       	movaps %xmm0,0x30(%rsp)
  407862:	0f 29 44 24 40       	movaps %xmm0,0x40(%rsp)
  407867:	0f 29 44 24 50       	movaps %xmm0,0x50(%rsp)
  40786c:	0f 29 44 24 60       	movaps %xmm0,0x60(%rsp)
  407871:	0f 29 44 24 70       	movaps %xmm0,0x70(%rsp)
  407876:	0f 29 84 24 80 00 00 	movaps %xmm0,0x80(%rsp)
  40787d:	00 
  40787e:	41 bf ff ff ff ff    	mov    $0xffffffff,%r15d
  407884:	4c 8d 2d d1 2e 00 00 	lea    0x2ed1(%rip),%r13        # 40a75c <short_opt+0x42c>
  40788b:	31 ed                	xor    %ebp,%ebp
  40788d:	31 db                	xor    %ebx,%ebx
  40788f:	90                   	nop
  407890:	49 89 ee             	mov    %rbp,%r14
  407893:	49 c1 ee 06          	shr    $0x6,%r14
  407897:	4a 8b 84 f4 90 00 00 	mov    0x90(%rsp,%r14,8),%rax
  40789e:	00 
  40789f:	41 bc 01 00 00 00    	mov    $0x1,%r12d
  4078a5:	89 e9                	mov    %ebp,%ecx
  4078a7:	49 d3 e4             	shl    %cl,%r12
  4078aa:	48 0f a3 e8          	bt     %rbp,%rax
  4078ae:	73 26                	jae    4078d6 <set_cpu_init+0x116>
  4078b0:	48 8d 05 f1 69 00 00 	lea    0x69f1(%rip),%rax        # 40e2a8 <__notice_level>
  4078b7:	80 38 05             	cmpb   $0x5,(%rax)
  4078ba:	72 0c                	jb     4078c8 <set_cpu_init+0x108>
  4078bc:	4c 89 ef             	mov    %r13,%rdi
  4078bf:	89 ee                	mov    %ebp,%esi
  4078c1:	31 c0                	xor    %eax,%eax
  4078c3:	e8 d8 06 00 00       	call   407fa0 <__pr_notice>
  4078c8:	83 c3 01             	add    $0x1,%ebx
  4078cb:	41 83 ff ff          	cmp    $0xffffffff,%r15d
  4078cf:	74 0f                	je     4078e0 <set_cpu_init+0x120>
  4078d1:	4e 09 64 f4 10       	or     %r12,0x10(%rsp,%r14,8)
  4078d6:	48 83 fd 7e          	cmp    $0x7e,%rbp
  4078da:	76 0d                	jbe    4078e9 <set_cpu_init+0x129>
  4078dc:	eb 14                	jmp    4078f2 <set_cpu_init+0x132>
  4078de:	66 90                	xchg   %ax,%ax
  4078e0:	41 89 ef             	mov    %ebp,%r15d
  4078e3:	48 83 fd 7e          	cmp    $0x7e,%rbp
  4078e7:	77 09                	ja     4078f2 <set_cpu_init+0x132>
  4078e9:	48 83 c5 01          	add    $0x1,%rbp
  4078ed:	83 fb 02             	cmp    $0x2,%ebx
  4078f0:	7c 9e                	jl     407890 <set_cpu_init+0xd0>
  4078f2:	48 8d 54 24 10       	lea    0x10(%rsp),%rdx
  4078f7:	be 80 00 00 00       	mov    $0x80,%esi
  4078fc:	31 ff                	xor    %edi,%edi
  4078fe:	e8 8d a8 ff ff       	call   402190 <sched_setaffinity@plt>
  407903:	85 c0                	test   %eax,%eax
  407905:	0f 88 5b 01 00 00    	js     407a66 <set_cpu_init+0x2a6>
  40790b:	48 8b 6c 24 08       	mov    0x8(%rsp),%rbp
  407910:	83 fd 02             	cmp    $0x2,%ebp
  407913:	74 4c                	je     407961 <set_cpu_init+0x1a1>
  407915:	83 fb 02             	cmp    $0x2,%ebx
  407918:	75 47                	jne    407961 <set_cpu_init+0x1a1>
  40791a:	48 8d 1d 87 69 00 00 	lea    0x6987(%rip),%rbx        # 40e2a8 <__notice_level>
  407921:	80 3b 05             	cmpb   $0x5,(%rbx)
  407924:	72 3b                	jb     407961 <set_cpu_init+0x1a1>
  407926:	48 8d 3d 61 2e 00 00 	lea    0x2e61(%rip),%rdi        # 40a78e <short_opt+0x45e>
  40792d:	31 c0                	xor    %eax,%eax
  40792f:	e8 6c 06 00 00       	call   407fa0 <__pr_notice>
  407934:	80 3b 05             	cmpb   $0x5,(%rbx)
  407937:	72 28                	jb     407961 <set_cpu_init+0x1a1>
  407939:	48 8d 3d 6b 2e 00 00 	lea    0x2e6b(%rip),%rdi        # 40a7ab <short_opt+0x47b>
  407940:	89 ee                	mov    %ebp,%esi
  407942:	31 c0                	xor    %eax,%eax
  407944:	e8 57 06 00 00       	call   407fa0 <__pr_notice>
  407949:	80 3b 05             	cmpb   $0x5,(%rbx)
  40794c:	72 13                	jb     407961 <set_cpu_init+0x1a1>
  40794e:	48 8d 3d 70 2e 00 00 	lea    0x2e70(%rip),%rdi        # 40a7c5 <short_opt+0x495>
  407955:	be 02 00 00 00       	mov    $0x2,%esi
  40795a:	31 c0                	xor    %eax,%eax
  40795c:	e8 3f 06 00 00       	call   407fa0 <__pr_notice>
  407961:	e8 ca a6 ff ff       	call   402030 <__errno_location@plt>
  407966:	48 89 c3             	mov    %rax,%rbx
  407969:	c7 00 00 00 00 00    	movl   $0x0,(%rax)
  40796f:	bf ec ff ff ff       	mov    $0xffffffec,%edi
  407974:	e8 a7 a8 ff ff       	call   402220 <nice@plt>
  407979:	bf ec ff ff ff       	mov    $0xffffffec,%edi
  40797e:	e8 9d a8 ff ff       	call   402220 <nice@plt>
  407983:	8b 1b                	mov    (%rbx),%ebx
  407985:	85 db                	test   %ebx,%ebx
  407987:	0f 85 a3 00 00 00    	jne    407a30 <set_cpu_init+0x270>
  40798d:	48 8d 1d 14 69 00 00 	lea    0x6914(%rip),%rbx        # 40e2a8 <__notice_level>
  407994:	80 3b 05             	cmpb   $0x5,(%rbx)
  407997:	72 21                	jb     4079ba <set_cpu_init+0x1fa>
  407999:	48 8d 3d 9b 2e 00 00 	lea    0x2e9b(%rip),%rdi        # 40a83b <short_opt+0x50b>
  4079a0:	31 c0                	xor    %eax,%eax
  4079a2:	e8 f9 05 00 00       	call   407fa0 <__pr_notice>
  4079a7:	80 3b 05             	cmpb   $0x5,(%rbx)
  4079aa:	72 0e                	jb     4079ba <set_cpu_init+0x1fa>
  4079ac:	48 8d 3d 9a 2e 00 00 	lea    0x2e9a(%rip),%rdi        # 40a84d <short_opt+0x51d>
  4079b3:	31 c0                	xor    %eax,%eax
  4079b5:	e8 e6 05 00 00       	call   407fa0 <__pr_notice>
  4079ba:	64 48 8b 04 25 28 00 	mov    %fs:0x28,%rax
  4079c1:	00 00 
  4079c3:	48 3b 84 24 10 01 00 	cmp    0x110(%rsp),%rax
  4079ca:	00 
  4079cb:	0f 85 bb 00 00 00    	jne    407a8c <set_cpu_init+0x2cc>
  4079d1:	44 89 f8             	mov    %r15d,%eax
  4079d4:	48 81 c4 18 01 00 00 	add    $0x118,%rsp
  4079db:	5b                   	pop    %rbx
  4079dc:	41 5c                	pop    %r12
  4079de:	41 5d                	pop    %r13
  4079e0:	41 5e                	pop    %r14
  4079e2:	41 5f                	pop    %r15
  4079e4:	5d                   	pop    %rbp
  4079e5:	c3                   	ret    
  4079e6:	e8 45 a6 ff ff       	call   402030 <__errno_location@plt>
  4079eb:	8b 18                	mov    (%rax),%ebx
  4079ed:	89 df                	mov    %ebx,%edi
  4079ef:	e8 bc a6 ff ff       	call   4020b0 <strerror@plt>
  4079f4:	48 8d 3d 38 2d 00 00 	lea    0x2d38(%rip),%rdi        # 40a733 <short_opt+0x403>
  4079fb:	89 de                	mov    %ebx,%esi
  4079fd:	48 89 c2             	mov    %rax,%rdx
  407a00:	31 c0                	xor    %eax,%eax
  407a02:	e8 e9 00 00 00       	call   407af0 <__pr_error>
  407a07:	48 8d 05 9a 68 00 00 	lea    0x689a(%rip),%rax        # 40e2a8 <__notice_level>
  407a0e:	41 bf ff ff ff ff    	mov    $0xffffffff,%r15d
  407a14:	80 38 05             	cmpb   $0x5,(%rax)
  407a17:	0f 82 44 ff ff ff    	jb     407961 <set_cpu_init+0x1a1>
  407a1d:	48 8d 3d 2a 2d 00 00 	lea    0x2d2a(%rip),%rdi        # 40a74e <short_opt+0x41e>
  407a24:	31 c0                	xor    %eax,%eax
  407a26:	e8 75 05 00 00       	call   407fa0 <__pr_notice>
  407a2b:	e9 31 ff ff ff       	jmp    407961 <set_cpu_init+0x1a1>
  407a30:	89 df                	mov    %ebx,%edi
  407a32:	e8 79 a6 ff ff       	call   4020b0 <strerror@plt>
  407a37:	48 8d 3d ca 2d 00 00 	lea    0x2dca(%rip),%rdi        # 40a808 <short_opt+0x4d8>
  407a3e:	89 de                	mov    %ebx,%esi
  407a40:	48 89 c2             	mov    %rax,%rdx
  407a43:	31 c0                	xor    %eax,%eax
  407a45:	e8 a6 00 00 00       	call   407af0 <__pr_error>
  407a4a:	48 8d 05 57 68 00 00 	lea    0x6857(%rip),%rax        # 40e2a8 <__notice_level>
  407a51:	80 38 05             	cmpb   $0x5,(%rax)
  407a54:	0f 82 60 ff ff ff    	jb     4079ba <set_cpu_init+0x1fa>
  407a5a:	48 8d 3d b5 2d 00 00 	lea    0x2db5(%rip),%rdi        # 40a816 <short_opt+0x4e6>
  407a61:	e9 4d ff ff ff       	jmp    4079b3 <set_cpu_init+0x1f3>
  407a66:	e8 c5 a5 ff ff       	call   402030 <__errno_location@plt>
  407a6b:	8b 18                	mov    (%rax),%ebx
  407a6d:	89 df                	mov    %ebx,%edi
  407a6f:	e8 3c a6 ff ff       	call   4020b0 <strerror@plt>
  407a74:	48 8d 3d f8 2c 00 00 	lea    0x2cf8(%rip),%rdi        # 40a773 <short_opt+0x443>
  407a7b:	89 de                	mov    %ebx,%esi
  407a7d:	48 89 c2             	mov    %rax,%rdx
  407a80:	31 c0                	xor    %eax,%eax
  407a82:	e8 69 00 00 00       	call   407af0 <__pr_error>
  407a87:	e9 d5 fe ff ff       	jmp    407961 <set_cpu_init+0x1a1>
  407a8c:	e8 af a7 ff ff       	call   402240 <__stack_chk_fail@plt>
  407a91:	66 2e 0f 1f 84 00 00 	cs nopw 0x0(%rax,%rax,1)
  407a98:	00 00 00 
  407a9b:	0f 1f 44 00 00       	nopl   0x0(%rax,%rax,1)

0000000000407aa0 <print_license>:
  407aa0:	53                   	push   %rbx
  407aa1:	31 db                	xor    %ebx,%ebx
  407aa3:	66 85 ff             	test   %di,%di
  407aa6:	74 0f                	je     407ab7 <print_license+0x17>
  407aa8:	66 83 ff 01          	cmp    $0x1,%di
  407aac:	75 12                	jne    407ac0 <print_license+0x20>
  407aae:	48 8d 35 eb 30 00 00 	lea    0x30eb(%rip),%rsi        # 40aba0 <license_text_inih>
  407ab5:	eb 15                	jmp    407acc <print_license+0x2c>
  407ab7:	48 8d 35 c2 2d 00 00 	lea    0x2dc2(%rip),%rsi        # 40a880 <license_text_teavpn2>
  407abe:	eb 0c                	jmp    407acc <print_license+0x2c>
  407ac0:	48 8d 35 e9 36 00 00 	lea    0x36e9(%rip),%rsi        # 40b1b0 <invalid>
  407ac7:	bb 01 00 00 00       	mov    $0x1,%ebx
  407acc:	48 8d 3d ed 1f 00 00 	lea    0x1fed(%rip),%rdi        # 409ac0 <short_opt+0x1b0>
  407ad3:	31 c0                	xor    %eax,%eax
  407ad5:	e8 66 a5 ff ff       	call   402040 <printf@plt>
  407ada:	89 d8                	mov    %ebx,%eax
  407adc:	5b                   	pop    %rbx
  407add:	c3                   	ret    
  407ade:	66 90                	xchg   %ax,%ax

0000000000407ae0 <teavpn_print_version>:
  407ae0:	48 8d 3d e0 36 00 00 	lea    0x36e0(%rip),%rdi        # 40b1c7 <invalid+0x17>
  407ae7:	e9 84 a8 ff ff       	jmp    402370 <puts@plt>
  407aec:	0f 1f 40 00          	nopl   0x0(%rax)

0000000000407af0 <__pr_error>:
  407af0:	55                   	push   %rbp
  407af1:	41 57                	push   %r15
  407af3:	41 56                	push   %r14
  407af5:	41 55                	push   %r13
  407af7:	41 54                	push   %r12
  407af9:	53                   	push   %rbx
  407afa:	48 81 ec 08 01 00 00 	sub    $0x108,%rsp
  407b01:	49 89 ff             	mov    %rdi,%r15
  407b04:	84 c0                	test   %al,%al
  407b06:	74 31                	je     407b39 <__pr_error+0x49>
  407b08:	0f 29 44 24 30       	movaps %xmm0,0x30(%rsp)
  407b0d:	0f 29 4c 24 40       	movaps %xmm1,0x40(%rsp)
  407b12:	0f 29 54 24 50       	movaps %xmm2,0x50(%rsp)
  407b17:	0f 29 5c 24 60       	movaps %xmm3,0x60(%rsp)
  407b1c:	0f 29 64 24 70       	movaps %xmm4,0x70(%rsp)
  407b21:	0f 29 ac 24 80 00 00 	movaps %xmm5,0x80(%rsp)
  407b28:	00 
  407b29:	0f 29 b4 24 90 00 00 	movaps %xmm6,0x90(%rsp)
  407b30:	00 
  407b31:	0f 29 bc 24 a0 00 00 	movaps %xmm7,0xa0(%rsp)
  407b38:	00 
  407b39:	48 89 74 24 08       	mov    %rsi,0x8(%rsp)
  407b3e:	48 89 54 24 10       	mov    %rdx,0x10(%rsp)
  407b43:	48 89 4c 24 18       	mov    %rcx,0x18(%rsp)
  407b48:	4c 89 44 24 20       	mov    %r8,0x20(%rsp)
  407b4d:	4c 89 4c 24 28       	mov    %r9,0x28(%rsp)
  407b52:	64 48 8b 04 25 28 00 	mov    %fs:0x28,%rax
  407b59:	00 00 
  407b5b:	48 89 84 24 00 01 00 	mov    %rax,0x100(%rsp)
  407b62:	00 
  407b63:	4c 8d 35 8e 67 00 00 	lea    0x678e(%rip),%r14        # 40e2f8 <pr_error_mt>
  407b6a:	4c 89 f7             	mov    %r14,%rdi
  407b6d:	e8 ce a7 ff ff       	call   402340 <pthread_mutex_lock@plt>
  407b72:	48 b8 08 00 00 00 30 	movabs $0x3000000008,%rax
  407b79:	00 00 00 
  407b7c:	48 89 84 24 e0 00 00 	mov    %rax,0xe0(%rsp)
  407b83:	00 
  407b84:	48 8d 84 24 40 01 00 	lea    0x140(%rsp),%rax
  407b8b:	00 
  407b8c:	48 89 84 24 e8 00 00 	mov    %rax,0xe8(%rsp)
  407b93:	00 
  407b94:	48 89 e0             	mov    %rsp,%rax
  407b97:	48 89 84 24 f0 00 00 	mov    %rax,0xf0(%rsp)
  407b9e:	00 
  407b9f:	4c 8d 25 f2 67 00 00 	lea    0x67f2(%rip),%r12        # 40e398 <get_time_mt>
  407ba6:	4c 89 e7             	mov    %r12,%rdi
  407ba9:	e8 92 a7 ff ff       	call   402340 <pthread_mutex_lock@plt>
  407bae:	48 8d 9c 24 b8 00 00 	lea    0xb8(%rsp),%rbx
  407bb5:	00 
  407bb6:	48 89 df             	mov    %rbx,%rdi
  407bb9:	e8 12 a6 ff ff       	call   4021d0 <time@plt>
  407bbe:	48 89 df             	mov    %rbx,%rdi
  407bc1:	e8 aa a5 ff ff       	call   402170 <localtime@plt>
  407bc6:	48 89 c7             	mov    %rax,%rdi
  407bc9:	e8 f2 a4 ff ff       	call   4020c0 <asctime@plt>
  407bce:	49 89 c5             	mov    %rax,%r13
  407bd1:	be 20 00 00 00       	mov    $0x20,%esi
  407bd6:	48 89 c7             	mov    %rax,%rdi
  407bd9:	e8 a2 a7 ff ff       	call   402380 <strnlen@plt>
  407bde:	48 89 c3             	mov    %rax,%rbx
  407be1:	48 8d 50 ff          	lea    -0x1(%rax),%rdx
  407be5:	48 8d ac 24 c0 00 00 	lea    0xc0(%rsp),%rbp
  407bec:	00 
  407bed:	48 89 ef             	mov    %rbp,%rdi
  407bf0:	4c 89 ee             	mov    %r13,%rsi
  407bf3:	e8 a8 a5 ff ff       	call   4021a0 <memcpy@plt>
  407bf8:	c6 84 1c bf 00 00 00 	movb   $0x0,0xbf(%rsp,%rbx,1)
  407bff:	00 
  407c00:	4c 89 e7             	mov    %r12,%rdi
  407c03:	e8 78 a5 ff ff       	call   402180 <pthread_mutex_unlock@plt>
  407c08:	48 8d 3d ca 35 00 00 	lea    0x35ca(%rip),%rdi        # 40b1d9 <invalid+0x29>
  407c0f:	48 89 ee             	mov    %rbp,%rsi
  407c12:	31 c0                	xor    %eax,%eax
  407c14:	e8 27 a4 ff ff       	call   402040 <printf@plt>
  407c19:	48 8b 1d b0 63 00 00 	mov    0x63b0(%rip),%rbx        # 40dfd0 <stdout@GLIBC_2.2.5>
  407c20:	48 8b 3b             	mov    (%rbx),%rdi
  407c23:	48 8d 94 24 e0 00 00 	lea    0xe0(%rsp),%rdx
  407c2a:	00 
  407c2b:	4c 89 fe             	mov    %r15,%rsi
  407c2e:	e8 7d a6 ff ff       	call   4022b0 <vfprintf@plt>
  407c33:	48 8b 33             	mov    (%rbx),%rsi
  407c36:	bf 0a 00 00 00       	mov    $0xa,%edi
  407c3b:	e8 d0 a7 ff ff       	call   402410 <putc@plt>
  407c40:	4c 89 f7             	mov    %r14,%rdi
  407c43:	e8 38 a5 ff ff       	call   402180 <pthread_mutex_unlock@plt>
  407c48:	64 48 8b 04 25 28 00 	mov    %fs:0x28,%rax
  407c4f:	00 00 
  407c51:	48 3b 84 24 00 01 00 	cmp    0x100(%rsp),%rax
  407c58:	00 
  407c59:	75 12                	jne    407c6d <__pr_error+0x17d>
  407c5b:	48 81 c4 08 01 00 00 	add    $0x108,%rsp
  407c62:	5b                   	pop    %rbx
  407c63:	41 5c                	pop    %r12
  407c65:	41 5d                	pop    %r13
  407c67:	41 5e                	pop    %r14
  407c69:	41 5f                	pop    %r15
  407c6b:	5d                   	pop    %rbp
  407c6c:	c3                   	ret    
  407c6d:	e8 ce a5 ff ff       	call   402240 <__stack_chk_fail@plt>
  407c72:	66 2e 0f 1f 84 00 00 	cs nopw 0x0(%rax,%rax,1)
  407c79:	00 00 00 
  407c7c:	0f 1f 40 00          	nopl   0x0(%rax)

0000000000407c80 <__pr_emerg>:
  407c80:	55                   	push   %rbp
  407c81:	41 57                	push   %r15
  407c83:	41 56                	push   %r14
  407c85:	41 55                	push   %r13
  407c87:	41 54                	push   %r12
  407c89:	53                   	push   %rbx
  407c8a:	48 81 ec 08 01 00 00 	sub    $0x108,%rsp
  407c91:	49 89 ff             	mov    %rdi,%r15
  407c94:	84 c0                	test   %al,%al
  407c96:	74 31                	je     407cc9 <__pr_emerg+0x49>
  407c98:	0f 29 44 24 30       	movaps %xmm0,0x30(%rsp)
  407c9d:	0f 29 4c 24 40       	movaps %xmm1,0x40(%rsp)
  407ca2:	0f 29 54 24 50       	movaps %xmm2,0x50(%rsp)
  407ca7:	0f 29 5c 24 60       	movaps %xmm3,0x60(%rsp)
  407cac:	0f 29 64 24 70       	movaps %xmm4,0x70(%rsp)
  407cb1:	0f 29 ac 24 80 00 00 	movaps %xmm5,0x80(%rsp)
  407cb8:	00 
  407cb9:	0f 29 b4 24 90 00 00 	movaps %xmm6,0x90(%rsp)
  407cc0:	00 
  407cc1:	0f 29 bc 24 a0 00 00 	movaps %xmm7,0xa0(%rsp)
  407cc8:	00 
  407cc9:	48 89 74 24 08       	mov    %rsi,0x8(%rsp)
  407cce:	48 89 54 24 10       	mov    %rdx,0x10(%rsp)
  407cd3:	48 89 4c 24 18       	mov    %rcx,0x18(%rsp)
  407cd8:	4c 89 44 24 20       	mov    %r8,0x20(%rsp)
  407cdd:	4c 89 4c 24 28       	mov    %r9,0x28(%rsp)
  407ce2:	64 48 8b 04 25 28 00 	mov    %fs:0x28,%rax
  407ce9:	00 00 
  407ceb:	48 89 84 24 00 01 00 	mov    %rax,0x100(%rsp)
  407cf2:	00 
  407cf3:	4c 8d 35 26 66 00 00 	lea    0x6626(%rip),%r14        # 40e320 <pr_emerg_mt>
  407cfa:	4c 89 f7             	mov    %r14,%rdi
  407cfd:	e8 3e a6 ff ff       	call   402340 <pthread_mutex_lock@plt>
  407d02:	48 b8 08 00 00 00 30 	movabs $0x3000000008,%rax
  407d09:	00 00 00 
  407d0c:	48 89 84 24 e0 00 00 	mov    %rax,0xe0(%rsp)
  407d13:	00 
  407d14:	48 8d 84 24 40 01 00 	lea    0x140(%rsp),%rax
  407d1b:	00 
  407d1c:	48 89 84 24 e8 00 00 	mov    %rax,0xe8(%rsp)
  407d23:	00 
  407d24:	48 89 e0             	mov    %rsp,%rax
  407d27:	48 89 84 24 f0 00 00 	mov    %rax,0xf0(%rsp)
  407d2e:	00 
  407d2f:	4c 8d 25 62 66 00 00 	lea    0x6662(%rip),%r12        # 40e398 <get_time_mt>
  407d36:	4c 89 e7             	mov    %r12,%rdi
  407d39:	e8 02 a6 ff ff       	call   402340 <pthread_mutex_lock@plt>
  407d3e:	48 8d 9c 24 b8 00 00 	lea    0xb8(%rsp),%rbx
  407d45:	00 
  407d46:	48 89 df             	mov    %rbx,%rdi
  407d49:	e8 82 a4 ff ff       	call   4021d0 <time@plt>
  407d4e:	48 89 df             	mov    %rbx,%rdi
  407d51:	e8 1a a4 ff ff       	call   402170 <localtime@plt>
  407d56:	48 89 c7             	mov    %rax,%rdi
  407d59:	e8 62 a3 ff ff       	call   4020c0 <asctime@plt>
  407d5e:	49 89 c5             	mov    %rax,%r13
  407d61:	be 20 00 00 00       	mov    $0x20,%esi
  407d66:	48 89 c7             	mov    %rax,%rdi
  407d69:	e8 12 a6 ff ff       	call   402380 <strnlen@plt>
  407d6e:	48 89 c3             	mov    %rax,%rbx
  407d71:	48 8d 50 ff          	lea    -0x1(%rax),%rdx
  407d75:	48 8d ac 24 c0 00 00 	lea    0xc0(%rsp),%rbp
  407d7c:	00 
  407d7d:	48 89 ef             	mov    %rbp,%rdi
  407d80:	4c 89 ee             	mov    %r13,%rsi
  407d83:	e8 18 a4 ff ff       	call   4021a0 <memcpy@plt>
  407d88:	c6 84 1c bf 00 00 00 	movb   $0x0,0xbf(%rsp,%rbx,1)
  407d8f:	00 
  407d90:	4c 89 e7             	mov    %r12,%rdi
  407d93:	e8 e8 a3 ff ff       	call   402180 <pthread_mutex_unlock@plt>
  407d98:	48 8d 3d 47 34 00 00 	lea    0x3447(%rip),%rdi        # 40b1e6 <invalid+0x36>
  407d9f:	48 89 ee             	mov    %rbp,%rsi
  407da2:	31 c0                	xor    %eax,%eax
  407da4:	e8 97 a2 ff ff       	call   402040 <printf@plt>
  407da9:	48 8b 1d 20 62 00 00 	mov    0x6220(%rip),%rbx        # 40dfd0 <stdout@GLIBC_2.2.5>
  407db0:	48 8b 3b             	mov    (%rbx),%rdi
  407db3:	48 8d 94 24 e0 00 00 	lea    0xe0(%rsp),%rdx
  407dba:	00 
  407dbb:	4c 89 fe             	mov    %r15,%rsi
  407dbe:	e8 ed a4 ff ff       	call   4022b0 <vfprintf@plt>
  407dc3:	48 8b 33             	mov    (%rbx),%rsi
  407dc6:	bf 0a 00 00 00       	mov    $0xa,%edi
  407dcb:	e8 40 a6 ff ff       	call   402410 <putc@plt>
  407dd0:	4c 89 f7             	mov    %r14,%rdi
  407dd3:	e8 a8 a3 ff ff       	call   402180 <pthread_mutex_unlock@plt>
  407dd8:	64 48 8b 04 25 28 00 	mov    %fs:0x28,%rax
  407ddf:	00 00 
  407de1:	48 3b 84 24 00 01 00 	cmp    0x100(%rsp),%rax
  407de8:	00 
  407de9:	75 12                	jne    407dfd <__pr_emerg+0x17d>
  407deb:	48 81 c4 08 01 00 00 	add    $0x108,%rsp
  407df2:	5b                   	pop    %rbx
  407df3:	41 5c                	pop    %r12
  407df5:	41 5d                	pop    %r13
  407df7:	41 5e                	pop    %r14
  407df9:	41 5f                	pop    %r15
  407dfb:	5d                   	pop    %rbp
  407dfc:	c3                   	ret    
  407dfd:	e8 3e a4 ff ff       	call   402240 <__stack_chk_fail@plt>
  407e02:	66 2e 0f 1f 84 00 00 	cs nopw 0x0(%rax,%rax,1)
  407e09:	00 00 00 
  407e0c:	0f 1f 40 00          	nopl   0x0(%rax)

0000000000407e10 <__pr_debug>:
  407e10:	55                   	push   %rbp
  407e11:	41 57                	push   %r15
  407e13:	41 56                	push   %r14
  407e15:	41 55                	push   %r13
  407e17:	41 54                	push   %r12
  407e19:	53                   	push   %rbx
  407e1a:	48 81 ec 08 01 00 00 	sub    $0x108,%rsp
  407e21:	49 89 ff             	mov    %rdi,%r15
  407e24:	84 c0                	test   %al,%al
  407e26:	74 31                	je     407e59 <__pr_debug+0x49>
  407e28:	0f 29 44 24 30       	movaps %xmm0,0x30(%rsp)
  407e2d:	0f 29 4c 24 40       	movaps %xmm1,0x40(%rsp)
  407e32:	0f 29 54 24 50       	movaps %xmm2,0x50(%rsp)
  407e37:	0f 29 5c 24 60       	movaps %xmm3,0x60(%rsp)
  407e3c:	0f 29 64 24 70       	movaps %xmm4,0x70(%rsp)
  407e41:	0f 29 ac 24 80 00 00 	movaps %xmm5,0x80(%rsp)
  407e48:	00 
  407e49:	0f 29 b4 24 90 00 00 	movaps %xmm6,0x90(%rsp)
  407e50:	00 
  407e51:	0f 29 bc 24 a0 00 00 	movaps %xmm7,0xa0(%rsp)
  407e58:	00 
  407e59:	48 89 74 24 08       	mov    %rsi,0x8(%rsp)
  407e5e:	48 89 54 24 10       	mov    %rdx,0x10(%rsp)
  407e63:	48 89 4c 24 18       	mov    %rcx,0x18(%rsp)
  407e68:	4c 89 44 24 20       	mov    %r8,0x20(%rsp)
  407e6d:	4c 89 4c 24 28       	mov    %r9,0x28(%rsp)
  407e72:	64 48 8b 04 25 28 00 	mov    %fs:0x28,%rax
  407e79:	00 00 
  407e7b:	48 89 84 24 00 01 00 	mov    %rax,0x100(%rsp)
  407e82:	00 
  407e83:	4c 8d 35 be 64 00 00 	lea    0x64be(%rip),%r14        # 40e348 <pr_debug_mt>
  407e8a:	4c 89 f7             	mov    %r14,%rdi
  407e8d:	e8 ae a4 ff ff       	call   402340 <pthread_mutex_lock@plt>
  407e92:	48 b8 08 00 00 00 30 	movabs $0x3000000008,%rax
  407e99:	00 00 00 
  407e9c:	48 89 84 24 e0 00 00 	mov    %rax,0xe0(%rsp)
  407ea3:	00 
  407ea4:	48 8d 84 24 40 01 00 	lea    0x140(%rsp),%rax
  407eab:	00 
  407eac:	48 89 84 24 e8 00 00 	mov    %rax,0xe8(%rsp)
  407eb3:	00 
  407eb4:	48 89 e0             	mov    %rsp,%rax
  407eb7:	48 89 84 24 f0 00 00 	mov    %rax,0xf0(%rsp)
  407ebe:	00 
  407ebf:	4c 8d 25 d2 64 00 00 	lea    0x64d2(%rip),%r12        # 40e398 <get_time_mt>
  407ec6:	4c 89 e7             	mov    %r12,%rdi
  407ec9:	e8 72 a4 ff ff       	call   402340 <pthread_mutex_lock@plt>
  407ece:	48 8d 9c 24 b8 00 00 	lea    0xb8(%rsp),%rbx
  407ed5:	00 
  407ed6:	48 89 df             	mov    %rbx,%rdi
  407ed9:	e8 f2 a2 ff ff       	call   4021d0 <time@plt>
  407ede:	48 89 df             	mov    %rbx,%rdi
  407ee1:	e8 8a a2 ff ff       	call   402170 <localtime@plt>
  407ee6:	48 89 c7             	mov    %rax,%rdi
  407ee9:	e8 d2 a1 ff ff       	call   4020c0 <asctime@plt>
  407eee:	49 89 c5             	mov    %rax,%r13
  407ef1:	be 20 00 00 00       	mov    $0x20,%esi
  407ef6:	48 89 c7             	mov    %rax,%rdi
  407ef9:	e8 82 a4 ff ff       	call   402380 <strnlen@plt>
  407efe:	48 89 c3             	mov    %rax,%rbx
  407f01:	48 8d 50 ff          	lea    -0x1(%rax),%rdx
  407f05:	48 8d ac 24 c0 00 00 	lea    0xc0(%rsp),%rbp
  407f0c:	00 
  407f0d:	48 89 ef             	mov    %rbp,%rdi
  407f10:	4c 89 ee             	mov    %r13,%rsi
  407f13:	e8 88 a2 ff ff       	call   4021a0 <memcpy@plt>
  407f18:	c6 84 1c bf 00 00 00 	movb   $0x0,0xbf(%rsp,%rbx,1)
  407f1f:	00 
  407f20:	4c 89 e7             	mov    %r12,%rdi
  407f23:	e8 58 a2 ff ff       	call   402180 <pthread_mutex_unlock@plt>
  407f28:	48 8d 3d c8 32 00 00 	lea    0x32c8(%rip),%rdi        # 40b1f7 <invalid+0x47>
  407f2f:	48 89 ee             	mov    %rbp,%rsi
  407f32:	31 c0                	xor    %eax,%eax
  407f34:	e8 07 a1 ff ff       	call   402040 <printf@plt>
  407f39:	48 8b 1d 90 60 00 00 	mov    0x6090(%rip),%rbx        # 40dfd0 <stdout@GLIBC_2.2.5>
  407f40:	48 8b 3b             	mov    (%rbx),%rdi
  407f43:	48 8d 94 24 e0 00 00 	lea    0xe0(%rsp),%rdx
  407f4a:	00 
  407f4b:	4c 89 fe             	mov    %r15,%rsi
  407f4e:	e8 5d a3 ff ff       	call   4022b0 <vfprintf@plt>
  407f53:	48 8b 33             	mov    (%rbx),%rsi
  407f56:	bf 0a 00 00 00       	mov    $0xa,%edi
  407f5b:	e8 b0 a4 ff ff       	call   402410 <putc@plt>
  407f60:	4c 89 f7             	mov    %r14,%rdi
  407f63:	e8 18 a2 ff ff       	call   402180 <pthread_mutex_unlock@plt>
  407f68:	64 48 8b 04 25 28 00 	mov    %fs:0x28,%rax
  407f6f:	00 00 
  407f71:	48 3b 84 24 00 01 00 	cmp    0x100(%rsp),%rax
  407f78:	00 
  407f79:	75 12                	jne    407f8d <__pr_debug+0x17d>
  407f7b:	48 81 c4 08 01 00 00 	add    $0x108,%rsp
  407f82:	5b                   	pop    %rbx
  407f83:	41 5c                	pop    %r12
  407f85:	41 5d                	pop    %r13
  407f87:	41 5e                	pop    %r14
  407f89:	41 5f                	pop    %r15
  407f8b:	5d                   	pop    %rbp
  407f8c:	c3                   	ret    
  407f8d:	e8 ae a2 ff ff       	call   402240 <__stack_chk_fail@plt>
  407f92:	66 2e 0f 1f 84 00 00 	cs nopw 0x0(%rax,%rax,1)
  407f99:	00 00 00 
  407f9c:	0f 1f 40 00          	nopl   0x0(%rax)

0000000000407fa0 <__pr_notice>:
  407fa0:	55                   	push   %rbp
  407fa1:	41 57                	push   %r15
  407fa3:	41 56                	push   %r14
  407fa5:	41 55                	push   %r13
  407fa7:	41 54                	push   %r12
  407fa9:	53                   	push   %rbx
  407faa:	48 81 ec 08 01 00 00 	sub    $0x108,%rsp
  407fb1:	49 89 ff             	mov    %rdi,%r15
  407fb4:	84 c0                	test   %al,%al
  407fb6:	74 31                	je     407fe9 <__pr_notice+0x49>
  407fb8:	0f 29 44 24 30       	movaps %xmm0,0x30(%rsp)
  407fbd:	0f 29 4c 24 40       	movaps %xmm1,0x40(%rsp)
  407fc2:	0f 29 54 24 50       	movaps %xmm2,0x50(%rsp)
  407fc7:	0f 29 5c 24 60       	movaps %xmm3,0x60(%rsp)
  407fcc:	0f 29 64 24 70       	movaps %xmm4,0x70(%rsp)
  407fd1:	0f 29 ac 24 80 00 00 	movaps %xmm5,0x80(%rsp)
  407fd8:	00 
  407fd9:	0f 29 b4 24 90 00 00 	movaps %xmm6,0x90(%rsp)
  407fe0:	00 
  407fe1:	0f 29 bc 24 a0 00 00 	movaps %xmm7,0xa0(%rsp)
  407fe8:	00 
  407fe9:	48 89 74 24 08       	mov    %rsi,0x8(%rsp)
  407fee:	48 89 54 24 10       	mov    %rdx,0x10(%rsp)
  407ff3:	48 89 4c 24 18       	mov    %rcx,0x18(%rsp)
  407ff8:	4c 89 44 24 20       	mov    %r8,0x20(%rsp)
  407ffd:	4c 89 4c 24 28       	mov    %r9,0x28(%rsp)
  408002:	64 48 8b 04 25 28 00 	mov    %fs:0x28,%rax
  408009:	00 00 
  40800b:	48 89 84 24 00 01 00 	mov    %rax,0x100(%rsp)
  408012:	00 
  408013:	4c 8d 35 56 63 00 00 	lea    0x6356(%rip),%r14        # 40e370 <pr_notice_mt>
  40801a:	4c 89 f7             	mov    %r14,%rdi
  40801d:	e8 1e a3 ff ff       	call   402340 <pthread_mutex_lock@plt>
  408022:	48 b8 08 00 00 00 30 	movabs $0x3000000008,%rax
  408029:	00 00 00 
  40802c:	48 89 84 24 e0 00 00 	mov    %rax,0xe0(%rsp)
  408033:	00 
  408034:	48 8d 84 24 40 01 00 	lea    0x140(%rsp),%rax
  40803b:	00 
  40803c:	48 89 84 24 e8 00 00 	mov    %rax,0xe8(%rsp)
  408043:	00 
  408044:	48 89 e0             	mov    %rsp,%rax
  408047:	48 89 84 24 f0 00 00 	mov    %rax,0xf0(%rsp)
  40804e:	00 
  40804f:	4c 8d 25 42 63 00 00 	lea    0x6342(%rip),%r12        # 40e398 <get_time_mt>
  408056:	4c 89 e7             	mov    %r12,%rdi
  408059:	e8 e2 a2 ff ff       	call   402340 <pthread_mutex_lock@plt>
  40805e:	48 8d 9c 24 b8 00 00 	lea    0xb8(%rsp),%rbx
  408065:	00 
  408066:	48 89 df             	mov    %rbx,%rdi
  408069:	e8 62 a1 ff ff       	call   4021d0 <time@plt>
  40806e:	48 89 df             	mov    %rbx,%rdi
  408071:	e8 fa a0 ff ff       	call   402170 <localtime@plt>
  408076:	48 89 c7             	mov    %rax,%rdi
  408079:	e8 42 a0 ff ff       	call   4020c0 <asctime@plt>
  40807e:	49 89 c5             	mov    %rax,%r13
  408081:	be 20 00 00 00       	mov    $0x20,%esi
  408086:	48 89 c7             	mov    %rax,%rdi
  408089:	e8 f2 a2 ff ff       	call   402380 <strnlen@plt>
  40808e:	48 89 c3             	mov    %rax,%rbx
  408091:	48 8d 50 ff          	lea    -0x1(%rax),%rdx
  408095:	48 8d ac 24 c0 00 00 	lea    0xc0(%rsp),%rbp
  40809c:	00 
  40809d:	48 89 ef             	mov    %rbp,%rdi
  4080a0:	4c 89 ee             	mov    %r13,%rsi
  4080a3:	e8 f8 a0 ff ff       	call   4021a0 <memcpy@plt>
  4080a8:	c6 84 1c bf 00 00 00 	movb   $0x0,0xbf(%rsp,%rbx,1)
  4080af:	00 
  4080b0:	4c 89 e7             	mov    %r12,%rdi
  4080b3:	e8 c8 a0 ff ff       	call   402180 <pthread_mutex_unlock@plt>
  4080b8:	48 8d 3d 45 31 00 00 	lea    0x3145(%rip),%rdi        # 40b204 <invalid+0x54>
  4080bf:	48 89 ee             	mov    %rbp,%rsi
  4080c2:	31 c0                	xor    %eax,%eax
  4080c4:	e8 77 9f ff ff       	call   402040 <printf@plt>
  4080c9:	48 8b 1d 00 5f 00 00 	mov    0x5f00(%rip),%rbx        # 40dfd0 <stdout@GLIBC_2.2.5>
  4080d0:	48 8b 3b             	mov    (%rbx),%rdi
  4080d3:	48 8d 94 24 e0 00 00 	lea    0xe0(%rsp),%rdx
  4080da:	00 
  4080db:	4c 89 fe             	mov    %r15,%rsi
  4080de:	e8 cd a1 ff ff       	call   4022b0 <vfprintf@plt>
  4080e3:	48 8b 33             	mov    (%rbx),%rsi
  4080e6:	bf 0a 00 00 00       	mov    $0xa,%edi
  4080eb:	e8 20 a3 ff ff       	call   402410 <putc@plt>
  4080f0:	4c 89 f7             	mov    %r14,%rdi
  4080f3:	e8 88 a0 ff ff       	call   402180 <pthread_mutex_unlock@plt>
  4080f8:	64 48 8b 04 25 28 00 	mov    %fs:0x28,%rax
  4080ff:	00 00 
  408101:	48 3b 84 24 00 01 00 	cmp    0x100(%rsp),%rax
  408108:	00 
  408109:	75 12                	jne    40811d <__pr_notice+0x17d>
  40810b:	48 81 c4 08 01 00 00 	add    $0x108,%rsp
  408112:	5b                   	pop    %rbx
  408113:	41 5c                	pop    %r12
  408115:	41 5d                	pop    %r13
  408117:	41 5e                	pop    %r14
  408119:	41 5f                	pop    %r15
  40811b:	5d                   	pop    %rbp
  40811c:	c3                   	ret    
  40811d:	e8 1e a1 ff ff       	call   402240 <__stack_chk_fail@plt>
  408122:	66 2e 0f 1f 84 00 00 	cs nopw 0x0(%rax,%rax,1)
  408129:	00 00 00 
  40812c:	0f 1f 40 00          	nopl   0x0(%rax)

0000000000408130 <main>:
  408130:	55                   	push   %rbp
  408131:	41 56                	push   %r14
  408133:	53                   	push   %rbx
  408134:	48 81 ec 10 10 00 00 	sub    $0x1010,%rsp
  40813b:	49 89 f6             	mov    %rsi,%r14
  40813e:	64 48 8b 04 25 28 00 	mov    %fs:0x28,%rax
  408145:	00 00 
  408147:	48 89 84 24 08 10 00 	mov    %rax,0x1008(%rsp)
  40814e:	00 
  40814f:	83 ff 01             	cmp    $0x1,%edi
  408152:	0f 8f ce 00 00 00    	jg     408226 <main+0xf6>
  408158:	49 8b 1e             	mov    (%r14),%rbx
  40815b:	48 8d 3d db 30 00 00 	lea    0x30db(%rip),%rdi        # 40b23d <invalid+0x8d>
  408162:	48 89 de             	mov    %rbx,%rsi
  408165:	31 c0                	xor    %eax,%eax
  408167:	e8 d4 9e ff ff       	call   402040 <printf@plt>
  40816c:	48 8d 3d 70 31 00 00 	lea    0x3170(%rip),%rdi        # 40b2e3 <invalid+0x133>
  408173:	e8 f8 a1 ff ff       	call   402370 <puts@plt>
  408178:	48 8d 3d 69 31 00 00 	lea    0x3169(%rip),%rdi        # 40b2e8 <invalid+0x138>
  40817f:	e8 ec a1 ff ff       	call   402370 <puts@plt>
  408184:	48 8d 3d d8 30 00 00 	lea    0x30d8(%rip),%rdi        # 40b263 <invalid+0xb3>
  40818b:	48 89 de             	mov    %rbx,%rsi
  40818e:	31 c0                	xor    %eax,%eax
  408190:	e8 ab 9e ff ff       	call   402040 <printf@plt>
  408195:	48 8d 3d dc 30 00 00 	lea    0x30dc(%rip),%rdi        # 40b278 <invalid+0xc8>
  40819c:	48 89 de             	mov    %rbx,%rsi
  40819f:	31 c0                	xor    %eax,%eax
  4081a1:	e8 9a 9e ff ff       	call   402040 <printf@plt>
  4081a6:	bf 0a 00 00 00       	mov    $0xa,%edi
  4081ab:	e8 20 a1 ff ff       	call   4022d0 <putchar@plt>
  4081b0:	48 8d 3d 39 31 00 00 	lea    0x3139(%rip),%rdi        # 40b2f0 <invalid+0x140>
  4081b7:	e8 b4 a1 ff ff       	call   402370 <puts@plt>
  4081bc:	48 8d 3d ca 30 00 00 	lea    0x30ca(%rip),%rdi        # 40b28d <invalid+0xdd>
  4081c3:	48 89 de             	mov    %rbx,%rsi
  4081c6:	31 c0                	xor    %eax,%eax
  4081c8:	e8 73 9e ff ff       	call   402040 <printf@plt>
  4081cd:	bf 0a 00 00 00       	mov    $0xa,%edi
  4081d2:	e8 f9 a0 ff ff       	call   4022d0 <putchar@plt>
  4081d7:	48 8d 3d 1d 31 00 00 	lea    0x311d(%rip),%rdi        # 40b2fb <invalid+0x14b>
  4081de:	e8 8d a1 ff ff       	call   402370 <puts@plt>
  4081e3:	48 8d 3d b4 30 00 00 	lea    0x30b4(%rip),%rdi        # 40b29e <invalid+0xee>
  4081ea:	48 89 de             	mov    %rbx,%rsi
  4081ed:	31 c0                	xor    %eax,%eax
  4081ef:	e8 4c 9e ff ff       	call   402040 <printf@plt>
  4081f4:	48 8d 3d c7 30 00 00 	lea    0x30c7(%rip),%rdi        # 40b2c2 <invalid+0x112>
  4081fb:	48 89 de             	mov    %rbx,%rsi
  4081fe:	31 c0                	xor    %eax,%eax
  408200:	e8 3b 9e ff ff       	call   402040 <printf@plt>
  408205:	b8 01 00 00 00       	mov    $0x1,%eax
  40820a:	64 48 8b 0c 25 28 00 	mov    %fs:0x28,%rcx
  408211:	00 00 
  408213:	48 3b 8c 24 08 10 00 	cmp    0x1008(%rsp),%rcx
  40821a:	00 
  40821b:	0f 84 17 01 00 00    	je     408338 <main+0x208>
  408221:	e9 38 01 00 00       	jmp    40835e <main+0x22e>
  408226:	89 fd                	mov    %edi,%ebp
  408228:	48 89 e3             	mov    %rsp,%rbx
  40822b:	ba 00 10 00 00       	mov    $0x1000,%edx
  408230:	48 89 df             	mov    %rbx,%rdi
  408233:	31 f6                	xor    %esi,%esi
  408235:	e8 e6 9e ff ff       	call   402120 <memset@plt>
  40823a:	be 00 10 00 00       	mov    $0x1000,%esi
  40823f:	48 89 df             	mov    %rbx,%rdi
  408242:	e8 89 e5 ff ff       	call   4067d0 <ar_init>
  408247:	49 8b 5e 08          	mov    0x8(%r14),%rbx
  40824b:	48 8d 35 b8 2f 00 00 	lea    0x2fb8(%rip),%rsi        # 40b20a <invalid+0x5a>
  408252:	ba 06 00 00 00       	mov    $0x6,%edx
  408257:	48 89 df             	mov    %rbx,%rdi
  40825a:	e8 81 9e ff ff       	call   4020e0 <strncmp@plt>
  40825f:	85 c0                	test   %eax,%eax
  408261:	0f 84 95 00 00 00    	je     4082fc <main+0x1cc>
  408267:	48 8d 35 cc 1f 00 00 	lea    0x1fcc(%rip),%rsi        # 40a23a <short_opt+0x92a>
  40826e:	ba 06 00 00 00       	mov    $0x6,%edx
  408273:	48 89 df             	mov    %rbx,%rdi
  408276:	e8 65 9e ff ff       	call   4020e0 <strncmp@plt>
  40827b:	85 c0                	test   %eax,%eax
  40827d:	0f 84 98 00 00 00    	je     40831b <main+0x1eb>
  408283:	be 09 00 00 00       	mov    $0x9,%esi
  408288:	48 89 df             	mov    %rbx,%rdi
  40828b:	e8 f0 a0 ff ff       	call   402380 <strnlen@plt>
  408290:	48 8d 35 7a 2f 00 00 	lea    0x2f7a(%rip),%rsi        # 40b211 <invalid+0x61>
  408297:	48 89 df             	mov    %rbx,%rdi
  40829a:	48 89 c2             	mov    %rax,%rdx
  40829d:	e8 3e 9e ff ff       	call   4020e0 <strncmp@plt>
  4082a2:	85 c0                	test   %eax,%eax
  4082a4:	0f 84 9a 00 00 00    	je     408344 <main+0x214>
  4082aa:	48 8d 35 6a 2f 00 00 	lea    0x2f6a(%rip),%rsi        # 40b21b <invalid+0x6b>
  4082b1:	ba 09 00 00 00       	mov    $0x9,%edx
  4082b6:	48 89 df             	mov    %rbx,%rdi
  4082b9:	e8 22 9e ff ff       	call   4020e0 <strncmp@plt>
  4082be:	83 fd 03             	cmp    $0x3,%ebp
  4082c1:	0f 85 9c 00 00 00    	jne    408363 <main+0x233>
  4082c7:	85 c0                	test   %eax,%eax
  4082c9:	0f 85 94 00 00 00    	jne    408363 <main+0x233>
  4082cf:	49 8b 7e 10          	mov    0x10(%r14),%rdi
  4082d3:	31 f6                	xor    %esi,%esi
  4082d5:	ba 0a 00 00 00       	mov    $0xa,%edx
  4082da:	e8 11 a0 ff ff       	call   4022f0 <strtol@plt>
  4082df:	0f b7 f8             	movzwl %ax,%edi
  4082e2:	e8 b9 f7 ff ff       	call   407aa0 <print_license>
  4082e7:	64 48 8b 0c 25 28 00 	mov    %fs:0x28,%rcx
  4082ee:	00 00 
  4082f0:	48 3b 8c 24 08 10 00 	cmp    0x1008(%rsp),%rcx
  4082f7:	00 
  4082f8:	74 3e                	je     408338 <main+0x208>
  4082fa:	eb 62                	jmp    40835e <main+0x22e>
  4082fc:	89 ef                	mov    %ebp,%edi
  4082fe:	4c 89 f6             	mov    %r14,%rsi
  408301:	e8 8a e2 ff ff       	call   406590 <teavpn_client_entry>
  408306:	64 48 8b 0c 25 28 00 	mov    %fs:0x28,%rcx
  40830d:	00 00 
  40830f:	48 3b 8c 24 08 10 00 	cmp    0x1008(%rsp),%rcx
  408316:	00 
  408317:	74 1f                	je     408338 <main+0x208>
  408319:	eb 43                	jmp    40835e <main+0x22e>
  40831b:	89 ef                	mov    %ebp,%edi
  40831d:	4c 89 f6             	mov    %r14,%rsi
  408320:	e8 9b cd ff ff       	call   4050c0 <teavpn_server_entry>
  408325:	64 48 8b 0c 25 28 00 	mov    %fs:0x28,%rcx
  40832c:	00 00 
  40832e:	48 3b 8c 24 08 10 00 	cmp    0x1008(%rsp),%rcx
  408335:	00 
  408336:	75 26                	jne    40835e <main+0x22e>
  408338:	48 81 c4 10 10 00 00 	add    $0x1010,%rsp
  40833f:	5b                   	pop    %rbx
  408340:	41 5e                	pop    %r14
  408342:	5d                   	pop    %rbp
  408343:	c3                   	ret    
  408344:	e8 97 f7 ff ff       	call   407ae0 <teavpn_print_version>
  408349:	31 c0                	xor    %eax,%eax
  40834b:	64 48 8b 0c 25 28 00 	mov    %fs:0x28,%rcx
  408352:	00 00 
  408354:	48 3b 8c 24 08 10 00 	cmp    0x1008(%rsp),%rcx
  40835b:	00 
  40835c:	74 da                	je     408338 <main+0x208>
  40835e:	e8 dd 9e ff ff       	call   402240 <__stack_chk_fail@plt>
  408363:	48 8d 3d bb 2e 00 00 	lea    0x2ebb(%rip),%rdi        # 40b225 <invalid+0x75>
  40836a:	48 89 de             	mov    %rbx,%rsi
  40836d:	31 c0                	xor    %eax,%eax
  40836f:	e8 cc 9c ff ff       	call   402040 <printf@plt>
  408374:	e9 df fd ff ff       	jmp    408158 <main+0x28>
  408379:	0f 1f 80 00 00 00 00 	nopl   0x0(%rax)

0000000000408380 <__libc_csu_init>:
  408380:	f3 0f 1e fa          	endbr64 
  408384:	41 57                	push   %r15
  408386:	4c 8d 3d f3 56 00 00 	lea    0x56f3(%rip),%r15        # 40da80 <__frame_dummy_init_array_entry>
  40838d:	41 56                	push   %r14
  40838f:	49 89 d6             	mov    %rdx,%r14
  408392:	41 55                	push   %r13
  408394:	49 89 f5             	mov    %rsi,%r13
  408397:	41 54                	push   %r12
  408399:	41 89 fc             	mov    %edi,%r12d
  40839c:	55                   	push   %rbp
  40839d:	48 8d 2d e4 56 00 00 	lea    0x56e4(%rip),%rbp        # 40da88 <__do_global_dtors_aux_fini_array_entry>
  4083a4:	53                   	push   %rbx
  4083a5:	4c 29 fd             	sub    %r15,%rbp
  4083a8:	48 83 ec 08          	sub    $0x8,%rsp
  4083ac:	e8 4f 9c ff ff       	call   402000 <_init>
  4083b1:	48 c1 fd 03          	sar    $0x3,%rbp
  4083b5:	74 1f                	je     4083d6 <__libc_csu_init+0x56>
  4083b7:	31 db                	xor    %ebx,%ebx
  4083b9:	0f 1f 80 00 00 00 00 	nopl   0x0(%rax)
  4083c0:	4c 89 f2             	mov    %r14,%rdx
  4083c3:	4c 89 ee             	mov    %r13,%rsi
  4083c6:	44 89 e7             	mov    %r12d,%edi
  4083c9:	41 ff 14 df          	call   *(%r15,%rbx,8)
  4083cd:	48 83 c3 01          	add    $0x1,%rbx
  4083d1:	48 39 dd             	cmp    %rbx,%rbp
  4083d4:	75 ea                	jne    4083c0 <__libc_csu_init+0x40>
  4083d6:	48 83 c4 08          	add    $0x8,%rsp
  4083da:	5b                   	pop    %rbx
  4083db:	5d                   	pop    %rbp
  4083dc:	41 5c                	pop    %r12
  4083de:	41 5d                	pop    %r13
  4083e0:	41 5e                	pop    %r14
  4083e2:	41 5f                	pop    %r15
  4083e4:	c3                   	ret    
  4083e5:	66 66 2e 0f 1f 84 00 	data16 cs nopw 0x0(%rax,%rax,1)
  4083ec:	00 00 00 00 

00000000004083f0 <__libc_csu_fini>:
  4083f0:	f3 0f 1e fa          	endbr64 
  4083f4:	c3                   	ret    

Disassembly of section .fini:

00000000004083f8 <_fini>:
  4083f8:	f3 0f 1e fa          	endbr64 
  4083fc:	48 83 ec 08          	sub    $0x8,%rsp
  408400:	48 83 c4 08          	add    $0x8,%rsp
  408404:	c3                   	ret    
